(dp1
V\u4e66\u8bb0
p2
I3
sV\u6000
I3
sV\u5fc3\u7406\u5b66
p3
I6
sV\u666e\u6797\u65af\u987f\u5927\u5b66
p4
I3
sV\u4e86\u5411
p5
I3
sV\u5982\u540c
p6
I3
sV\u51fa\u6765
p7
I3
sV\u6551\u6cbb
p8
I6
sV\u4e0b\u5468
p9
I3
sV\u968f
I24
sV\u95e8\u7968
p10
I3
sV\u7167\u6b64
p11
I3
sV\u786e\u4fdd
p12
I6
sV\u4e3a\u4e3b
p13
I15
sV\u7279\u533a
p14
I3
sV\u9001\u76d8
p15
I3
sV\u6572\u8bc8
p16
I9
sV\u4e50\u56ed
p17
I3
sV\u4f53\u80b2\u5c40
p18
I3
sV\u516d\u4e03
p19
I3
sV\u59d4\u5458
p20
I21
sV\u5e26\u9519
p21
I3
sV\u8fd9\u6761
p22
I15
sV160
p23
I3
sV\u6b21\u65b9
p24
I6
sV\u6848\u4ef6
p25
I3
sV\u53d1\u751f
p26
I6
sV\u6b32
I3
sV\u66f4\u5feb
p27
I6
sV\u5934\u9aa8
p28
I3
sV\u5185\u8d44
p29
I9
sVsorry
p30
I3
sV\u8fd9\u6837\u4e00\u6765
p31
I3
sV\u7ebf
I6
sV\u5927\u5802
p32
I3
sV\u9ad8\u8d85
p33
I3
sV@
I3
sV\u667a\u80fd\u624b\u673a
p34
I9
sV\u4e0d\u95ee
p35
I6
sV\u9a97\u5c40
p36
I9
sV\u817e\u51fa
p37
I3
sV\u6cb3\u5317
p38
I6
sV\u54c1\u724c
p39
I6
sV\u591a\u5e74
p40
I6
sV\u90a3\u4e48
p41
I33
sV\u5206\u7ec4
p42
I6
sV\u957f\u65f6\u95f4
p43
I3
sV\u6e38\u6cf3
p44
I3
sV\u5e94\u4ee5
p45
I3
sV\u8bdd
I15
sV\u8d5e
I6
sV\u5173\u7cfb
p46
I18
sV\u4e09\u4e9a
p47
I3
sV\u4e00\u70b9
p48
I9
sV\u9664
I3
sV\u4e94\u68f5\u677e
p49
I3
sV\u521b\u4e1a\u8005
p50
I9
sV\u51a0\u519b\u8d5b
p51
I3
sV\u4e16\u7eaa
p52
I3
sV\u60c5\u611f
p53
I9
sV\u5938
I18
sV\u8d70\u52bf\u56fe
p54
I3
sV\u51b7\u51b7\u7684
p55
I3
sV\u804b\u5b50
p56
I3
sV\u6253\u574f
p57
I3
sVSNS
p58
I3
sV\u6276\u6396
p59
I3
sV\u5176
I51
sV\u7c7b
I3
sV\u5e9f\u9664
p60
I3
sV\u63a5\u8fd1
p61
I3
sV\u56de\u6765
p62
I18
sV\u4eb2\u81ea
p63
I6
sV\u6247
I6
sV\u5e94\u8bd5
p64
I3
sV\u515a\u4e2d\u592e
p65
I3
sV\u7b2c\u4e00
p66
I9
sV\u6c88
I11
sV\u300b
I33
sV\u8116
I6
sV\u7a81\u53d1
p67
I3
sV\u5835\u4e8c
p68
I9
sV\u65e8\u5728
p69
I3
sV\u865e\u950b
p70
I9
sV\u56db\u6746
p71
I3
sVj21
p72
I3
sV\u80e1\u9526\u6d9b
p73
I3
sV\u521d\u4e8c
p74
I6
sV\u773c\u4e2d
p75
I3
sV.8.0
p76
I3
sV\u62a5\u5230
p77
I3
sV\u52a0\u8f7d
p78
I3
sV\u522b
I12
sV\u534a\u5e74\u524d
p79
I18
sV\u4e01\u5065
p80
I12
sV\u8d1f\u503a
p81
I6
sV\u8d70
I27
sV\u8c0e\u8a00
p82
I24
sV\u65f6\u523b
p83
I3
sV\u4e3a\u4e86
p84
I12
sV\u638f\u94b1
p85
I3
sV\u6280\u672f
p86
I36
sV\u662f
I795
sV\u8ddf\u968f
p87
I3
sV\u516d\u767e\u591a
p88
I3
sV\u8bb2
I51
sV\u7ec8\u7aef
p89
I21
sV\u60c5\u51b5
p90
I27
sV\u5398\u7c73
p91
I6
sV\u6d1e
I6
sV\u89e3\u51b3\u95ee\u9898
p92
I9
sV\u5e76\u975e
p93
I3
sV\u89c1\u8bc1
p94
I15
sV\u7968\u8d29\u5b50
p95
I3
sV\u77ed\u7247
p96
I6
sV\u771f\u725b
p97
I6
sV\u79c1\u5bc6
p98
I3
sV\u4e94\u5e74
p99
I15
sV\u4fca
I6
sV\u5728\u5bb6
p100
I9
sV\u4e0d\u7528
p101
I6
sV\u5927\u6279
p102
I3
sV\u5dee\u5f02\u5316
p103
I3
sV\u6e05\u671d
p104
I3
sV\u7834\u574f
p105
I3
sV\u5e73\u7b49
p106
I9
sV\u7ecf\u9a8c
p107
I3
sVchina
p108
I3
sV\u5c4f
I3
sV100
p109
I33
sV\u533b\u672f
p110
I3
sV\u8ba1\u8f83
p111
I3
sV\u4e5f
I264
sV105
p112
I3
sV\u5bf9\u7b49
p113
I6
sV\u4ea7\u54c1
p114
I36
sV\u4e2d\u4ea7
p115
I6
sV\u5356\u529b
p116
I3
sV\u65b0\u95fb
p117
I18
sV\u65e0\u5948
p118
I6
sV\u5c40\u9650
p119
I18
sV\u804c\u8109
p120
I6
sV\u5546\u52a1
p121
I6
sV\u53ef\u60dc
p122
I12
sV\u6ef4
I6
sV\u8be6\u7ec6
p123
I9
sV\u6b21\u7ad9
p124
I3
sVe9
p125
I3
sV\u4ee4\u4eba\u53d1\u6307
p126
I6
sV\u4e0d\u9519
p127
I39
sVpunishment
p128
I3
sV\u6d88\u9664
p129
I6
sV\u5f80\u5f80
p130
I3
sV\u91cc\u9762
p131
I3
sV\u76ee\u524d
p132
I36
sV\u517c\u987e
p133
I3
sV\u4e94\u5fb7
p134
I3
sV\u4e0a
I228
sV\u6700\u540e
p135
I12
sV\u4e94\u90e8\u66f2
p136
I6
sV\u5171\u4ea7\u515a\u5458
p137
I6
sV\u540e
I102
sV\u6284\u88ad
p138
I3
sV\u6df1\u5733\u5e02\u653f\u5e9c
p139
I6
sV\u4eba\u4eba
p140
I6
sV\u68a8\u56ed
p141
I3
sVDwan
p142
I3
sV\u574e\u5777
p143
I3
sV\u4e00\u7a8d\u4e0d\u901a
p144
I3
sV\u4e5f\u597d
p145
I3
sV\u4e00\u6b21
p146
I30
sVStar
p147
I3
sV\u4ea7\u751f
p148
I6
sV\u5468\u6210
p149
I9
sV\u5bf9\u9a82
p150
I3
sV\u5b8f\u89c2
p151
I3
sV\u5c0f\u4eba\u7269
p152
I3
sV\u6881\u5c71
p153
I3
sV\u4e8c\u5341\u591a\u4e2a
p154
I3
sV\u8868\u660e
p155
I3
sV\u65e5\u5b50
p156
I45
sV\u4fe1\u90e8
p157
I1
sV\u5341\u516b\u5c81
p158
I3
sV\u636e\u8bf4
p159
I9
sV\u8b66\u793a
p160
I3
sV\u4eba\u4eec
p161
I33
sV\u9f13\u5439
p162
I3
sV\u6295\u673a
p163
I3
sV\u5dee
I21
sV\u76f8
I3
sV\u5360\u636e
p164
I3
sV\u80a1\u6743
p165
I6
sV\u4ece\u6765
p166
I3
sV99
p167
I3
sV98
p168
I3
sV\u5feb\u4e50
p169
I15
sVV
I3
sV90
p170
I6
sVhole
p171
I3
sV92
p172
I3
sV97
p173
I3
sV\u552e\u7968
p174
I3
sV\u4e0d\u7075
p175
I3
sV\u4e91\u8ba1\u7b97
p176
I54
sV\u7262
I3
sV\u6b63\u5f0f
p177
I6
sV\u4ee5\u4e0b
p178
I6
sV\u4e00\u6b65
p179
I18
sV1999
p180
I3
sV\u7ea7
I9
sV\u8fc7\u4efd
p181
I3
sV\u8c22\u8c22\u60a8
p182
I3
sV\u666e\u9640\u5c71
p183
I3
sV\u5343\u5c71\u4e07\u6c34
p184
I3
sVWEB2
p185
I3
sV\u7535\u4fe1\u7f51
p186
I3
sV\u63a9\u57cb
p187
I6
sV\u52a0\u4e91
p188
I3
sV\u6307\u8d23
p189
I6
sV\u8c08\u5224
p190
I3
sV\u53f7
I3
sV\u8bbf\u8c08
p191
I15
sV\u70ed\u6c14\u7403
p192
I9
sV\u6492\u843d
p193
I3
sV\u75c5\u5371
p194
I3
sV\u96be\u8fc7
p195
I3
sV\u8001
I33
sV\u660e\u5929
p196
I9
sV\u8282
I3
sV\u60a0
I3
sV\u6b27\u6d32
p197
I9
sV\u4e09\u7f51
p198
I9
sV\u8054\u60f3
p199
I3
sV\u53d6\u5f97
p200
I9
sV\u5e7f\u7535\u603b\u5c40
p201
I3
sV\u5404\u4f4d
p202
I15
sV25330
p203
I3
sV\u601d\u60f3\u89e3\u653e
p204
I6
sV\u672a\u6765
p205
I24
sV\u793e\u533a
p206
I6
sV\u4fee
I6
sV\u516b\u671f
p207
I3
sV\u51af\u4ed1
p208
I6
sV\u8fd1\u5341\u5e74
p209
I3
sV\u4e2d\u4fe1
p210
I3
sV\u865a\u4f2a
p211
I3
sV\u63a5\u4e0a
p212
I3
sV\u8fbe\u6210
p213
I3
sV\u4e3a\u8f85
p214
I3
sV\u8d35\u5ef7
p215
I3
sV\u53f0\u6e7e
p216
I12
sV\u914d\u5408
p217
I3
sV\u7b2c\u4e00\u6b21
p218
I30
sV\u5168\u653b\u5168\u5b88
p219
I3
sV\u5e93\u514b
p220
I21
sV\u6539\u53d8
p221
I33
sV\u591a\u957f
p222
I12
sV\u957f\u5b9e
p223
I3
sV\u7a0e\u8d1f
p224
I3
sV\u4ea4\u901a
p225
I36
sV\u5317\u6e56
p226
I6
sV\u52a8\u6447
p227
I3
sV\u5438\u5f15
p228
I12
sV\u516b\u6746
p229
I3
sV\u91d1\u4ef7
p230
I3
sV\u6c42\u77e5
p231
I3
sV\u609f\u9053
p232
I3
sV\u5c11\u5c06
p233
I9
sV\u524d
I63
sV\u574f
I3
sV\u4e0a\u8fdb\u5fc3
p234
I3
sV\u5144\u5f1f
p235
I30
sV\u5e72\u8106
p236
I3
sV\u6893\u6728
p237
I9
sV\u7b80\u5355
p238
I6
sV\u53f0\u4e0a
p239
I12
sV\u53f0\u4e0b
p240
I3
sV\u5bf9\u80fd
p241
I9
sV\u5584\u826f
p242
I6
sV\u4e0d\u7406
p243
I3
sV\u76ca\u667a
p244
I6
sV\u674e\u96ea\u5065
p245
I3
sV\u52a0\u4e0a
p246
I9
sV\u4e0d\u540c
p247
I27
sV\u6240\u5728
p248
I3
sV\u6a21\u7cca
p249
I3
sV\u5de5\u5546\u8054
p250
I3
sV\u4e13\u5229
p251
I3
sV\u7cbe\u5149
p252
I3
sV\u5fcd\u53d7
p253
I12
sV\u60b2\u5267
p254
I3
sV\u901a\u5e38
p255
I3
sV\u764c\u75c7
p256
I6
sV\u9000\u51fa
p257
I9
sV\u6f2b\u6e38
p258
I3
sV\u5b8b\u6c5f\u5c71
p259
I3
sV\u5f62\u540c\u964c\u8def
p260
I3
sV\u4e0d\u77e5
p261
I3
sV\u867d\u7136
p262
I45
sV\u8d26\u53f7
p263
I18
sV\u670d\u52a1\u5458
p264
I3
sV\u5f3a\u5927
p265
I6
sV\u518d
I36
sV\u300c
I6
sV\u5de6\u540e\u65b9
p266
I3
sV\u6148\u79a7\u592a\u540e
p267
I3
sV\u7acb\u65b0
p268
I9
sV12.6
p269
I3
sV\u4efb\u610f\u952e
p270
I3
sV\u53d1\u5728
p271
I3
sV\u987e\u5ba2
p272
I6
sV\u8054\u7cfb
p273
I6
sV\u7c98\u4f4f
p274
I6
sV\u5c31
I225
sV\u5f00\u5f20
p275
I6
sV\u624b\u6307
p276
I3
sV\u8c0b\u7565
p277
I3
sV\u51c6\u65f6
p278
I3
sV\u9047\u5230
p279
I6
sV\u8ba4\u8bc6
p280
I3
sV\u4e1c\u897f
p281
I27
sV\u5f53\u65f6
p282
I18
sV\u5206
I6
sV,
I189
sV\u6a21\u5f0f
p283
I15
sV\u51a0\u8ecd
p284
I3
sV\u795e\u52a9
p285
I3
sV\u661f\u5df4\u514b
p286
I3
sV\u5927\u5634\u5df4
p287
I6
sV\u6c34
I3
sV\u98de\u884c\u5bb6
p288
I3
sV\u51bb\u624b
p289
I3
sV\u590d\u5236
p290
I3
sV\u4e00\u6839
p291
I6
sV\u4f59\u5219
p292
I12
sV\u5b8b
I9
sV\u5bf9\u4e8e
p293
I15
sV\u6cd5\u5236
p294
I3
sV\u65c5
I3
sV\u6d88\u8d39\u8005
p295
I12
sV\u6539\u9020
p296
I3
sV\u4ef7\u503c\u89c2
p297
I3
sV\u662f\u4ece
p298
I9
sV\u91cd
I3
sV\u5e74\u540e
p299
I3
sV\u516c\u4f17
p300
I6
sV\u529e\u516c\u5ba4
p301
I6
sV\u79c1\u5954
p302
I9
sV\u66f9\u56fd\u4f1f
p303
I21
sV\u5949\u732e\u7cbe\u795e
p304
I3
sV\u624d\u80fd
p305
I54
sV\u5bf9\u79f0
p306
I3
sVyourself
p307
I3
sV\u627e\u4e0d\u51fa
p308
I3
sV\u6d3b
I6
sV\u6821\u957f
p309
I6
sV\u501f\u51fa
p310
I3
sV\u5bbd\u5e26\u6570\u636e
p311
I12
sV\u5b66
I15
sV\u963b\u529b
p312
I3
sV\u6bd4\u5c14
p313
I3
sV\u5a92\u4f53
p314
I18
sV\u89c4\u6a21
p315
I15
sV\u4e13\u9898
p316
I3
sV\u80fd\u51fa
p317
I3
sV\u5012
I3
sV\u6f5c\u4f0f
p318
I12
sV\u534a\u5929
p319
I3
sV\u7a81\u7136
p320
I3
sV\u5343\u7c73
p321
I3
sV\u9759\u4e00\u9759
p322
I3
sV\u548c\u6cdb
p323
I3
sV\u540d\u58f0
p324
I3
sV\u50cf\u662f
p325
I3
sV\u6c89\u75db
p326
I6
sV\u4e50\u5475
p327
I3
sV\u53d1\u5e03\u4f1a
p328
I12
sV\u5269\u5973
p329
I3
sV\u8d8a
I3
sV\u4e1c
I15
sV\u7b2c\u4e00\u4f4d
p330
I3
sV\u8d24\u60e0
p331
I3
sV\u4e22\u6389
p332
I3
sV\u7b11
I6
sV\u7b56\u5212
p333
I3
sV\u4ece\u672b
p334
I3
sV\u516c\u5f00\u8d5b
p335
I3
sV\u6536\u8d39
p336
I24
sV\u56e0\u4e3a
p337
I84
sV\u7262\u623f
p338
I3
sV\u4e09\u5c46
p339
I3
sV\u52a0
I33
sV\u6b7b\u5211
p340
I15
sV\u51b0\u7bb1
p341
I3
sV\u91cd\u5728
p342
I6
sV\u672c\u7740
p343
I6
sV\u9999\u6e2f
p344
I3
sV\u8001\u767e\u59d3
p345
I12
sV\u9ad8\u8003
p346
I3
sV\u6709\u5173
p347
I3
sV\u90ed\u4e3a
p348
I6
sV\u5b9e\u65f6
p349
I6
sV\u624b\u638c
p350
I3
sV\u5cf0\u4f1a
p351
I33
sV\u8fd9\u573a
p352
I15
sV\u503c\u5f97\u4e00\u770b
p353
I6
sV\u8d77\u70b9
p354
I15
sV\u5e78\u8fd0
p355
I6
sV\u5077\u51fa\u6765
p356
I9
sVrh
p357
I3
sV\u4f17\u4eba
p358
I9
sV\u5f00\u5fc3
p359
I36
sV\u53d1\u97f3
p360
I3
sV\u8bda\u4fe1
p361
I15
sV\u4eba\u4e91\u4ea6\u4e91
p362
I3
sV\u963f\u91cc\u5df4\u5df4
p363
I21
sV\u8bc6
I3
sV\u5e26\u6838
p364
I6
sV\u53d1\u524d
p365
I6
sVUniversity
p366
I6
sV\u727a\u7272
p367
I6
sV\u516d\u4e2a\u6708
p368
I3
sV\u6447\u6eda
p369
I9
sV\u5c0f\u94a2
p370
I3
sV\u5b66\u4e60
p371
I15
sV\u5171\u4ea7\u4e3b\u4e49
p372
I3
sV\u5168\u90e8
p373
I18
sV\u4e4b\u4e00
p374
I3
sV\u6c11\u8425
p375
I12
sV\u6298\u5c04
p376
I3
sV\u60a6\u60a6
p377
I3
sV\u5171\u8bc6
p378
I3
sV\u4e24\u5bb6
p379
I6
sV\u8ba4\u771f\u5b66\u4e60
p380
I3
sV\u8fde
I3
sV\u7684\u786e
p381
I3
sV\u5565
I6
sV\u653e\u56de
p382
I3
sV\u82b1\u8d39
p383
I3
sV\u5206\u6210
p384
I3
sV\u70ed\u64ad
p385
I3
sV\u5927\u597d\u6cb3\u5c71
p386
I3
sV\u8fde\u7eed
p387
I3
sV\u5730\u6b65
p388
I9
sV\u7fa4\u4f17
p389
I3
sV\u597d
I207
sV\u8bf4\u4e0d\u5b9a
p390
I3
sV\u62a5\u9053
p391
I12
sV\u6b7b\u724c
p392
I3
sV\u54c8\u4f5b
p393
I3
sV\u94f6\u8d5b\u5bcc
p394
I6
sV\u4e89
I3
sV\u4e00\u53e5\u53e5
p395
I3
sV\u538b
I3
sV\u6cdb\u9ad8
p396
I3
sV\u7d2f\u5fc3
p397
I3
sV\u7403
I3
sV\u8be5\u5b63
p398
I3
sV\u9002\u5e94
p399
I3
sV\u91c7
I3
sV\u5d14
I3
sV\u9b45\u529b
p400
I6
sV\u6216
I21
sV176
p401
I3
sV\u865a\u6000\u82e5\u8c37
p402
I6
sV170
p403
I6
sV\u8d22\u653f\u90e8
p404
I9
sV\u62b1
I3
sV\u5efa\u534e
p405
I9
sV\u80dc\u9020\u4e03\u7ea7\u6d6e\u5c60
p406
I3
sV\u5e05\u54e5
p407
I12
sV\u5978\u5546
p408
I3
sV\u7b2c\u4e8c\u5929
p409
I3
sV\u4fdd\u5b88
p410
I3
sVRMB
p411
I9
sV\u5bf9\u4e86
p412
I3
sV\u66f9
I12
sV\u4e3a\u751f
p413
I6
sV\u9996\u9875
p414
I6
sV\u7edf\u8ba1\u5c40
p415
I3
sV\u6253\u7403
p416
I15
sV\u8c28\u614e
p417
I9
sV\u597d\u610f
p418
I3
sV\u4e8b\u7269
p419
I6
sV\u9ad8\u539f
p420
I3
sV\u5382\u5546
p421
I3
sVB
I9
sV\u51d1\u70ed\u95f9
p422
I3
sV\u611f\u53f9
p423
I9
sV\u7cbe\u4e8e
p424
I3
sVBBC
p425
I6
sV\u845b\u6839
p426
I6
sV\u6027
I3
sV\u559c\u5e86
p427
I3
sV\u8be6\u60c5\u8bf7
p428
I3
sV\u5f3a\u9879
p429
I3
sV\u79ef\u5b58
p430
I3
sV\u5173\u5fc3
p431
I24
sV\u4e0b\u573a
p432
I6
sV\u6570\u6708
p433
I3
sV\u52a0\u6cb9
p434
I9
sV\u600e\u6837
p435
I3
sV\u5e72\u6389
p436
I6
sV\u8ddf
I24
sV\u6709\u70b9
p437
I12
sV\u5360
I9
sV\u77e3
I3
sV\u54e5
I3
sV\u7231\u6234
p438
I3
sV\u79c9\u627f
p439
I3
sV\u5fd7\u613f\u8005
p440
I3
sV\u5507\u816d\u88c2
p441
I6
sV\u673a\u9047
p442
I6
sV\u804a\u5730
p443
I3
sV36200
p444
I3
sV\u54b1\u4eec
p445
I6
sV\u5df4\u83f2\u7279
p446
I3
sV\u519b\u8b66
p447
I3
sV\u7a7f\u8fc7
p448
I3
sV\u592b\u4eba
p449
I3
sV\u611f\u77e5
p450
I3
sV\u5382\u957f
p451
I6
sV\u6700\u60e8
p452
I3
sV\u5e94
I9
sV\u6df7\u5f20
p453
I3
sVmini
p454
I3
sV\u6293\u4e09\u7f51
p455
I3
sV\u989d\u5916
p456
I3
sV\u6405
I3
sV\u8bf7\u5ba2
p457
I3
sV\u552f\u7f8e
p458
I3
sV\u4e09
I24
sV\u500d
I21
sV\u53d1\u96be
p459
I3
sV\u7ebf\u8def
p460
I3
sV\u9f13
I3
sV\u63a7\u80a1
p461
I3
sV\u53f2\u6653\u71d5
p462
I3
sV\u5357\u7ad9
p463
I3
sV\u9ed1\u540d\u5355
p464
I3
sV\u4e60\u60ef\u4e8e
p465
I3
sV\u4e2d\u95f4
p466
I3
sV\u6253\u8d70
p467
I3
sV\u7279\u6b8a
p468
I3
sV\u5434\u603b
p469
I9
sV\u5927
I81
sV\u65e0\u52a9
p470
I3
sV\u8fdb
I3
sV10086
p471
I3
sV\u79cb\u6708
p472
I3
sV-
I150
sV\u6210\u719f
p473
I6
sV\u7fe0\u840d
p474
I3
sV\u674e\u5f00\u590d
p475
I9
sV\u8bb0
I6
sV\u5b8b\u4e39\u4e39
p476
I6
sV\u90ae\u4ef6
p477
I3
sV\u6768\u5143\u5e86
p478
I6
sV\u8db4
I3
sV\u770b\u6cd5
p479
I3
sV\u5ea6\u8fc7
p480
I3
sV\u4eba\u6c14
p481
I3
sV\u4eba\u6c11
p482
I3
sV\u4f18\u52bf
p483
I18
sV\u5c0f\u82ae
p484
I3
sV\u552f\u6709
p485
I3
sV\u8d76\u7d27
p486
I3
sV\u5f81\u670d
p487
I3
sV\u6295\u8d44\u65b9
p488
I3
sV\u91cc
I30
sV\u6392\u51fa
p489
I6
sV\u521b\u4f5c
p490
I3
sV\u5f53
I24
sV\u548c\u5e05
p491
I3
sV\u62db\u6807
p492
I3
sV\u5f81\u5f97
p493
I6
sV\u6b4c\u5531
p494
I3
sV\u5973\u6743
p495
I3
sV\u4e13\u5356\u5e97
p496
I3
sV\u6ce2\u58eb\u987f
p497
I6
sV\u5c0f\u82b1
p498
I3
sVQQ
p499
I3
sV\u52c7\u904e
p500
I3
sV\u884c\u4e0d\u901a
p501
I6
sV\u6570\u4e39
p502
I3
sV\u5e74\u5728
p503
I3
sV\u6350
I15
sV\u8352\u829c
p504
I3
sVLewis
p505
I3
sV\u8bf4\u660e
p506
I15
sV\u5929\u58e4\u4e4b\u522b
p507
I3
sV\u5927\u51fa\u8840
p508
I3
sV\u54ea\u91cc
p509
I3
sV\u52c9\u52b1
p510
I3
sV\u5f90\u603b
p511
I3
sV\u7cbe\u534e
p512
I9
sV\u6df1\u8868
p513
I3
sV\u9ad8\u5c14\u592b
p514
I18
sV+
I12
sV\u518d\u6765
p515
I9
sV\u663e\u793a
p516
I15
sV\u96f6\u6563
p517
I3
sV\u6ed1\u96ea
p518
I6
sV\u5230\u5e95
p519
I15
sV\u53c2\u62cd
p520
I6
sV\u548b
I6
sV\u7a0d\u5dee
p521
I6
sV\u4f53\u5236
p522
I9
sV\u6210\u529f
p523
I69
sV\u8eab\u4f53
p524
I9
sV\u5468\u672b
p525
I21
sV\u8fc5\u901f
p526
I9
sV\u7b97\u7b14
p527
I3
sV\u6bcd\u7231
p528
I3
sV\u4e25\u8083
p529
I3
sV\u673a\u573a
p530
I6
sV7.5
p531
I6
sV\u72ee\u5b50
p532
I3
sV\u8bbe\u8ba1
p533
I9
sV\u771f\u7684
p534
I33
sV\u6d17\u624b\u95f4
p535
I6
sV\u4e0d\u51fa
p536
I3
sV\u4e2d\u6587
p537
I9
sVwitnesses
p538
I3
sV\u90a3
I30
sV\u7ec6\u60f3
p539
I9
sV\u9762\u4e34
p540
I12
sV\u5224
I3
sV\u5ea7
I6
sV\u53cd\u5e94
p541
I6
sV\u4e00\u4e2a
p542
I126
sV\u81ea\u4ee5\u4e3a\u662f
p543
I3
sV\u767e\u59d3
p544
I6
sV\u5bf9\u5f85
p545
I3
sV\u542c\u8bc1\u4f1a
p546
I6
sV\u5f53\u4e8b\u4eba
p547
I6
sV\u8bb8\u591a
p548
I18
sV\u5929\u4e0b
p549
I3
sV\u62a2\u6551
p550
I3
sV\u4ea4\u7ed9
p551
I3
sV\u4eba\u7f18
p552
I3
sV\u516d\u5341\u516b
p553
I3
sV\u7fbd
I6
sV\u5149\u7ea4
p554
I3
sV\u575a\u5fcd
p555
I3
sV\u5e74\u521d
p556
I3
sV\u542c\u61c2
p557
I3
sV\u963b\u9694
p558
I3
sV\u6848
I6
sV\u5265\u524a
p559
I3
sV\u79d8\u5bc6
p560
I3
sV\u764c
I3
sV\u83ab\u4e0d
p561
I3
sV\u5f52
I6
sV\u7206\u589e
p562
I6
sV\u8d76\u5feb
p563
I3
sV\u7b2c\u4e00\u6761
p564
I6
sV\u5065\u5eb7
p565
I6
sV\u4f18\u5316
p566
I6
sV\u95ee\u4e16
p567
I3
sV\u505c\u673a\u576a
p568
I3
sV\u62e5\u6709
p569
I6
sV17
p570
I3
sV\u65b0\u5174
p571
I3
sV\u771f\u76f8
p572
I24
sV\u7092\u4f5c
p573
I6
sV\u7eed\u8d39
p574
I3
sV\u5f97\u8f6c
p575
I3
sV\u7aef\u6b63
p576
I3
sV\u653e\u4e0d\u4e0b
p577
I6
sV\u6df1
I3
sV\u68cd\u5b50
p578
I3
sV\u96f7
I3
sV\u6b64\u7247
p579
I3
sV\u5916
I3
sV\u56de\u8361
p580
I3
sV\u60f3\u8c61
p581
I9
sV\u5766\u8bda
p582
I3
sV\u5fb7\u5345\u754c\u4e00
p583
I3
sV\u4e07
I42
sV\u5178\u578b
p584
I3
sV\u51e0\u5929
p585
I15
sV\u73b0\u5b9e
p586
I12
sV\u8d77\u6b65
p587
I3
sV\u5021\u8bae
p588
I3
sV\u5b66\u6821
p589
I3
sV\u653e\u70ae
p590
I33
sV\u624b\u673a
p591
I33
sV\u62b1\u6b49
p592
I12
sV\u5c0f\u65f6
p593
I48
sVAndroid
p594
I3
sV\u4e9b
I9
sViOS6
p595
I3
sV\u72b6\u6001
p596
I6
sVsaid
p597
I3
sV06
p598
I3
sV\u8001\u540c\u4e8b
p599
I3
sV04
p600
I3
sV05
p601
I6
sV\u5929
I9
sV\u53ef\u8c13
p602
I3
sV08
p603
I6
sV\u5341\u4e2a
p604
I3
sV\u773c\u770b
p605
I3
sVc2c
p606
I3
sV\u5f90\u5e06
p607
I3
sV\u5f88\u7a84
p608
I3
sV\u575a\u5f3a
p609
I3
sV\u8fdb\u4e00\u6b65
p610
I3
sV\u7f51\u4e0a
p611
I12
sV\u5973\u6027
p612
I3
sV\u57fa\u91d1
p613
I6
sV\u7a3f
I3
sV\u96be\u9898
p614
I3
sVC
I12
sV\u9493\u5230
p615
I12
sV\u5168\u56fd
p616
I12
sV\u5f00\u59cb
p617
I27
sV\u5bb6\u4eba
p618
I3
sV\u53d1\u51fa
p619
I6
sV\u5176\u4e2d
p620
I9
sV\u60f3\u6cd5
p621
I6
sV\u51b0\u5ddd
p622
I6
sV\u5fae\u535a
p623
I39
sV\u53ef\u5ac1
p624
I3
sV6178
p625
I3
sV\u6731\u5e86
p626
I3
sV\u5938\u5927\u5176\u8bcd
p627
I3
sV\u6253\u51fb\u62a5\u590d
p628
I3
sV\u4e00\u4ee3
p629
I6
sV\u94dc\u8f74
p630
I3
sV\u65e9\u719f
p631
I3
sV5201314
p632
I3
sV\u52a0\u949e
p633
I3
sV\u5236\u5b9a
p634
I9
sV\u635f\u5bb3
p635
I3
sV\u9001\u5230
p636
I3
sV\u5fc3\u70e6\u610f\u4e71
p637
I6
sV\u7ffb\u8fc7
p638
I6
sV\u5d2d\u65b0
p639
I3
sV\u5e03\u52b3
p640
I3
sV\u674e\u5148\u751f
p641
I3
sVcom
p642
I3
sVguy
p643
I3
sV\u7a7f
I3
sV\u6539\u9769
p644
I12
sViPhong5
p645
I3
sV\u592a
I75
sV\u85cf\u7352
p646
I3
sV\u603b\u91cf
p647
I3
sV\u80cc\u666f
p648
I9
sV\u65e2\u6709
p649
I3
sV\u52e4\u52a1\u5175
p650
I9
sV\u4eab\u4e50
p651
I3
sV\u5e8a\u4e0a
p652
I3
sV\u63a7\u662f
p653
I3
sV\u6709\u65f6
p654
I3
sV\u4e24\u7c73
p655
I15
sV\u6cb9\u4ef7
p656
I3
sV\u6025\u81a8
p657
I3
sV\u79ef\u7d2f
p658
I3
sV\u67b6\u6784\u5e08
p659
I3
sV\u5f1f\u5144\u4eec
p660
I9
sV\u5357\u65b9\u4eba
p661
I3
sV\u62c9\u8428
p662
I9
sV\u5b89\u5371
p663
I3
sV\u897f\u85cf
p664
I6
sV\u5143\u7d20
p665
I3
sV\u672c
I3
sV.
I48
sV\u53d1\u9001
p666
I12
sV\u8f68\u9053\u4ea4\u901a
p667
I3
sV\u62db\u6ee1
p668
I3
sV\u94f6\u5e55
p669
I3
sV\u6267\u7740
p670
I3
sV\u70b9
I21
sV\u5168\u7701
p671
I6
sV\u5230\u5fae
p672
I3
sVGSM
p673
I18
sV\u5c0f\u63d0\u7434
p674
I3
sV\u964d\u5e45
p675
I6
sV\u641e\u5b9a
p676
I3
sV\u673a\u5668
p677
I3
sV\u591a\u5a92\u4f53\u4fe1\u606f
p678
I3
sV\u8fc7
I84
sV\u7814\u7a76
p679
I27
sV\u4e16\u754c
p680
I39
sV\u4e1c\u4e1c
p681
I3
sV\u6587\u7ae0
p682
I3
sV\u4e49\u6124\u586b\u81ba
p683
I3
sV\u8f9e\u4e16
p684
I6
sV\u4e00\u4f4d
p685
I9
sV\u90e8\u95e8
p686
I9
sVchur
p687
I3
sV\u7b54
I3
sV\u8868\u626c
p688
I6
sV\u5168\u9762
p689
I6
sV\u4ece\u5934\u518d\u6765
p690
I6
sV\u5e94\u8be5
p691
I42
sV\u5a31\u4e50
p692
I6
sV\u4f5c
I30
sV\u56e2\u961f\u7cbe\u795e
p693
I3
sV\u51b2\u51fb\u6ce2
p694
I3
sV\u6c88\u56fd
p695
I1
sV\u7ecf\u8fc7
p696
I3
sV\u540c\u884c
p697
I3
sV\u5408\u5f71
p698
I12
sV\u60f3\u8d77
p699
I12
sV\u9996\u5e2d
p700
I3
sV\u626f\u6de1
p701
I3
sVTDD
p702
I3
sV110
p703
I3
sV\u4e24\u9897\u5fc3
p704
I3
sV\u53ef\u884c
p705
I3
sV\u7092
I3
sV\u5185\u6838
p706
I3
sV\u820d\u4e00\u820d
p707
I3
sV\u8003\u5b8c\u8bd5
p708
I3
sV\u51a4\u6291
p709
I3
sV\u7075\u829d
p710
I6
sV\u6731\u6c11
p711
I3
sV\u652f\u914d
p712
I3
sV\u4ee3\u8868
p713
I27
sVhave
p714
I3
sV\u5f00\u9885
p715
I3
sV\u6709\u9650
p716
I12
sVis
p717
I9
sV\u4f53\u73b0
p718
I9
sV\u513f\u5973
p719
I3
sV\u7fc5\u8180
p720
I3
sV\u5c11
I12
sV11966
p721
I3
sV\u6253\u52a8
p722
I3
sV\u5201\u94bb
p723
I3
sV\u81ea\u8eab
p724
I6
sV\u672c\u571f
p725
I3
sV\u7ffb\u8eab\u4ed7
p726
I3
sV\u5c31\u8981
p727
I6
sV\u5973\u540c\u5b66
p728
I3
sV\u5546\u57ce
p729
I3
sV\u8f6c\u7ed9
p730
I3
sV\u5f97\u76ca\u4e8e
p731
I3
sV\u89c2\u7167
p732
I9
sV\u5e7b\u5316\u6210
p733
I3
sV\u58f0
I3
sV\u9171\u6cb9
p734
I3
sV\u5206\u8fa8\u7387
p735
I3
sV\u7280\u5229
p736
I3
sV\u5927\u529b
p737
I3
sV\u672c\u610f
p738
I3
sV\u81ea\u884c\u8f66
p739
I3
sV\u8fdb\u6765
p740
I3
sV\u90fd\u5e02
p741
I6
sVV8
p742
I3
sV\u4e0d\u505c
p743
I6
sV\u4ec0\u4e48\u6837
p744
I9
sV\u805a\u96c6
p745
I3
sV\u4e07\u9897
p746
I6
sV\u5e86\u8fb0
p747
I3
sV\u6d1b\u6851
p748
I9
sV\u6ca1\u60f3\u5230
p749
I3
sV\u5728\u7ebf
p750
I24
sV\u8c22\u8c22
p751
I87
sV\u524d\u9762
p752
I12
sV\u5149\u7f51
p753
I6
sV\u753b\u518c
p754
I3
sV\u76ee\u7684
p755
I3
sV4700
p756
I3
sV\u5fc3\u7ec6
p757
I3
sV\u6d1e\u660e
p758
I6
sV\u592e\u89c6
p759
I3
sV\u4ea7\u5730
p760
I3
sV\u76d8\u5b50
p761
I6
sV\u4e5d
I6
sV\u8fdc
I15
sV\u7b2c\u4e00\u8f6e
p762
I3
sV\u5370\u8bb0
p763
I6
sV\u9996\u5ea6
p764
I3
sV\u7eff\u6c34
p765
I3
sV\u80fd\u5c48\u80fd\u4f38
p766
I3
sV\u6c34\u5e73
p767
I6
sV\u4e24\u5c81
p768
I3
sV\u529f\u7528
p769
I3
sV\u8c22\u56fd\u5fe0
p770
I3
sV\u7ebd\u7ea6
p771
I15
sV\u8bf4
I177
sV\u53d7\u5230
p772
I6
sVthe
p773
I3
sV\u52a8\u6001
p774
I3
sV\u7ffc
I9
sV\u7535\u8bdd\u4f1a\u8bae
p775
I6
sV\u52c7
I3
sV\u5bcc\u4eba
p776
I3
sV\u5149\u9c9c
p777
I3
sV\u5409\u666e\u8d5b
p778
I3
sV\u60b2\u559c
p779
I3
sV\u4e3e\u884c
p780
I6
sV\u624b\u672f
p781
I6
sV\u540c
I9
sV\u5439\u6367
p782
I3
sV\u5927\u591a
p783
I3
sV\u822a\u73ed
p784
I3
sV\u7b49\u4e8e
p785
I18
sV\u53eb\u82e6\u4e0d\u8fed
p786
I3
sV\u62a2\u955c\u5934
p787
I3
sV\u513f\u7ae5
p788
I15
sV\u7f57\u535c
p789
I3
sVyet
p790
I3
sV\u5de8\u5927\u8d21\u732e
p791
I3
sV\u9752\u5c71
p792
I3
sV\u7f8e\u5973
p793
I6
sV\u767e\u5ea6
p794
I6
sV\u610f\u4e49
p795
I6
sV\u7ed3\u679c
p796
I15
sV\u6f02\u4eae
p797
I3
sV\u5317\u4eac
p798
I108
sV300
p799
I9
sV\u5929\u6c14
p800
I3
sV\u6109\u5feb
p801
I3
sV\u4e0d\u53d1
p802
I12
sV\u75db\u82e6
p803
I33
sV\u8001\u5988
p804
I3
sV\u611f\u52a8
p805
I6
sV\u5168\u7403
p806
I24
sV\u7535\u8bdd\u53f7\u7801
p807
I3
sV\u5e7c\u624d
p808
I3
sV\u57fa\u7763\u6559
p809
I3
sV\u7ed3\u6784
p810
I3
sV\u90d1\u4fca\u8c6a
p811
I9
sV\u540c\u6b65
p812
I3
sVD
I6
sV\u60a0\u95f2
p813
I3
sV\u4f46
I141
sV\u95f9\u5267
p814
I9
sV\u4e24\u5343\u4e07
p815
I6
sV\u63a5\u89e6
p816
I6
sV\u7535\u8111
p817
I3
sV\u50cf
I9
sV\u60b2\u75db
p818
I3
sV\u57fa\u56e0
p819
I6
sV\u7f8e\u597d
p820
I3
sV\u6210\u8d25
p821
I9
sV\u4f2a\u9898
p822
I3
sV\u4f20\u7edf\u5a92\u4f53
p823
I3
sV\u5d14\u5065
p824
I3
sV\u6df1\u6df1
p825
I3
sV\u7ea2\u5305
p826
I33
sV\u4e94\u5343\u5143
p827
I3
sV\u5927\u53a6
p828
I3
sV\u987a\u5b50
p829
I3
sV57
p830
I3
sV\u5f66
I3
sV50
p831
I24
sV\u635f\u5931
p832
I3
sV\u4e70
I18
sV5.
p833
I6
sV\u4e2d\u56fd\u7535\u4fe1
p834
I6
sV\u51cf\u5c11
p835
I6
sV\u90e8\u5206
p836
I3
sV\u6b63\u8d76\u4e0a
p837
I3
sV\u8303\u56f4
p838
I3
sV\u84dd\u5929
p839
I3
sV\u9c7c
I15
sV\u5e15\u5c14\u66fc
p840
I3
sV\u7f8e\u4e3d
p841
I18
sV\u4fdd\u6301
p842
I3
sV\u53d1\u73b0
p843
I24
sV\u65f6\u4ee3
p844
I9
sV\u63a8\u5e7f
p845
I3
sVcrowd
p846
I3
sVpeople
p847
I3
sV\u5999\u8a00
p848
I3
sV\u8d85\u8fc7
p849
I15
sV\u6765\u5361
p850
I3
sV\u548c
I324
sV\u5e86\u529f
p851
I3
sV\u80fd\u591f
p852
I3
sV\u6807\u51c6
p853
I15
sV\u73af\u4fdd
p854
I3
sV\u5915
I3
sV\u4fe1\u53f7
p855
I39
sV\u559c\u7231
p856
I3
sV\u5f88\u4e45\u5f88\u4e45
p857
I6
sV\u5165\u5173
p858
I3
sV\u7f51\u6c11
p859
I3
sV\u800c\u7acb\u4e4b\u5e74
p860
I3
sV\u674e\u5f66\u5b8f
p861
I18
sV\u7206\u7834
p862
I3
sV\u90e8\u961f
p863
I6
sV\u4e0d\u4e86
p864
I9
sV\u9ad8\u5cf0\u4f1a
p865
I15
sV\u6ca1\u6709
p866
I105
sV\u6e05\u534e
p867
I12
sV\u5b50\u5b59
p868
I3
sV\u6d77\u6d0b
p869
I12
sV\u4eca\u65e9
p870
I9
sV/
I1245
sV\u8d28\u76d1\u5c40
p871
I3
sV\u5b59\u6b63\u4e49
p872
I3
sV\u7b2c\u4e8c\u5468
p873
I3
sVFacebook
p874
I3
sV\u6cd5\u5f8b
p875
I3
sV\u4f5b\u7f57\u91cc\u8fbe\u5dde
p876
I3
sV\u6d88\u6781
p877
I3
sV\u770b\u4e0a\u53bb
p878
I3
sV\u8d1d\u5c14\u5b9e\u9a8c\u5ba4
p879
I3
sV\u56fd\u6709
p880
I3
sVHe
p881
I6
sV\u7cbe\u82f1
p882
I3
sV\u5404\u79cd
p883
I15
sV\u66f4\u591a
p884
I15
sV\u5357\u7f8e
p885
I3
sVof
p886
I3
sV\u4e0a\u7f51
p887
I3
sV\u5b8c\u5168
p888
I24
sV\u592a\u9633
p889
I6
sV\u7f51
I24
sV\u51b0\u5fc3
p890
I6
sV\u57f9\u517b
p891
I6
sV\u8003\u8651\u4e00\u4e0b
p892
I9
sV\u660e\u5e74
p893
I6
sV\u518d\u751f
p894
I3
sV\u5730\u4f4d
p895
I3
sV\u6bd2\u6c14
p896
I3
sV\u56e0
I21
sV\u91d1\u5b57\u5854
p897
I18
sV\u7ed3\u675f
p898
I9
sV\u547d\u8fd0
p899
I3
sV\u62a5\u544a
p900
I9
sV\u5355\u817f
p901
I3
sV\u5df4\u677e\u9519
p902
I3
sV\u8d4c\u4e0a
p903
I3
sV\u6d77\u7eb3\u767e\u5ddd
p904
I6
sV\u5b9d\u577b
p905
I3
sV\u8c6a
I3
sV\u524d\u5224\u4eba
p906
I3
sV\u540c\u6bd4
p907
I12
sV\u95f2\u6687
p908
I3
sV\u9ed8\u591a\u514b
p909
I12
sV\u6c38\u6052
p910
I3
sV\u64e6\u80a9\u800c\u8fc7
p911
I3
sV\u51fa
I39
sV\u50a8\u5907
p912
I3
sV\u4eba\u6c11\u5e01
p913
I12
sV\u51b3\u8d5b
p914
I3
sV\u67ad\u96c4
p915
I3
sV\u6177\u6168\u89e3\u56ca
p916
I3
sV\u8f6f\u4ef6\u5e94\u7528
p917
I3
sV\u5341\u591a\u540d
p918
I6
sV\u7ecf\u6da8
p919
I3
sV\u5973\u6392
p920
I6
sV\u578b
I6
sV\u7ecf\u5178
p921
I3
sV\u5927\u534a\u5929
p922
I3
sV\u5bb6\u5ead
p923
I15
sV\u6b63\u548c\u5c9b
p924
I6
sV\u62a2\u6551\u65e0\u6548
p925
I3
sV\u9884\u89c1\u5230
p926
I3
sV\u6bcf\u4eba
p927
I3
sV\u6b63\u597d
p928
I3
sV\u6765\u4e34
p929
I3
sV\u5b81\u9759
p930
I3
sV\u4e24\u5e74
p931
I9
sV\u6253\u9020
p932
I6
sV\u5546\u754c
p933
I3
sV\u65e0\u7ebf
p934
I27
sV\u5e26\u8def
p935
I3
sV\u6ce8\u5b9a
p936
I6
sV\u4e0a\u7ebf
p937
I9
sV\u5e2e\u5e2e
p938
I6
sV\u5e26
I30
sV\u5999\u8ba1
p939
I3
sV\u503e\u5411
p940
I3
sV\u8868\u6f14
p941
I3
sV\u4e0b\u5348
p942
I3
sV\u5927\u5385
p943
I3
sV\u51ac\u5929
p944
I6
sV\u5b89\u5168
p945
I15
sV\u8f66\u8f86
p946
I9
sV\u65e0\u89c6
p947
I3
sV\u56de
I12
sV\u6570\u636e
p948
I30
sV\u4e5f\u7f62
p949
I3
sV\u6076\u6cd5
p950
I3
sV\u89c6\u9891
p951
I42
sV\u4e00\u6837
p952
I18
sV\u4e00\u6d41
p953
I3
sV\u60c5
I3
sV\u6536\u5165
p954
I3
sV\u611f\u53d7
p955
I12
sV\u5931\u671b
p956
I12
sV\u5c3c\u6d0b\u6cb3
p957
I15
sV\u631a
I3
sV\u672a\u679c
p958
I3
sVgov
p959
I3
sV\u5954
I12
sV\u81ea\u8c6a
p960
I6
sV\u9a97\u5b50
p961
I18
sV\u89e3\u51b3
p962
I12
sV\u65b0\u7248
p963
I15
sV\u7533\u9886
p964
I3
sV\u9760
I21
sV\u53e3
I3
sV\u5462
I63
sV\u570b\u5b78\u73ed
p965
I9
sV\u9523\u54cd
p966
I6
sV\u6709\u94b1
p967
I6
sV\u5e78\u798f\u611f
p968
I3
sV\u662f\u4e0d\u662f
p969
I15
sV\u4e1a\u52a1
p970
I6
sV\u8b66\u5bdf
p971
I9
sV\u9669
I3
sV\u6027\u60c5
p972
I3
sV\u4e00\u8d77
p973
I48
sV\u5546\u7528
p974
I6
sV\u8111\u888b
p975
I6
sV\u643a\u5b50
p976
I3
sV\u9a7e
I3
sV\u6587\u5b57
p977
I9
sV\u4e3a\u65f6\u8fc7\u65e9
p978
I3
sV\u88ab\u52a8
p979
I3
sV\u8005
I6
sV\u6bcf\u4e2a
p980
I18
sV\u7f51\u7ad9
p981
I3
sV\u4e86
I852
sV\u8bef\u89e3
p982
I3
sV\u770b
I69
sV\u4fee\u5fc3
p983
I3
sV\u65b9\u9762
p984
I21
sV\u5ef6\u7eed
p985
I6
sV\u4eba\u683c
p986
I3
sV\u4fdd\u59c6
p987
I3
sV\u9ebb\u70e6
p988
I6
sV\u4e0d\u4e0a
p989
I3
sV\u4e0a\u5e02
p990
I12
sV\u6e29\u6587\u5c14\u96c5
p991
I3
sV\u7cfb\u7edf\u5730
p992
I3
sV\u9001\u5165
p993
I3
sV\u5c0f\u9a6c\u54e5
p994
I39
sV\u7ea6
I9
sV\u8349\u5730
p995
I3
sV\u8c03\u67e5
p996
I6
sV\u513f\u5b50
p997
I30
sV\u8fb0
I3
sV\u4f1a\u957f
p998
I3
sV\u642c\u5230
p999
I3
sV\u85cf\u65cf
p1000
I9
sV\u8d44\u6e90\u4f18\u52bf
p1001
I3
sV\u4f53\u5185
p1002
I9
sV\u5c06\u6765
p1003
I3
sV\u957f\u671f
p1004
I3
sV\u5de6\u53f3
p1005
I6
sV\u653e\u773c\u4e16\u754c
p1006
I6
sV\u56e0\u6b64
p1007
I6
sV\u9f13\u52b2
p1008
I3
sV\u9f13\u52b1
p1009
I9
sV\u5c45\u7136
p1010
I9
sVfell
p1011
I3
sV\u8ba4\u4e3a
p1012
I66
sV\u4e0d\u5230
p1013
I24
sV\u6293\u4f4f\u673a\u4f1a
p1014
I3
sV\u8fd0\u8425\u5b98
p1015
I3
sV\u4eb2\u670b\u597d\u53cb
p1016
I3
sV\u4f24\u5bb3
p1017
I3
sV\u501f\u673a
p1018
I3
sV\u7ecf\u6d4e
p1019
I24
sV\u8054\u901a
p1020
I27
sVfor
p1021
I6
sV\u6848\u4f8b
p1022
I3
sV\u6b63\u5982
p1023
I3
sV\u5355\u6253\u72ec\u6597
p1024
I3
sV\u4f7f\u7528
p1025
I9
sV\u6539\u5584
p1026
I3
sV\u674e\u5fd7\u80dc
p1027
I15
sV\u6628\u5929
p1028
I12
sV\u4e92\u8054\u7f51
p1029
I66
sV\u4f53\u91cd
p1030
I3
sVtime
p1031
I3
sV\u7279
I3
sV\u6c89\u6ca6
p1032
I3
sV\u592a\u5927
p1033
I3
sV\u8868\u60c5
p1034
I9
sV\u8981
I180
sV\u52b3\u6559
p1035
I12
sV\u8fd9\u4f4d
p1036
I9
sVLTE
p1037
I69
sV\u770b\u6765
p1038
I12
sV\u7b26\u53f7
p1039
I3
sV\u4ee5\u6765
p1040
I6
sV\u770b\u7834\u7ea2\u5c18
p1041
I6
sV\u6574\u4f53
p1042
I6
sV\u7279\u6027
p1043
I3
sV\u5404\u7701
p1044
I6
sV\u635f\u574f
p1045
I3
sV\u3010
I60
sV\u4e70\u4e0b
p1046
I3
sV\u9001\u7ed9
p1047
I12
sV\u4f1a
I123
sV\u66dd\u5149
p1048
I3
sVToday
p1049
I3
sV\u65e5\u524d
p1050
I3
sV\u91cd\u8fd4
p1051
I6
sV\u53f7\u7801
p1052
I3
sV\u8bd5\u9a8c
p1053
I12
sV1942
p1054
I3
sV\u901a\u77e5
p1055
I6
sV\u88ab
I87
sV\u5927\u5510\u7535\u4fe1
p1056
I6
sV\u6c47\u62a5
p1057
I3
sV\u533b\u4fdd
p1058
I3
sV\u8fd0\u949e\u8f66
p1059
I3
sV\u5f53\u4e0b
p1060
I3
sV0
I3
sVHi
p1061
I3
sV\u901a\u8baf\u5f55
p1062
I6
sV\u827a\u672f\u5bb6
p1063
I12
sV\u73b0\u5728
p1064
I99
sV\u5f3a
I9
sV\u4fdd\u9669
p1065
I3
sV\u5404\u5730
p1066
I6
sV\u89c1
I15
sV\u8840
I3
sV\u4e00\u6240
p1067
I9
sV\u4e92\u6170
p1068
I3
sV\u6b3a\u8bc8
p1069
I3
sV\u8bb0\u5f55
p1070
I6
sV\u84dd
I6
sV\u656c\u610f
p1071
I3
sV\u8db3\u7403\u573a
p1072
I3
sV\u76f8\u7ea6
p1073
I3
sV\u5bf9\u7acb
p1074
I3
sV\u7ecf
I6
sV\u8f6c\u5316
p1075
I3
sV\u5352
I3
sV\u675c
I3
sV\u5bb6\u4f19
p1076
I3
sV\u5965\u8fd0\u4f1a
p1077
I3
sV\u503c\u5f97\u5c0a\u656c
p1078
I6
sV\u4e03\u4e2a
p1079
I3
sV\u4e4b\u6d41
p1080
I3
sV\u53bb\u4e16
p1081
I3
sV\u5feb\u6765
p1082
I6
sV301315
p1083
I3
sVdid
p1084
I3
sV\u5e73\u53f0
p1085
I6
sV\u548c\u4e3a\u8d35
p1086
I3
sV\u9093
I3
sV\u8981\u5230
p1087
I3
sV\u610f\u601d
p1088
I6
sV\u7f57\u59c6\u5c3c
p1089
I3
sV\u5fc3\u60f3
p1090
I3
sV\u8fd0\u8425\u5546
p1091
I42
sV\u8001\u4eba
p1092
I15
sV\u6cd5\u56fd\u7535\u4fe1
p1093
I3
sV\u4f01\u4e1a\u5bb6
p1094
I60
sV\u62a5\u7eb8
p1095
I6
sV\u534f\u8bae
p1096
I3
sV\u4e9a\u8fd0\u4f1a
p1097
I6
sV\u8868\u8fbe
p1098
I6
sV\u5927\u4e2d\u534e
p1099
I3
sV\u4e00\u628a
p1100
I3
sV\u5145\u6ee1
p1101
I3
sV\u5fc3\u6001
p1102
I3
sV\u5fc3\u6000
p1103
I6
sV\u66ff
I3
sV\u6025\u4e8e
p1104
I3
sV\u518d\u8bf4
p1105
I3
sV\u6350\u8d60
p1106
I3
sV\u6218\u80dc
p1107
I6
sV\u8f6c\u53d1
p1108
I60
sV\u5de5\u4f5c\u72c2
p1109
I3
sVIPTVbill
p1110
I3
sV\u61a7\u61ac
p1111
I3
sV\u671d\u8f89
p1112
I3
sV\u9707\u60ca
p1113
I18
sV\u8f6c\u53d8
p1114
I3
sV\u540c\u65b9
p1115
I3
sV\u738b\u5747\u91d1
p1116
I3
sV\u56fd\u60c5
p1117
I3
sV\u4e2d\u7ec4\u90e8
p1118
I3
sV\u4e00\u4ef6
p1119
I6
sV\u6539\u5ac1
p1120
I3
sV\u56fd\u9645\u53cb\u4eba
p1121
I3
sV\u529f\u52b3
p1122
I3
sV\u4e3b\u8981
p1123
I6
sV\u90c1\u4eae
p1124
I9
sV\u5584\u6b3e
p1125
I3
sV\u6302\u724c
p1126
I6
sV\u540d\u5b57
p1127
I6
sV\u515a\u653f
p1128
I3
sV\u6298\u817e
p1129
I3
sV\u8fd0\u6c14
p1130
I27
sV\u96c5\u9c81\u85cf\u5e03\u6c5f
p1131
I6
sV\u5f88\u5dee
p1132
I3
sV\u7535\u4fe1
p1133
I24
sV\u5e02\u533a
p1134
I12
sV\u524d\u63d0
p1135
I3
sV\u4e94\u767e
p1136
I3
sV\u771f\u8c61
p1137
I3
sV\u60bc\u5ff5
p1138
I12
sV\u505a\u51fa
p1139
I3
sVpm2
p1140
I9
sV\u70e6\u8bf7
p1141
I3
sV\u6295\u8d44\u4eba
p1142
I12
sV\u5c81\u65f6
p1143
I3
sV\u6c11\u4e3b
p1144
I3
sV\u5e74\u5e95
p1145
I12
sV\u4e4b\u8def
p1146
I3
sV\u9e4f
I6
sV\u4ea4\u901a\u72b6\u51b5
p1147
I9
sV\u540c\u65f6
p1148
I9
sV\u65e0\u5173
p1149
I3
sVHahaha
p1150
I3
sV\u8f6c\u7f51
p1151
I6
sV[
I3
sV\u51b0\u51c9
p1152
I3
sV\u603b\u662f
p1153
I3
sV\u62dc
I3
sV\u5ba2\u4eba
p1154
I3
sV\u4f20\u5947
p1155
I6
sV\u6597\u5fd7
p1156
I3
sV\u7eb7\u7eb7\u626c\u626c
p1157
I6
sV\u5267
I3
sV\u5e2e\u5fd9
p1158
I9
sV\u60f3\u60f3
p1159
I3
sV\u63d0\u4f9b
p1160
I33
sV\u60c5\u7eea
p1161
I12
sV\u5b89\u5eb7
p1162
I15
sV\u8f7f\u5b50
p1163
I3
sVBLOG
p1164
I3
sV\u670d\u5211
p1165
I3
sV\u66f4
I33
sV(
I33
sV\u4f3c\u4e4e
p1166
I6
sV\u6210\u7acb
p1167
I3
sV\u6b63\u786e
p1168
I3
sV\u63a8\u9001
p1169
I3
sV\u4eba\u6750
p1170
I6
sV\u5e2e\u51f6
p1171
I3
sV\u6297\u62d2
p1172
I3
sV\u63a8\u51fa
p1173
I15
sV\u3001
I300
sV\u540c\u7c7b\u4ea7\u54c1
p1174
I3
sV\u80e1\u6765
p1175
I3
sV\u8fc7\u53bb
p1176
I18
sV\u7a00\u6709
p1177
I3
sV\u516d\u6708
p1178
I3
sV\u77db\u76fe
p1179
I3
sV\u51cf\u80a5
p1180
I3
sV\u8bd5\u7528
p1181
I6
sV\u5c5e\u4e8e
p1182
I15
sV\u6b8b\u7f3a
p1183
I3
sV\u57fa\u5c42
p1184
I3
sV\u4e00\u7f51\u6253\u5c3d
p1185
I9
sV\u4ef7\u683c
p1186
I21
sVSCDMA
p1187
I6
sVmarket
p1188
I3
sV\u52b3\u52a8\u6559\u517b
p1189
I3
sV\u8054\u7edc
p1190
I3
sV\u521b\u65b0
p1191
I33
sV\u67d0\u79cd\u610f\u4e49
p1192
I3
sV\u7559\u4e0b\u6765
p1193
I3
sV\u7528
I69
sV\u53f2\u5229\u5bb9
p1194
I6
sV\u81ea\u6211
p1195
I6
sV\u91d1\u661f
p1196
I9
sV\u98ce\u91c7
p1197
I3
sVTiger
p1198
I6
sV\u4e2d\u56fd\u5171\u4ea7\u515a
p1199
I6
sV\u6162
I3
sV\u5de5\u4f5c\u4eba\u5458
p1200
I3
sV\u5b9e\u4e60
p1201
I3
sV\u51bb
I3
sV\u9003\u8d70
p1202
I3
sV\u65e0\u7ebf\u7f51\u7edc
p1203
I3
sV\u4e2d\u56fd\u5973\u7bee
p1204
I3
sV\u5f88\u4e45
p1205
I12
sV\u65c5\u6e38
p1206
I12
sV\u9700\u6c42
p1207
I30
sV\u63d0\u9192
p1208
I6
sV\u6b63\u5728
p1209
I18
sV\u4ec5
I3
sV\u5168\u4e16\u754c
p1210
I9
sV\u652f\u4ed8\u5b9d
p1211
I18
sV\u65e9\u5c31
p1212
I9
sV\u505a\u79c0
p1213
I3
sV\u6d41\u91cf
p1214
I3
sV\u638c
I3
sV\u8f7d\u5165
p1215
I3
sV\u51b2\u649e
p1216
I6
sV\u4e89\u8bba
p1217
I3
sV\u5468\u514b\u534e
p1218
I9
sV\u6240\u5f97
p1219
I6
sV\u75c5\u9b54
p1220
I3
sV\u62fc\u8f66
p1221
I12
sV\u5faa\u73af
p1222
I9
sV\u504f\u4f4e
p1223
I3
sV\u8fd9\u4e2a
p1224
I102
sV\u53d1\u5c55
p1225
I57
sV\u4ea4\u8c08
p1226
I6
sV\u597d\u73a9\u513f
p1227
I3
sV\u8fbe\u5229
p1228
I3
sV\u660e\u51c0
p1229
I3
sV\u4e86\u4e0d\u8d77
p1230
I6
sV\u966a
I6
sV\u8131\u9896\u800c\u51fa
p1231
I6
sV\u90e8\u59d4
p1232
I3
sV\u4e2d\u56fd\u8054\u901a
p1233
I6
sV\u7535\u7f06
p1234
I3
sV\u6d77\u62d4
p1235
I6
sV\u6574\u4e2a
p1236
I9
sV\u6587\u4ef6
p1237
I9
sV\u6c38\u8fdc
p1238
I12
sV\u9876
I21
sV\u7231\u60c5
p1239
I3
sV\u5356\u51fa
p1240
I3
sV\u795d\u60a8
p1241
I18
sV\u5965\u5df4\u9a6c
p1242
I21
sVup
p1243
I3
sV\u6c89\u9ed8
p1244
I3
sV\u6e05
I6
sV\u6307
I6
sV\u4f24\u611f
p1245
I6
sV\u7a0b\u5e8f
p1246
I3
sV\u5404\u7684
p1247
I3
sViPhone5
p1248
I3
sV\u5f3a\u52a0
p1249
I3
sV\u5b8c
I9
sV\u60c5\u5883
p1250
I3
sV\u52df\u6350
p1251
I3
sV\u4e00\u6392
p1252
I3
sV238
p1253
I3
sV\u5047\u5982
p1254
I3
sV\u80af\u5fb7\u57fa
p1255
I3
sV\u591c\u91cc
p1256
I3
sV\u51fa\u4ef7
p1257
I6
sV\u4e3a\u4f55
p1258
I9
sV\u6797\u829d
p1259
I18
sV\u649e
I3
sV\u5bbd\u6055
p1260
I6
sV\u4fde\u55bb
p1261
I6
sV\u7fa4
I3
sVin
p1262
I3
sV\u5bbd\u5e26\u7528\u6237
p1263
I3
sV\u624b\u888b
p1264
I6
sV1
I60
sV\u5bb6\u5f53
p1265
I3
sV\u5fc3\u613f
p1266
I3
sV\u5173\u952e
p1267
I3
sV\u8fdb\u6b65
p1268
I3
sV\u7537\u5b50
p1269
I6
sV\u559c\u6b22
p1270
I12
sV\u5546\u4e1a
p1271
I3
sV\u5355\u8c03
p1272
I3
sV\u8fd9\u4ef6
p1273
I3
sV!
I156
sV\u8fd9\u4e8b
p1274
I6
sV\u845b\u4f18
p1275
I3
sV\u4e45
I6
sV\u9884\u6d4b
p1276
I3
sV\u7406\u7531
p1277
I6
sV\u60f9\u7978
p1278
I9
sV999
p1279
I3
sV\u542c\u4e0d\u61c2
p1280
I3
sV\u538b\u529b
p1281
I15
sV\u597d\u597d\u5b66\u4e60
p1282
I3
sV\u7ed3\u679c\u663e\u793a
p1283
I3
sV2700
p1284
I3
sV\u7a7a\u6c14
p1285
I12
sV\u8fd9\u4e9b
p1286
I12
sV\u65b9\u814a
p1287
I6
sV\u7f8e\u56fd
p1288
I93
sVwcdma
p1289
I6
sV\u5987\u5973
p1290
I3
sV\u5e74\u9f84
p1291
I3
sV\u59bb
I3
sV\u516c\u5e73\u6b63\u4e49
p1292
I3
sV\u6551\u6551
p1293
I3
sV\u4e2d\u4ea7\u9636\u7ea7
p1294
I3
sV\u51fa\u4e8e
p1295
I3
sVno
p1296
I3
sV\u7cbe\u795e
p1297
I24
sV\u70e6
I3
sV\u4e94\u5757
p1298
I3
sV\u57ce\u5e02
p1299
I39
sV\u96ea
I15
sV\u65e9\u4e0a\u597d
p1300
I6
sV\u8f6f
I6
sV\u672c\u4eba
p1301
I6
sV\u6c11\u4f01
p1302
I3
sV\u505a\u597d
p1303
I6
sV\u76f8\u7f18
p1304
I6
sV\u9752
I3
sV\u4e0d\u5c11
p1305
I15
sV\u67f4
I3
sV\u6d4b\u8bd5
p1306
I3
sV\u58f6
I3
sV\u56db\u4e2a
p1307
I12
sV\u5efa
I15
sV\u4e3b\u610f
p1308
I3
sV\u5e02\u5185
p1309
I12
sV\u597d\u6837
p1310
I3
sV\u72af\u4eba
p1311
I3
sV\u8d85
I9
sV\u6c34\u519b
p1312
I3
sV\u6700
I99
sV\u5e03\u5c40
p1313
I12
sV\u6279\u5224
p1314
I3
sV\u5206\u949f
p1315
I9
sV\u7acb\u8db3
p1316
I3
sV\u514b\u670d
p1317
I18
sV\u52a9\u4eba
p1318
I6
sV\u6709\u79cd
p1319
I6
sV\u610f\u89c1
p1320
I6
sV\u5408\u9002
p1321
I6
sV\u8702\u7a9d
p1322
I3
sV\u7ee7\u7eed
p1323
I27
sV\u7406\u4e8b
p1324
I3
sV\u201c
I123
sV\u60ca\u5fc3
p1325
I3
sV\u4e0d\u5fc5
p1326
I9
sV\u5973\u4eba
p1327
I6
sV\u8272\u76f2
p1328
I3
sV\u76d6\u8328
p1329
I3
sV\u4eba\u6587
p1330
I12
sV\u539f\u5730
p1331
I3
sV\u6dcb\u6f13\u5c3d\u81f4
p1332
I3
sV\u96c6\u56e2
p1333
I15
sV\u52c7\u62a4
p1334
I6
sV\u4ee4\u4eba\u62c5\u5fe7
p1335
I3
sV\u4f7f\u9986
p1336
I9
sV\u8d8a\u5357
p1337
I3
sV\u7075\u9b42
p1338
I6
sV\u5012\u6389
p1339
I3
sV\u5178\u8303
p1340
I3
sV\u6bc1
I33
sV\u636e\u6089
p1341
I3
sV\u5404\u754c
p1342
I3
sV\u9a6c\u5316\u817e
p1343
I12
sV\u660e\u8fa8\u662f\u975e
p1344
I3
sV\u51fa\u8d27
p1345
I3
sV\u79cd
I3
sV\u5e74\u5c11
p1346
I3
sV\u53d1
I51
sV\u63a8\u52a8
p1347
I6
sV\u9152
I3
sV\u5510\u6167
p1348
I3
sV\u8fd9
I204
sV\u4e0d\u8981
p1349
I33
sV\u7279\u8272
p1350
I9
sV\u5927\u4e3e
p1351
I3
sV\u603b\u88c1
p1352
I3
sVname
p1353
I3
sV\u70e7
I3
sV\u5668
I3
sV\u4e0d\u5982
p1354
I6
sV\u6e05\u6670
p1355
I3
sV\u5ba2\u6c14
p1356
I3
sV\u5947\u803b\u5927\u8fb1
p1357
I3
sV\u5f90\u5c11\u6625
p1358
I6
sV\u8bd5\u4e00\u4e0b
p1359
I3
sV\u6a21\u5757
p1360
I12
sV22.5
p1361
I3
sV\u4e09\u79cd
p1362
I6
sV\u8fbe\u89c2
p1363
I6
sV\u6559\u80b2
p1364
I15
sV\u6469\u6839
p1365
I6
sV\u4e03
I3
sV\u91cd\u5ea6
p1366
I3
sV\u9886\u8896
p1367
I48
sV\u4e00\u7b49\u529f
p1368
I6
sV\u6709
I435
sV\u9648\u9053\u660e
p1369
I3
sV\u6700\u7f8e
p1370
I3
sV\u5c0f
I24
sV\u7f8e
I24
sV\u613f\u666f
p1371
I12
sV\u9e26\u7247\u6218\u4e89
p1372
I3
sV\u88ab\u53d1
p1373
I3
sV\u5192
I3
sV\u4e92\u8054\u7f51\u534f\u8bae
p1374
I18
sV\u6d6a\u6f2b
p1375
I6
sV\u51e0\u573a
p1376
I3
sV\u52a8\u8f66
p1377
I3
sV\u53cb\u65b9
p1378
I3
sV\u8fdb\u884c
p1379
I9
sV\u91cd\u5e86
p1380
I6
sV\u5218
I30
sV\u5e73\u51e1
p1381
I3
sV\u52a8\u4f5c
p1382
I3
sV\u5168\u989d
p1383
I6
sV\u88ab\u53eb
p1384
I3
sV\u96a8
I3
sV\u53ea\u5f97
p1385
I3
sV\u7edd\u5bf9
p1386
I6
sV\u6625\u8282
p1387
I6
sV\u5356\u5230
p1388
I3
sV\u5927\u89c4\u6a21
p1389
I6
sV\u806a\u660e
p1390
I15
sV\u8ba1\u5212
p1391
I3
sV\u8ba9\u8def
p1392
I9
sV\u6df1\u5207
p1393
I3
sV\u5bb6
I33
sV\u5145\u7535
p1394
I3
sV\u9752\u57ce
p1395
I3
sV\u98df\u54c1\u5b89\u5168
p1396
I6
sV\u7ecf\u6d4e\u603b\u91cf
p1397
I3
sV\u8ba4\u6350
p1398
I12
sV\u82f1\u6587
p1399
I3
sV\u989d
I3
sVG
I6
sV\u73af\u5883
p1400
I21
sV\u63a8\u5230
p1401
I3
sV\u8bdd\u9898
p1402
I3
sV\u8868\u683c
p1403
I3
sV\u552f\u4e00
p1404
I3
sV\u52a8\u6f2b
p1405
I12
sV\u751f\u524d
p1406
I3
sV\u6536\u8d2d\u4ef7
p1407
I3
sV\u5f71\u89c6
p1408
I9
sV\u6b66\u5668
p1409
I3
sV\u4ed8
I3
sV\u5f1f\u5b50
p1410
I3
sV\u4eba\u6570
p1411
I3
sV\u80dc
I6
sV\u7531\u4e8e
p1412
I21
sV\u91cd\u7ec4
p1413
I3
sV\u53d1\u56fe\u7247
p1414
I3
sV21.3
p1415
I3
sV\u586b\u5165
p1416
I3
sV\u53e6
I12
sV\u6700\u5feb
p1417
I3
sVApp
p1418
I6
sV\u82e6\u4e0d\u582a\u8a00
p1419
I9
sV\u5927\u5927\u63d0\u9ad8
p1420
I3
sV\u5458\u5de5
p1421
I15
sV\u5c0a\u656c
p1422
I3
sVthing
p1423
I3
sV\u795e\u9a6c
p1424
I18
sV\u610f\u5411
p1425
I3
sV\u4e09\u6d1e
p1426
I6
sV\u6309\u952e
p1427
I6
sV\u8a00\u8bba\u81ea\u7531
p1428
I3
sV\u6253\u7535\u8bdd
p1429
I3
sV\u6700\u597d
p1430
I9
sV\u5343\u5e74\u8001\u4e8c
p1431
I3
sV\u4e8b\u5b9e\u8bc1\u660e
p1432
I3
sV1000
p1433
I3
sV\u7528\u6237\u9700\u6c42
p1434
I3
sV\u8f83
I12
sV\u4fdd\u9556
p1435
I3
sV\u903c\u4e0a\u6881\u5c71
p1436
I3
sV\u770b\u6e05
p1437
I3
sV\u7b49\u5f85
p1438
I3
sV\u6708
I39
sV\u6194\u60b4
p1439
I3
sVATM
p1440
I3
sV\u878d\u5408
p1441
I15
sV*
I12
sVone
p1442
I6
sV\u7f3a
I15
sV\u7ade\u9009
p1443
I3
sV\u4e25\u708e
p1444
I6
sV\u9ad8\u4e09
p1445
I6
sV\u8f9e\u804c
p1446
I6
sV\u8138\u76ae\u8584
p1447
I3
sV\u8425\u6536
p1448
I9
sV\u6311\u6218
p1449
I3
sV\u8d44\u91d1
p1450
I3
sV\u5c41\u80a1
p1451
I3
sV\u640f\u724c
p1452
I3
sVAAMA
p1453
I3
sV\u8f6c\u5230
p1454
I3
sV\u5ab3\u5987\u513f
p1455
I3
sV\u5b66\u6797
p1456
I15
sV\u4e4b\u4e0b
p1457
I12
sV\u5728
I693
sV\u60a3\u8005
p1458
I6
sV\u524d\u4e9b
p1459
I6
sV\u5927\u57ce\u5e02
p1460
I9
sV\u53d1\u5e03
p1461
I39
sV2
I27
sV\u4e16\u95f4
p1462
I6
sV\u5927\u6982
p1463
I3
sV\u7eaa\u5ff5
p1464
I3
sV\u7f38
I3
sV\u53bb
I111
sV\u653e\u5f03
p1465
I3
sV\u517b\u798f
p1466
I3
sV\u7535\u6c60
p1467
I9
sV\u5d0e\u5c96
p1468
I3
sV\u6d4e\u5357
p1469
I3
sV\u8ba8\u8bba
p1470
I30
sV\u4e25\u91cd
p1471
I6
sV\u6548\u4eff
p1472
I6
sV\u70b9\u64ad
p1473
I3
sVIMG
p1474
I3
sV\u76f8\u770b
p1475
I3
sV\u5927\u80e1\u5b50
p1476
I6
sV\u4e8c
I21
sV\u6df1\u60c5
p1477
I3
sV\u54ce
I3
sV\u4eba\u5747
p1478
I15
sV\u6570\u636e\u4f20\u8f93
p1479
I3
sV\u6700\u9ad8\u5904
p1480
I3
sV\u597d\u4e1c\u4e1c
p1481
I15
sVCARE
p1482
I3
sV11
p1483
I21
sV10
p1484
I42
sV12
p1485
I12
sV15
p1486
I30
sV14
p1487
I9
sV\u4e4b\u4e45
p1488
I3
sV18
p1489
I9
sV\u611f\u5ff5
p1490
I3
sV\u7f3a\u5c11
p1491
I3
sV\u76f4\u64ad
p1492
I3
sV\u6574
I3
sV\u4e8b\u5b9e
p1493
I6
sV\u7530\u6eaf\u5b81
p1494
I6
sV\u6709\u7684\u662f
p1495
I3
sV\u5ea7\u4f4d
p1496
I3
sV\u90fd
I198
sV\u89c6\u4e3a
p1497
I3
sVying
p1498
I3
sV1.
p1499
I12
sV\u865e\u5cf0
p1500
I15
sV\u70e4\u9e2d
p1501
I3
sV\u4f5b\u7956
p1502
I3
sV\u4e00\u6bb5
p1503
I3
sV\u6740
I3
sV\u76f4\u80a0\u764c
p1504
I3
sV\u62db\u8058
p1505
I6
sV\u6f14\u8bb2
p1506
I15
sVslap
p1507
I6
sV\u9020\u798f
p1508
I3
sV\u666e\u6797\u65af\u987f
p1509
I3
sV\u7ed9\u4e88\u5e2e\u52a9
p1510
I3
sV\u81ea\u8a00\u81ea\u8bed
p1511
I3
sV\u79fb\u52a8
p1512
I33
sV\u201d
I132
sV\u4e0d\u5e78
p1513
I6
sV25
p1514
I3
sV\u8bfe
I6
sV\u5e2e\u52a9
p1515
I12
sV\u4e30\u7530
p1516
I3
sV\u9996\u90e8
p1517
I3
sV\u56e0\u679c
p1518
I3
sVWiFi
p1519
I3
sV\u540e\u6094\u4e0d\u5df2
p1520
I3
sV\u6bdb\u91cc\u6c42\u65af
p1521
I12
sV\u4e4b\u4e8c
p1522
I6
sV\u8fd9\u8001
p1523
I6
sV\u7ed9\u51fa
p1524
I3
sV\u7bee\u7403\u9986
p1525
I3
sV\u5e02\u503c
p1526
I9
sV\u5f20\u9ed8
p1527
I3
sV\u6587\u9769
p1528
I3
sV\u96be
I18
sV\u5584\u884c
p1529
I6
sV\u7ea6\u67b6
p1530
I3
sV\u627e\u5230
p1531
I6
sV\u5165\u80a1
p1532
I3
sV\u6700\u7ec8
p1533
I9
sVTV
p1534
I3
sV\u8bbd\u523a
p1535
I3
sV\u4e00\u767e\u591a\u5e74
p1536
I3
sV\u90a3\u4e48\u56de\u4e8b
p1537
I3
sV\u521a\u521a
p1538
I33
sV\u4f5c\u54c1
p1539
I6
sV\u91cc\u5965
p1540
I3
sV\u8fd8
I84
sV\u5f00\u76d8
p1541
I6
sV]
I3
sV\u771f\u597d
p1542
I6
sV\u5f3a\u70c8
p1543
I15
sV\u4e2d\u957f\u7ebf
p1544
I3
sV\u53d1\u7ed9
p1545
I30
sV\u7ba1\u7406
p1546
I12
sV\u591a\u5f20
p1547
I12
sV\u5e74\u8f7b\u4eba
p1548
I9
sVplaying
p1549
I3
sV\u9664\u4e86
p1550
I9
sV\u4e3b\u6301
p1551
I9
sV\u63d0\u5021
p1552
I6
sV\u597d\u53cb
p1553
I12
sV\u738b\u4e2d\u519b
p1554
I12
sV\u957f
I9
sV\u56fe
I6
sV\u8c46\u8150
p1555
I6
sV\u63aa
I6
sVshot
p1556
I3
sV\u6731\u65b0\u793c
p1557
I9
sV\u653b\u51fb
p1558
I9
sV\u7684\u7684
p1559
I3
sV\u7a97\u5b50
p1560
I3
sV\u4e16\u7eaa\u672b
p1561
I3
sV\u5168\u805a\u5fb7
p1562
I3
sV\u6700\u7701
p1563
I3
sV\u4e07\u5143
p1564
I15
sV\u76f8\u6fe1\u4ee5\u6cab
p1565
I3
sV\u5927\u5feb\u6735\u9890
p1566
I3
sV\u6700\u591a
p1567
I6
sV\u53ca\u50c5
p1568
I3
sV\u53cc\u773c
p1569
I3
sV\u98df\u54c1
p1570
I6
sV\u5404
I21
sV\u5531
I3
sV\u505a
I123
sV\u6700\u5927
p1571
I24
sV\u9e3f\u534e
p1572
I15
sV\u4f7f\u5f97
p1573
I3
sV\u540c\u610f
p1574
I9
sV\u5f97\u5dde
p1575
I3
sV\u5730\u65b9
p1576
I60
sV3
I21
sV\u65d7\u95e8
p1577
I6
sV\u51b3\u5b9a
p1578
I6
sV\u6bd5\u4e1a\u751f
p1579
I6
sV\u534f\u4f1a
p1580
I6
sV\u5927\u4e8e
p1581
I3
sV\u77ed\u7ebf
p1582
I3
sV\u5927\u4e8b
p1583
I3
sV\u5e38\u5c0f\u5175
p1584
I6
sV\u53ea\u597d
p1585
I15
sV\u535a\u6587
p1586
I3
sV\u653f\u6cbb
p1587
I18
sV\u86c7
I3
sV\u638c\u63e1
p1588
I3
sV\u8457\u540d
p1589
I6
sV\u4f53\u9a8c
p1590
I33
sV\u4e0d\u59a8
p1591
I3
sV\u5168\u5e74
p1592
I3
sV\u4e09\u5e74
p1593
I9
sV\u4e00\u987f\u996d
p1594
I3
sV\u4e00\u665a
p1595
I3
sV\u5267\u4e2d
p1596
I6
sV\u5361\u4eba
p1597
I3
sV\u66f2\u76ee
p1598
I3
sV\u62df
I3
sV\u5de1
I3
sV\u52a1\u5fc5
p1599
I3
sV\u4fe1\u606f\u6d41
p1600
I3
sV\u5566
I132
sV\u8fd9\u6b21
p1601
I6
sV\u4e14\u4e0d\u8bba
p1602
I3
sV\u8131\u843d
p1603
I3
sV\u5927\u4ed9
p1604
I9
sV\u4f1a\u4e71
p1605
I3
sV\u597d\u4e45
p1606
I3
sV\u8d44\u672c
p1607
I3
sV\u60f3
I81
sV\u88ab\u5b50
p1608
I3
sV\u5e02\u573a
p1609
I18
sV\u603b\u4eba\u53e3
p1610
I3
sV\u9053\u65c1
p1611
I3
sV\u5c4f\u5e55
p1612
I3
sV\u76f4\u63a5
p1613
I9
sV\u6beb\u4e0d\u900a\u8272
p1614
I3
sV\u9ad8\u4ef7
p1615
I3
sV\u7528\u5904
p1616
I3
sV\u5173\u4e8e
p1617
I12
sV\u7535\u8bdd
p1618
I12
sV\u8d1d
I3
sV\u9700\u8981
p1619
I33
sV\u559c\u9152
p1620
I3
sV\u4e27\u5931
p1621
I6
sV\u53ef\u601c
p1622
I3
sV\u54ed
I3
sV\u5316
I12
sV\u5e73\u9759
p1623
I6
sV\u9ad8\u6e05
p1624
I9
sV\u5f00\u4f1a
p1625
I3
sV\u8fd9\u8bdd
p1626
I3
sV\u964d\u5230
p1627
I3
sV\u9677\u9631
p1628
I3
sV\u4e0d\u597d
p1629
I6
sV\u884c\u957f
p1630
I3
sV\u4e0d\u53ef\u591a\u5f97
p1631
I3
sV\u5c1a\u6709
p1632
I3
sV\u505c\u7559
p1633
I3
sV)
I39
sV\u670b\u53cb
p1634
I111
sV\u6253\u7b97
p1635
I3
sV\u7f3a\u5931
p1636
I3
sV\u786c\u4ef6
p1637
I9
sV45340
p1638
I3
sV\u8033
I3
sV\u4e16\u9053
p1639
I3
sV\u8001\u4eba\u5bb6
p1640
I3
sV\u4e3b\u529e\u65b9
p1641
I3
sVit
p1642
I6
sV\u8bc4\u4ef7
p1643
I3
sV\u543b
I6
sV\u7f8e\u56fd\u56fd\u52a1\u9662
p1644
I12
sV\u5c4b
I3
sV\u597d\u4e8b
p1645
I27
sV\u987f\u609f
p1646
I3
sV\u8d77\u6765
p1647
I21
sV\u4f4d\u7f6e
p1648
I12
sVjobs
p1649
I3
sV\u5148\u751f
p1650
I21
sV\u9879\u76ee
p1651
I12
sV\u6210\u5efa
p1652
I3
sV\u4ece\u4e1a
p1653
I3
sV\u7269\u6781\u5fc5\u53cd
p1654
I3
sV\u505a\u4e0d\u4e86
p1655
I3
sV\u98de\u673a
p1656
I6
sV\u770b\u6837\u5b50
p1657
I3
sV\u9053
I3
sV\u5185\u7f6e
p1658
I6
sV\u9053\u8def
p1659
I9
sV\u9a6c\u851a\u534e
p1660
I3
sV\u624b\u673a\u7528\u6237
p1661
I12
sV\u5434\u9e70
p1662
I12
sV\u6210\u7ee9
p1663
I6
sV\u5e73\u5747
p1664
I24
sV\u82b1\u88ab
p1665
I3
sV\u5bb6\u957f
p1666
I6
sV\u751f\u547d
p1667
I12
sV\u4e8b\u60c5
p1668
I15
sV\u6865\u4e0b
p1669
I3
sV\u6d4f\u89c8
p1670
I3
sV\u90e8
I14
sVconvince
p1671
I3
sV\u9707\u64bc
p1672
I9
sV\u4eec
I78
sV\u4e00\u66f2
p1673
I3
sVs
I3
sV\u529e\u4e8b
p1674
I3
sV\u4f8b\u5916
p1675
I3
sV\u5979
I63
sV\u4e0d\u591f
p1676
I18
sV\u5e73\u5766
p1677
I6
sV\u6c42\u4eba
p1678
I3
sV\u5584\u4e8e
p1679
I3
sV\u591a\u79cd
p1680
I6
sV\u53f2
I3
sV\u517b\u5fb7
p1681
I3
sV\u5584\u4e8b
p1682
I3
sV\u623f\u4ef7
p1683
I6
sV\u7cbe\u76ca\u6c42\u7cbe
p1684
I9
sV\uff0c
I4308
sV\u724c
I18
sV\u5b55\u80b2
p1685
I3
sV60
p1686
I12
sV\u592a\u5dee
p1687
I3
sV\u5ffd\u7136
p1688
I6
sV\u4e0b\u964d
p1689
I3
sV\u5f00\u901a
p1690
I3
sV\u62c9\u5f00
p1691
I3
sV\u8001\u6bdb
p1692
I6
sVCOO
p1693
I6
sV\u653e\u5927
p1694
I3
sV\u5f81\u6c42\u610f\u89c1
p1695
I3
sV\u8b66\u9192
p1696
I3
sV\u5386\u53f2\u4f7f\u547d
p1697
I3
sV\u524d\u5f80
p1698
I6
sV\u5426
I3
sV\u91cd\u590d
p1699
I21
sV\u59d1\u5a18
p1700
I6
sV\u63a5\u73ed\u4eba
p1701
I3
sV\u57fa\u7840
p1702
I3
sV\u4ecb\u4e8e
p1703
I3
sV\u6301\u7eed\u6027
p1704
I3
sV\u900f\u660e
p1705
I3
sV\u5de5\u4f5c
p1706
I18
sV\u5370\u8c61
p1707
I3
sV\u5fb7
I33
sV158
p1708
I3
sV506
p1709
I3
sV\u518d\u8bba
p1710
I3
sV\u518d\u4e5f
p1711
I3
sV\u6cd5\u7406
p1712
I3
sV\u524d\u884c
p1713
I3
sV\u56fe\u7247
p1714
I12
sV\u53ea\u987e
p1715
I3
sV\u667a\u6167
p1716
I9
sV\u4e00\u6746
p1717
I15
sV\u5165\u9aa8
p1718
I3
sVwith
p1719
I3
sV\u540d
I3
sVPhil
p1720
I3
sV\u672a\u83b7\u5956
p1721
I3
sV\u54d1
I3
sV\u5c0f\u7537\u5b69
p1722
I3
sV\u751f\u75c5
p1723
I3
sV\u7f3a\u9677
p1724
I3
sV\u771f\u5fc3
p1725
I3
sV\u5fd8\u8bb0
p1726
I6
sV\u4e22\u4eba
p1727
I3
sV\u6276\u6447\u76f4\u4e0a
p1728
I3
sV\u7279\u6548
p1729
I3
sV\u4e00\u6761
p1730
I27
sVDOLCE
p1731
I6
sV\u6709\u7ebf
p1732
I6
sV\u5466
I12
sV\u5168
I12
sV\u6deb
I3
sV\u8865\u4e0a
p1733
I6
sV\u8f6c
I18
sV\u4e00\u4e07\u516d\u5343
p1734
I3
sV\u517b\u5fc3
p1735
I3
sV\u81f3
I21
sV\u7406\u89e3
p1736
I9
sV\u6ca1\u6cd5
p1737
I6
sV\u804a\u5929
p1738
I3
sV1100
p1739
I6
sV\u6ce8\u91cd
p1740
I3
sV\u5450\u558a
p1741
I3
sV\u7a7a
I18
sV\u66f4\u52a0
p1742
I9
sV\u8c01
I39
sV\u53ea
I18
sV\u8fbe\u82ac\u5947
p1743
I6
sV\u6240
I9
sV1.87
p1744
I9
sV\u5145\u5206
p1745
I3
sV\u65b0\u589e
p1746
I12
sV\u6f5c\u529b
p1747
I3
sV\u5411
I27
sV\u4e2d\u56fd\u79fb\u52a8
p1748
I12
sV\u4f60\u5bb6
p1749
I3
sV\u5e26\u6765
p1750
I18
sV\u4f17
I3
sV\u521b\u610f
p1751
I3
sV\u6709\u70b9\u513f
p1752
I6
sV\u8d77\u4e0d\u6765
p1753
I3
sV\u60e8\u8d25
p1754
I3
sV\u5927\u4f17
p1755
I6
sV\u6709\u5e78
p1756
I24
sV\u591c\u95f4
p1757
I9
sV\u767d\u4e91
p1758
I3
sV\u6000\u8fdb\u9e4f
p1759
I12
sV\u9177\u5a01
p1760
I3
sV\u68c0\u67e5
p1761
I12
sV\u5f20\u78ca
p1762
I3
sV\u53ca\u5176
p1763
I3
sV\u4e2d
I78
sV\u5927\u4f1a
p1764
I3
sV\u5de7\u9047
p1765
I6
sV\u65b0
I63
sV\u4eca\u6668
p1766
I3
sV\u8865\u507f
p1767
I9
sV\u4e48
I12
sV\u753b
I6
sV\u7761
I3
sV\u6170\u95ee
p1768
I3
sV\u7d20\u8d28
p1769
I3
sV\u5b89\u5168\u90e8\u95e8
p1770
I3
sV\u6d41\u7545
p1771
I3
sV\u513f\u7ae5\u6559\u80b2
p1772
I3
sVI
I6
sV\u8bf7\u95ee
p1773
I12
sV\u592a\u597d\u4e86
p1774
I3
sVIT
p1775
I48
sV\u4e0d\u7834
p1776
I3
sV\u592a\u7d2f
p1777
I3
sV\u591a\u591a
p1778
I3
sV\u5404\u4f4d\u670b\u53cb
p1779
I3
sV\u5b89\u5b81
p1780
I6
sV\u4e0d\u9732\u58f0\u8272
p1781
I3
sV\u5bb9\u6613
p1782
I27
sV\u4eba\u624d
p1783
I21
sV\u4f9d\u6076
p1784
I3
sV\u5373\u4f7f
p1785
I3
sV\u597d\u8fd0
p1786
I3
sV\u54e6
I6
sV\u89c6\u5bdf
p1787
I3
sV\u795d\u5218
p1788
I6
sV\u5927\u5510
p1789
I6
sV\u8270\u96be
p1790
I6
sVlucky
p1791
I3
sV\u5217\u8868
p1792
I3
sV\u613f\u610f
p1793
I12
sV\u5e73\u8861
p1794
I3
sV\u4e86\u89e3
p1795
I6
sV\u660e\u955c
p1796
I3
sV\u5343\u53f0
p1797
I3
sV\u6d41\u6d6a\u8005
p1798
I6
sV\u5c0f\u533a
p1799
I3
sV\u9000\u5e02
p1800
I6
sV\u4e00
I81
sV\u6210\u5c31
p1801
I3
sV\u9c81\u82e5\u6674
p1802
I6
sV\u6c42\u6c42
p1803
I3
sV\u6389
I3
sV\u7231\u56fd
p1804
I9
sV\u6211\u56fd
p1805
I9
sV\u7eaf\u5c5e
p1806
I9
sV\u6388\u4e88
p1807
I3
sV\u6253\u9519
p1808
I3
sV\u51fa\u53bb\u73a9
p1809
I3
sV\u6c14\u8d28
p1810
I6
sV\u6012
I3
sV\u4ea4\u6d41
p1811
I6
sV\u5408\u7406
p1812
I3
sV\u609f
I12
sV\u5e7c\u5973
p1813
I3
sV\u6628\u665a
p1814
I18
sV\u5916\u8d44
p1815
I3
sV\u4ea4\u54cd
p1816
I3
sVJobs
p1817
I21
sV\u94a7
I3
sV\u73a9
I6
sV\u53cd\u800c
p1818
I6
sV\u8eab
I3
sV\u8bde\u751f
p1819
I3
sV\u95ed\u5173\u9501\u56fd
p1820
I3
sV\u900f\u9732
p1821
I3
sV\u9009\u62e9
p1822
I12
sV\u8089
I3
sV\u5e72\u6d89\u5185\u653f
p1823
I12
sV\u667a\u80fd
p1824
I3
sV4
I33
sV\u5c0f\u6f58
p1825
I9
sV\u4eca\u65e5
p1826
I3
sV\u540e\u6765
p1827
I6
sV\u673a\u5173
p1828
I3
sV\u55bd
I45
sV\u60ca\u5fc3\u52a8\u9b44
p1829
I3
sV\u9002\u5e94\u80fd\u529b
p1830
I3
sV\u9996\u957f
p1831
I18
sV\u4ee5\u4e3a
p1832
I3
sV0122
p1833
I3
sV\u65e0\u77e5
p1834
I6
sV\u5434\u5148\u751f
p1835
I3
sV\u536b\u5195\u51a0\u519b
p1836
I6
sV\u7b49\u4f60\u62ff
p1837
I3
sV\u6b47\u6b47
p1838
I3
sV\u9650
I9
sV\u89d2\u5ea6
p1839
I6
sV\u6c7d\u8f66
p1840
I3
sV\u5dee\u4e0d\u591a
p1841
I3
sV\u5b8f
I3
sV\u5957\u9910
p1842
I9
sV\u6728
I6
sV\u5f00\u8f66
p1843
I3
sV\u79d8\u8bc0
p1844
I3
sV\u60f3\u4e0d\u5230
p1845
I3
sV\u6548\u7387
p1846
I3
sV\u4e50\u8da3
p1847
I3
sV\u4e09\u70b9
p1848
I3
sV\u6ce1\u5f71
p1849
I3
sV\u534e\u8c0a
p1850
I3
sV\u957f\u8fdc
p1851
I3
sV\u5e72\u52b2
p1852
I3
sV\u751f\u5b50
p1853
I3
sV\u79bb
I6
sViphone4
p1854
I9
sViphone5
p1855
I6
sV\u56f0\u96be
p1856
I3
sV\u7ea2\u9876
p1857
I3
sV\u575a\u4fe1
p1858
I3
sV\u542c\u8bf4
p1859
I21
sV\u5438\u70df
p1860
I9
sV\u5c0f\u4f19
p1861
I3
sV\u5bf9
I204
sV\u54c1\u7c7b
p1862
I3
sV\u4ece\u4e0a\u5230\u4e0b
p1863
I3
sV\u5356\u56fd
p1864
I9
sV\u82b3\u9999\u70c3
p1865
I3
sV\u98ce\u9669
p1866
I6
sV\u8fd8\u6709
p1867
I21
sV\u6309
I42
sV\u9f99\u54e5
p1868
I3
sV\u4f18\u79c0
p1869
I9
sV\u5168\u7f8e
p1870
I12
sV\u81ea\u65b0
p1871
I3
sV\u529e\u6cd5
p1872
I9
sV\u89c9\u5f97
p1873
I33
sV\u4e89\u53d6
p1874
I3
sV\u5929\u4e0b\u5927\u4e71
p1875
I3
sV\u9010\u6e10
p1876
I6
sV\u6e05\u695a
p1877
I18
sV\u8f93\u8d62
p1878
I3
sV\u7535\u89c6
p1879
I63
sV\u7b2c\u4e00\u4e2a
p1880
I6
sV\u5750\u98de\u673a
p1881
I6
sV\u65e0\u9700
p1882
I3
sV\u5927\u6c14
p1883
I3
sV\u77eb\u60c5
p1884
I3
sV\u5427
I168
sV\u6491\u5f00
p1885
I6
sV\u6e56\u5317\u7701\u59d4
p1886
I6
sV\u538b\u4f4e
p1887
I3
sV\u56db\u5206\u4e4b\u4e00
p1888
I3
sV\u5171\u540c
p1889
I3
sV\u53d6\u94b1
p1890
I3
sV\u6233
I3
sV\u51fa\u751f
p1891
I3
sV\u56fd\u4f01
p1892
I3
sV\u54ab\u5c3a\u4e4b\u95f4
p1893
I3
sV\u5f00\u53bb
p1894
I3
sV\u897f\u95e8\u5e86
p1895
I6
sV\u4e0d\u65ad\u521b\u65b0
p1896
I12
sV\u6309\u7167
p1897
I9
sV\u6ca1
I48
sV\u73b0\u91d1
p1898
I12
sV\u8003\u9a8c
p1899
I3
sV\u56f4\u8116
p1900
I66
sV\u6350\u6b3e
p1901
I3
sV\u9500\u91cf
p1902
I3
sV\u65ad\u88c2
p1903
I6
sV\u6b20
I3
sV\u52c9\u5f3a
p1904
I3
sV\u4e09\u500d
p1905
I3
sV\u4ea4\u6613
p1906
I3
sV\u5341\u4e00\u70b9\u591a
p1907
I3
sV_
I6
sV\u6cb3\u6e7e
p1908
I3
sV\u7239\u5988
p1909
I3
sV\u5386\u53f2
p1910
I15
sV\u5047\u7ef4
p1911
I3
sVHTC
p1912
I3
sV\u5927\u81ea\u7136
p1913
I3
sV\u5efa\u6210
p1914
I3
sV\u4ee3\u6301
p1915
I3
sV\u8bbe\u65bd
p1916
I6
sV\u6e38\u8247
p1917
I3
sV\u4e4b\u6bcd
p1918
I3
sV\u54ea\u4e00
p1919
I3
sV\u5fc3\u667a
p1920
I6
sV\u5e38\u59d4
p1921
I6
sV\u5f62\u4f53
p1922
I3
sV\u5927\u7ea6
p1923
I6
sV\u632a\u7528
p1924
I3
sV\u5e02\u957f
p1925
I3
sV\u5174\u8da3
p1926
I6
sV\u54c0\u60bc
p1927
I3
sV\u80af\u5b9a
p1928
I24
sV\u5218\u6c49\u5143
p1929
I12
sV\u5229\u843d
p1930
I3
sV\u539f\u5219
p1931
I9
sVVerizon
p1932
I12
sV\u6545\u610f
p1933
I3
sV\u624b\u4e2d
p1934
I3
sV\u6253\u7834
p1935
I3
sV\u586b\u6ee1
p1936
I3
sV\u8d70\u4e0a
p1937
I3
sV\u4e00\u5927\u5e2e
p1938
I3
sV\u6218\u7565
p1939
I6
sVyour
p1940
I3
sVStore
p1941
I6
sV\u7ed3\u4ea4
p1942
I3
sV\u5f20
I15
sV\u7f62\u4e86
p1943
I6
sV\u79d1\u7814
p1944
I3
sV\u627e\u56de
p1945
I3
sV\u6ca1\u4e86
p1946
I3
sV\u6bd5\u4e1a
p1947
I3
sV\u6ca1\u4e8b
p1948
I6
sV\u5408\u5531
p1949
I3
sV\u534f\u8c03
p1950
I3
sV\u68a6\u60f3
p1951
I12
sV\u9884\u8ba1
p1952
I3
sV\u56fa\u7f51
p1953
I3
sV\u7cbe\u7f8e
p1954
I3
sV\u521b\u4e1a
p1955
I21
sV\u7269\u54c1
p1956
I3
sV\u5357\u4eac
p1957
I3
sV\u4ebf\u5143
p1958
I3
sV\u9650\u91cf
p1959
I6
sV\u4e07\u7269
p1960
I6
sV\u70ed\u60c5
p1961
I3
sVfrom
p1962
I3
sV\u6c42
I15
sV\u5ba1\u67e5
p1963
I9
sV\u62c9
I6
sV\u804a
I15
sV\u504f\u91cd
p1964
I3
sV\u534e\u8d38
p1965
I3
sV\u5750
I15
sV\u9000\u7f51
p1966
I9
sV\u9093\u4e3d\u541b
p1967
I3
sV\u5185\u5fc3
p1968
I3
sV\u8d22\u653f\u6536\u5165
p1969
I15
sV\u6e56
I3
sV103.9
p1970
I3
sV\u4f60\u597d
p1971
I12
sV\u4efb\u5fd7\u5f3a
p1972
I3
sV\u8d2a\u5b98
p1973
I6
sV\u5c0f\u4e09
p1974
I3
sV\u5475\u5475
p1975
I6
sV\u7279\u6743
p1976
I3
sV\u7238\u7238
p1977
I6
sV\u7403\u573a
p1978
I3
sV\u592a\u7f8e
p1979
I3
sV\u54ea\u4e00\u4f4d
p1980
I3
sV\u5e76
I63
sV\u4eb2\u4eec
p1981
I3
sV\u9000\u5f79
p1982
I21
sV\u76f8\u5f53\u4e8e
p1983
I3
sV\u8fd9\u6837
p1984
I48
sV\u4e00\u7897
p1985
I3
sV\u5b5f\u52a0\u62c9\u56fd
p1986
I3
sVUSA
p1987
I3
sV\u5883\u754c
p1988
I9
sV\u4eba\u6027
p1989
I3
sV\u8fdf\u949d
p1990
I3
sV\u82e6\u96be
p1991
I3
sV\u5165\u6000
p1992
I3
sV\u6e38\u633a
p1993
I3
sV\u6c42\u80dc
p1994
I3
sV\u4f9d\u9760
p1995
I6
sV\u8003\u5bdf
p1996
I3
sV\u904d\u5730
p1997
I3
sV\u805a\u4f1a
p1998
I12
sV\u5f02\u5730
p1999
I3
sV\u51b7\u9759\u4e0b\u6765
p2000
I3
sV\u611f
I3
sV\u8d5e\u53f9
p2001
I3
sV4.5
p2002
I3
sVhigh
p2003
I3
sV\u5a36\u59bb
p2004
I3
sV\u8fd8\u662f
p2005
I90
sV\u5ba2\u89c2
p2006
I3
sV\u5bfc\u7535\u6027
p2007
I3
sV\u51c0\u8d44\u4ea7
p2008
I3
sV\u5706\u684c\u4f1a\u8bae
p2009
I3
sV\u6d88\u5931
p2010
I3
sV\u80a0\u955c
p2011
I3
sVthat
p2012
I3
sV5
I39
sV\u57fa\u7ad9
p2013
I6
sV\u7126\u70b9
p2014
I3
sV\u629a\u517b\u6743
p2015
I6
sV\u89e3\u5957
p2016
I3
sV\u513f
I9
sV\u6587\u5316
p2017
I6
sV\u4e00\u65c1
p2018
I3
sV\u56db\u6816
p2019
I3
sV\u8c03\u4f83
p2020
I9
sV\u73af\u7403
p2021
I6
sV\u6b22\u8fce
p2022
I15
sV\u51b3\u6597
p2023
I6
sV\u6ca1\u4ec0\u4e48
p2024
I9
sV\u8bb8\u52e4
p2025
I3
sV\u5bfb\u627e
p2026
I3
sV\u7cbe\u5f69
p2027
I21
sV\u5c0f\u4eba
p2028
I3
sV\u4ed6
I183
sV\u51b2\u5230
p2029
I3
sV\u7ffc\u672c
p2030
I6
sV\u7136\u540e
p2031
I3
sViptv
p2032
I3
sV\u5206\u914d
p2033
I3
sV\u5c06\u8981
p2034
I3
sV\u4e0d\u7740
p2035
I3
sV\u5fe0
I3
sV\u4e00\u65e6
p2036
I6
sV\u65b9\u5f0f
p2037
I9
sV\u6bdb\u5934
p2038
I3
sV\u5269
I3
sV\u884c\u4e1a
p2039
I15
sV\u9ec4\u7fce
p2040
I24
sV\u7231\u4eba
p2041
I3
sV\u5c0f\u513f\u5b50
p2042
I3
sV\u5b8c\u7f8e
p2043
I6
sV\u90d1\u5dde
p2044
I6
sV\u4e5f\u5c31\u662f\u8bf4
p2045
I3
sV\u65e0\u9650
p2046
I3
sV\u4e13\u533a
p2047
I3
sV\u5fcd\u75db
p2048
I6
sV\u8bba\u575b
p2049
I6
sV5300
p2050
I3
sV\u6dd8\u6c70
p2051
I3
sV\u7d20\u4e0d\u76f8\u8bc6
p2052
I3
sV\u547d
I3
sV\u663c\u591c
p2053
I3
sV\u55d3\u5b50
p2054
I6
sV\u9000
I6
sV\u4fee\u884c
p2055
I3
sV\u536b\u54f2
p2056
I3
sV\u4eba\u7fa4
p2057
I3
sV\u5f80\u4e8b
p2058
I6
sV\u901a\u8fc7
p2059
I18
sV\u62fc\u51fa
p2060
I3
sV\u51cc\u6668
p2061
I6
sV\u65e2\u7136
p2062
I9
sV.....
p2063
I6
sV\u773c\u7ea2
p2064
I3
sV\u4e14
I3
sV\u6761\u4ef6
p2065
I9
sV\u51fa\u8f68
p2066
I6
sV\u5b9d
I3
sV\u8fa9\u62a4
p2067
I3
sVSIM
p2068
I3
sV\u4e24\u53e5\u8bdd
p2069
I3
sV\u603b\u7ed3
p2070
I6
sV\u6743\u5229
p2071
I6
sV\u5347\u804c
p2072
I3
sV\u529f\u6743
p2073
I9
sV\u70ab
I3
sV\u603b\u7edf
p2074
I3
sV\u901a\u4fe1
p2075
I6
sV\u56fd\u519b
p2076
I11
sV\u952e
I6
sV\u56fd\u5185
p2077
I12
sVto
p2078
I6
sV\u76ee\u51fb
p2079
I6
sV\u94ed\u8bb0
p2080
I3
sV\u5c3d\u53ef\u80fd
p2081
I6
sV\u609f\u6027
p2082
I3
sV\u679c\u6562
p2083
I3
sV\u5206\u4eab
p2084
I39
sV\u4e9a\u6770
p2085
I3
sV\u4ebf
I39
sV\u6d3e
I3
sV\u62cd\u7167
p2086
I12
sV\u9304\u8005
p2087
I3
sV\u56fe\u50cf
p2088
I3
sV\u70ed\u5fc3
p2089
I6
sVvery
p2090
I3
sV\u5355\u95f4
p2091
I3
sV\u649e\u5012
p2092
I3
sV\u4e16\u4e8b
p2093
I9
sV\u521a\u8981
p2094
I3
sV\u964d\u4ef7
p2095
I3
sV\u4e54
I3
sV\u72d7
I3
sV\u8868\u9762
p2096
I3
sV\u7efc\u5408
p2097
I6
sV\u795d\u798f
p2098
I9
sV\u6ee1\u683c
p2099
I3
sV\u9732\u4e24\u624b
p2100
I3
sV\u57ce\u5e02\u89c4\u5212
p2101
I3
sV\u6362
I6
sV\u67e5
I6
sV\u597d\u5fc3\u4eba
p2102
I3
sV\u4e25\u683c
p2103
I6
sV\u4e34\u65f6
p2104
I12
sV\u505a\u5230
p2105
I12
sV\u4e3b\u9898
p2106
I3
sV\u73ed
I12
sV\u8d8a\u4e71
p2107
I3
sV\u91ce\u82b1
p2108
I6
sV\u5b9e\u5728
p2109
I6
sV\u5bfc\u64ad
p2110
I3
sV\u5173\u6ce8
p2111
I75
sV\u5bf9\u8bdd
p2112
I6
sV\u5e74
I135
sVJ21
p2113
I3
sV\u5929\u575b\u533b\u9662
p2114
I3
sV\u8db3\u591f
p2115
I3
sV\u51fb\u8d25
p2116
I3
sV\u52c7\u58eb
p2117
I3
sV\u75be\u75c5
p2118
I3
sV\u9080
I3
sV\u5403
I39
sV\u7684
I2598
sV\u6bcf\u5929
p2119
I15
sV\u603b\u53d1
p2120
I6
sV\u5f88\u5c11
p2121
I6
sV\u95ed\u95e8
p2122
I3
sV\u770b\u4e0d\u4e0b\u53bb
p2123
I3
sV\u61c2
I6
sV\u4e94
I3
sV\u738b\u5175
p2124
I12
sV\u6838\u5fc3
p2125
I9
sV\u4e8c\u5341\u5e74
p2126
I3
sV\u4f11\u95f2\u6d3b\u52a8
p2127
I3
sV\u71d5\u9752
p2128
I3
sV\u5218\u77e9
p2129
I6
sV\u90a3\u6bb5
p2130
I3
sV\u5c71\u4e0a
p2131
I3
sV
I15
sVwhat
p2132
I3
sV\u73b0\u6709
p2133
I9
sV\u770b\u8d77\u6765
p2134
I3
sV\u8fd1\u4e00\u5e74\u6765
p2135
I3
sV\u4f55\u4ee5\u582a
p2136
I3
sV\u6cd5\u5224\u4eba
p2137
I3
sV\u6350\u732e\u8005
p2138
I3
sV\u811a\u4e0b
p2139
I3
sV\u6784\u601d
p2140
I3
sV\u592a\u725b
p2141
I6
sV\u5434\u82f1
p2142
I3
sV\u78b0
I6
sV\u5927\u610f
p2143
I3
sV\u91cd\u6491
p2144
I6
sV\u4ee3\u95ee
p2145
I3
sV\u5931\u8d25
p2146
I9
sVcn
p2147
I6
sVGod
p2148
I3
sV\u9ec4\u738b
p2149
I3
sV\u68cd
I6
sV\u56db\u767e\u4e07
p2150
I3
sV\u91d1\u521a\u7ecf
p2151
I3
sV\u6d41\u884c
p2152
I3
sV\u68c0\u9a8c
p2153
I3
sV\u62c9\u62c9
p2154
I3
sV\u4e2d\u9ad8\u534f
p2155
I3
sV\u4f55
I3
sV\u4e00\u624b
p2156
I9
sV\u4e4b\u95f4
p2157
I12
sV\u80a5\u8089
p2158
I3
sV\u515c\u91cc
p2159
I3
sV\u4e54\u5e03\u65af
p2160
I69
sV\u4e00\u7247
p2161
I3
sV\u600e\u4e48
p2162
I39
sV\u6c49\u5978
p2163
I3
sV\u718a\u5c0f\u9e3d
p2164
I6
sV\u6625\u98ce
p2165
I3
sV\u6765
I78
sV\u4f4e\u4e8e
p2166
I15
sV\u5feb\u5feb
p2167
I12
sV\u8fea
I12
sV\u6e29\u67d4
p2168
I3
sV\u5168\u62d4
p2169
I3
sV\u95ee
I42
sV\u73b0\u573a
p2170
I6
sV\u7c73
I9
sV\u4e09\u4e2a
p2171
I3
sV\u5370\u5ea6
p2172
I12
sV\u8f9b\u82e6
p2173
I6
sV\u4e00\u5982
p2174
I3
sV\u5175\u54e5
p2175
I6
sV\u6b66\u6c49
p2176
I3
sV\u589e\u5927
p2177
I3
sV\u540c\u4ec1
p2178
I3
sV\u9000\u80fd
p2179
I3
sV\u63a7\u5236
p2180
I6
sVvia
p2181
I3
sV\u6625\u5929
p2182
I3
sV\u7c89
I12
sV\u715e
I3
sV\u53d6
I6
sV\u7236\u7231
p2183
I3
sV\u673a\u623f
p2184
I6
sV\u591a\u4e00\u4efd
p2185
I3
sV\u7eaf
I3
sV\u5361\u53f7
p2186
I6
sVTom
p2187
I3
sV\u94a6\u4f69
p2188
I6
sV\u4ef7\u503c
p2189
I33
sV\u5b9e\u9645
p2190
I3
sV\u56fe\u4e66
p2191
I6
sVemoji
p2192
I3
sV\u80a1
I9
sV\u4f4e\u8c03
p2193
I3
sV\u5236\u7ea6
p2194
I3
sV\u589e\u957f
p2195
I27
sV\u4e0b\u96ea
p2196
I6
sV\u6562\u4e8e
p2197
I3
sV\u4e2a
I81
sV\u4f5c\u4e3a
p2198
I3
sV\u4e4b\u540e
p2199
I3
sV\u6b7b\u751f\u6709\u547d
p2200
I3
sV\u8650\u5fc3
p2201
I3
sV\u7b2c\u4e8c
p2202
I9
sV\u603b\u7ed3\u7ecf\u9a8c
p2203
I3
sV\u82f9\u679c
p2204
I84
sV\u5f00\u6c34
p2205
I3
sV6
I45
sV\u5e74\u6765
p2206
I6
sV\u5927\u738b
p2207
I3
sV\u5de6
I3
sV\u70c1
I3
sV\u5361
I24
sV\u767e\u4f59\u6b21
p2208
I3
sV\u5bb6\u5b9d
p2209
I3
sV\u529f\u5229
p2210
I3
sV\u7bc7
I6
sV\u7b2c\u4e94\u671f
p2211
I3
sV\u5de5\u4fe1
p2212
I5
sV\u62cd
I30
sV\u5e26\u5bbd
p2213
I6
sV\u7684\u8bdd
p2214
I24
sV\u8fdc\u5927\u4e8e
p2215
I3
sV\u674e\u5c0f\u52a0
p2216
I6
sV\u6b27\u5de1
p2217
I3
sV\u540e\u53f0
p2218
I3
sV\u4e24\u6837
p2219
I3
sV\u5b66\u7a76\u6c14
p2220
I3
sV\u8001\u4efb
p2221
I15
sV\u79d1\u666e
p2222
I3
sV\u96be\u5fd8
p2223
I3
sV\u903b\u8f91
p2224
I12
sV\u5176\u5b83
p2225
I15
sV\u90a3\u79cd
p2226
I3
sV\u6628\u591c
p2227
I3
sV\u7ec4\u7ec7\u8005
p2228
I6
sV\u4e3b\u6301\u4eba
p2229
I6
sV\u5f3a\u5236\u6027
p2230
I3
sV\u6559\u5ba4
p2231
I21
sV\u5b98\u65b9
p2232
I3
sV\u4e3b\u6cbb\u533b\u751f
p2233
I3
sV\u53ef\u7231
p2234
I3
sV\u610f\u5916
p2235
I3
sV\u667a
I3
sV\u5176\u5b9e
p2236
I60
sV\u9001
I12
sV\u5e72\u574f\u4e8b
p2237
I3
sV\u5973\u751f
p2238
I6
sV\u706b\u7206
p2239
I3
sV\u4e2d\u5fc3
p2240
I6
sV\u5206\u4f17
p2241
I3
sV\u8fbe\u5230
p2242
I12
sV\u516d
I6
sV\u820d
I3
sV\u75af\u72c2
p2243
I3
sV\u5171\u789f
p2244
I9
sV\u79fb\u52a8\u7535\u8bdd
p2245
I18
sV\u597d\u5947\u5fc3
p2246
I3
sV\u533b\u9662
p2247
I6
sV\u7f8e\u4eba
p2248
I6
sV\u793e\u4ea4\u5708\u5b50
p2249
I3
sV\u96c6\u8d44
p2250
I3
sV\u4e00\u5b9a
p2251
I30
sV\u53f7\u8863
p2252
I3
sV\u597d\u73a9
p2253
I6
sV\uff1f
I354
sV\u7535\u4fe1\u4e1a\u52a1
p2254
I3
sV\u5317\u5927
p2255
I21
sV\u9e70
I3
sV5.2
p2256
I3
sV\u62a2
I15
sV\u5439\u54cd
p2257
I3
sV\u53d1\u8d77
p2258
I3
sV\u540c\u5fd7
p2259
I9
sV\u6da8
I3
sV\u542c\u542c
p2260
I3
sV\u8bd5\u8fd0\u8425
p2261
I3
sV\u6e29\u6696
p2262
I6
sV\u81f4\u656c
p2263
I3
sV\u4e00\u5bb6
p2264
I9
sVparty
p2265
I3
sV\u66fe\u7ecf
p2266
I27
sV\u628a
I189
sV\u6ca6\u4e3a
p2267
I3
sV\u8001\u5434
p2268
I15
sV\u563f\u563f
p2269
I3
sV\u63aa\u65bd
p2270
I6
sV\u522b\u5fd8\u4e86
p2271
I3
sV\u6f14\u51fa
p2272
I12
sV\u83ab\u4e0d\u662f
p2273
I3
sV\u4e0d\u592a\u597d
p2274
I6
sV\u6240\u6709
p2275
I39
sV\u624d
I87
sV\u83cc
I3
sV\u666e\u901a
p2276
I18
sV\u5fc3\u60c5
p2277
I3
sV\u5357
I3
sV\u9884\u7559
p2278
I6
sV\u5c71\u91cc
p2279
I3
sV\u516c\u76ca\u6d3b\u52a8
p2280
I3
sVa
I18
sV\u91d1
I12
sV\u8fc7\u5e74
p2281
I144
sV\u56de\u56fd
p2282
I6
sVP
I3
sV\u73b0\u4efb
p2283
I6
sV\u516b
I6
sV\u964d\u4f4e
p2284
I9
sV\u6c83\u4f26
p2285
I3
sV\u79f0
I33
sV\u77ac\u95f4
p2286
I6
sV\u90e8\u7f72
p2287
I3
sV\u8ddf\u8e2a
p2288
I15
sV\u4e2d\u5357\u6d77
p2289
I3
sV\u597d\u51e0\u4ebf
p2290
I3
sV\u4e00\u5bf9
p2291
I3
sV\u6bd4\u8f83
p2292
I9
sV\u4f7f
I15
sV\u516b\u56fd\u8054\u519b
p2293
I3
sV\u8def\u4e0a
p2294
I39
sV\u9887
I3
sV\u5904\u7406
p2295
I6
sV2005
p2296
I3
sV\u4ec0\u4e48
p2297
I96
sV\u996d\u540e
p2298
I6
sV\u5fae\u8584
p2299
I3
sV\u800c
I87
sV\u6b64\u6b21
p2300
I6
sV\u76fc
I33
sV\u6c14
I6
sV\u5927\u7f8e\u5973
p2301
I3
sVVAS
p2302
I3
sV\u65e0\u8bba
p2303
I3
sV\u8003\u8651
p2304
I6
sV\u542f\u53d1
p2305
I6
sV\u5632\u7b11
p2306
I9
sV24
p2307
I6
sV\u9057\u4e66
p2308
I3
sV26
p2309
I18
sV\u4e0a\u8bbf
p2310
I9
sV20
p2311
I24
sV21
p2312
I3
sV\u5f7b\u5e95
p2313
I18
sV23
p2314
I6
sV\u79bb\u5a5a
p2315
I3
sV\u521b\u65b0\u578b
p2316
I9
sVactually
p2317
I3
sV\u53d7
I21
sV\u4e0d\u77e5\u6240\u4e91
p2318
I3
sV\u793c\u8282
p2319
I3
sV\u53ea\u6709
p2320
I24
sV
I3
sV\u9488\u5bf9
p2321
I3
sV\u5de5\u7a0b\u5e08
p2322
I12
sV2.
p2323
I12
sV\u4eba\u6c11\u5927\u4f1a\u5802
p2324
I3
sV\u914d\u5957
p2325
I9
sV\u738b
I3
sV\u57fa\u672c
p2326
I12
sV\u4e2d\u5c06
p2327
I3
sV\u54f2\u7406
p2328
I3
sV\u516c\u5f00
p2329
I3
sV\u4e2d\u5ba3\u90e8
p2330
I3
sV\u4e2d\u5c0f\u5b66
p2331
I6
sV\u9a6c\u4e0a
p2332
I15
sV\u674e
I12
sV\u8303\u4f1f
p2333
I3
sV\u9f99\u6587
p2334
I3
sV\u5356
I18
sV\u660e
I3
sV\u9762\u5bf9
p2335
I18
sV\u4e0a\u8bfe
p2336
I3
sV\u600e\u4e48\u529e
p2337
I3
sV\u65e5
I27
sV\u65e9\u671f
p2338
I6
sV\u51fa\u4e8b
p2339
I9
sV\u5f80
I9
sV\u6d6a
I3
sV\u51ed
I3
sV\u4fc4\u7f57\u65af
p2340
I12
sV\u6ca1\u53d1
p2341
I3
sV\u65e9
I9
sV\u62cd\u5356
p2342
I6
sV\u6d01\u767d
p2343
I6
sV\u5218\u79ef\u4ec1
p2344
I6
sV\u6fc0\u6d3b
p2345
I12
sV\u80dc\u5229
p2346
I6
sV\u6e29\u6545
p2347
I3
sV\u53eb\u597d
p2348
I3
sV\u8fdd\u6cd5
p2349
I3
sV\u4e00\u65cf
p2350
I12
sV\u51fa\u95e8
p2351
I3
sV\uff09
I114
sV\u6253\u9ad8\u5c14\u592b
p2352
I3
sV\u7ba1\u5bb6
p2353
I3
sV\u640f
I3
sV\u5c0f\u7537\u751f
p2354
I6
sV\u9ad8\u901f
p2355
I12
sV\u6536\u6746
p2356
I3
sV\u4e2d\u7f8e
p2357
I3
sV\u65cf
I3
sV\u6295\u884c
p2358
I9
sV\u63d0\u95ee
p2359
I36
sV\u8f93\u5165
p2360
I3
sV\u5f62\u8c61
p2361
I3
sV\u5f71\u7247
p2362
I3
sV\u6fc0\u6d41\u6c79\u6d8c
p2363
I3
sV\u5c3c\u91c7
p2364
I3
sV\u8001\u5468
p2365
I3
sV\u81ea\u9996
p2366
I3
sV\u641c\u5bfb
p2367
I3
sV\u603b\u5c40
p2368
I3
sV\u5f00\u5e1c
p2369
I6
sV7
I12
sVIP
p2370
I9
sV\u8f66\u7a0b
p2371
I9
sV\u4e0a\u6b21
p2372
I6
sV\u5927\u9009
p2373
I3
sV\u8fbe
I9
sV\u5341
I6
sV\u7f51\u9875
p2374
I3
sV\u6162\u6162
p2375
I6
sV\u81ea\u79f0
p2376
I6
sV\u95ee\u9898
p2377
I54
sV\u5927\u4e0d\u76f8\u540c
p2378
I3
sV\u5b8c\u6574
p2379
I18
sV\u89d2
I3
sV\u5708\u91cc
p2380
I3
sV\u9a6c\u4e91
p2381
I57
sV\u795d
I6
sV\u5e1d\u56fd
p2382
I6
sV\u7167\u76f8\u673a
p2383
I3
sV\u4e00\u5927
p2384
I6
sV\u7231\u73b0
p2385
I3
sV\u897f\u575d
p2386
I3
sV\u5f15\u9886
p2387
I3
sVEVDO
p2388
I3
sV\u5450
I3
sV\u603b\u7f16\u8f91
p2389
I3
sV\u759a
I3
sV\u533b\u751f
p2390
I3
sV\u5c3d\u529b
p2391
I6
sV\u516c\u5fb7
p2392
I3
sV\u4e00\u58f0
p2393
I6
sV\u9762\u5b50
p2394
I3
sV\u4eca\u5929
p2395
I87
sV\u63a8\u52a8\u8005
p2396
I12
sV\u597d\u50cf
p2397
I12
sV\u51a0\u519b
p2398
I3
sV\u63e1\u624b
p2399
I3
sV\u7b49\u5019
p2400
I3
sV\u3002
I1713
sV\u501f\u529b
p2401
I3
sV\u7f57
I9
sV\u4e0b\u6765
p2402
I6
sV\uff08
I117
sV\u5929\u771f\u65e0\u90aa
p2403
I3
sV\u5ba3\u4f20
p2404
I9
sV\u8f7b\u4fbf
p2405
I6
sV\u8d21\u732e
p2406
I12
sV\u65e9\u6668
p2407
I6
sV\u65e0\u4ee5
p2408
I9
sV\u53ea\u662f
p2409
I27
sV\u5f88\u7f8e
p2410
I12
sV\u6b64\u8a00
p2411
I3
sV\u6b63\u5e38
p2412
I3
sV\u5ec9\u6d01
p2413
I3
sV\u51fb\u4e0d\u57ae
p2414
I3
sV\u5de5\u5177
p2415
I3
sV\u90a3\u6837
p2416
I33
sV\u591c
I9
sV\u8bb0\u5f97
p2417
I9
sV\u5b58\u5728
p2418
I12
sV"
I30
sV\u6bd4\u8d5b
p2419
I39
sV\u7edd\u8272
p2420
I3
sV\u724c\u98ce
p2421
I3
sV\u6765\u5230
p2422
I3
sV\u4e00\u5929
p2423
I18
sV\u94f6\u884c
p2424
I3
sV\u75af
I3
sV\u810f\u5b57
p2425
I3
sV\u6b27\u7f8e
p2426
I3
sV\u60b2\u60af
p2427
I6
sV\u8fd0\u884c
p2428
I3
sV2117
p2429
I3
sV\u91cd\u6765
p2430
I3
sVRFID
p2431
I3
sVhim
p2432
I3
sV\u516c\u5e03
p2433
I21
sV\u8fdb\u519b
p2434
I3
sV\u53eb\u597d\u58f0
p2435
I3
sV\u98d8\u8fc7
p2436
I3
sV\u6167\u6839
p2437
I6
sV\u82e5\u6709\u6240\u601d
p2438
I3
sV\u9493\u4e0a\u6765
p2439
I12
sV\u4e3b\u7ba1
p2440
I3
sV7352
p2441
I3
sV\u6574\u5408
p2442
I6
sV\u90ae\u7bb1
p2443
I3
sV\u96d9
I3
sV\u9ad8\u6f6e
p2444
I3
sV10010
p2445
I3
sV\u9ad8\u67b6\u6865
p2446
I3
sV\u7ebf\u7d22
p2447
I3
sV\u7ecf\u6d4e\u5b66\u5bb6
p2448
I3
sV\u51fa\u540d
p2449
I3
sV\u80c3\u90e8
p2450
I3
sV\u8f93\u724c
p2451
I3
sV\u672c\u8d28
p2452
I9
sV\u4e00\u7968
p2453
I3
sV\u56de\u5473
p2454
I3
sV\u70ed
I3
sV\u54c8\u54c8
p2455
I36
sV\u624b\u724c
p2456
I3
sV\u5f88\u5feb
p2457
I3
sV\u73b0\u8c61
p2458
I3
sV\u5305\u5bb9
p2459
I9
sV\u751f\u8ba1
p2460
I6
sV\u515a\u5efa
p2461
I3
sV\u5927\u91cf
p2462
I12
sV\u8d77\u98de
p2463
I3
sV\u8bfb
I9
sV\u8463\u4e8b\u4f1a
p2464
I12
sV\u53d1\u8fbe\u56fd\u5bb6
p2465
I3
sV4999
p2466
I3
sV\u6f14\u5531\u4f1a
p2467
I12
sV\u4ffa\u4eec
p2468
I9
sV\u80fd\u7834
p2469
I3
sV\u5de8\u5934
p2470
I3
sV\u96c6\u4f53
p2471
I9
sV\u5584
I6
sV\u5b5d\u9053
p2472
I3
sV\u51e0\u4e2a
p2473
I18
sV\u5f88
I210
sV\u4e94\u767e\u591a\u4e07
p2474
I3
sV\u5c61\u906d
p2475
I3
sV\u6253\u64c2\u53f0
p2476
I3
sV\u5750\u7262
p2477
I3
sV\u9633\u5149
p2478
I9
sV\u544a\u8bc9
p2479
I9
sV\u5982\u679c
p2480
I45
sV\u770b\u75c5
p2481
I9
sV\u4e2d\u56fd\u5f0f
p2482
I3
sV\u95e8
I3
sV\u8425
I6
sV\u4eb2\u7231
p2483
I6
sV\u7b2c\u4e00\u5929
p2484
I3
sV\u8865\u5145
p2485
I3
sV\u677f\u7816
p2486
I6
sV\u667a\u5546
p2487
I3
sV\u767e\u89c6\u901a
p2488
I42
sV\u8003\u67e5
p2489
I6
sV\u5347\u7ea7
p2490
I9
sV\u5b66\u5230
p2491
I9
sV\u6709\u4e2a
p2492
I3
sV\u8fdb\u5165
p2493
I6
sV\u4f1f\u5927
p2494
I15
sV7500
p2495
I3
sV\u6b63\u76f4
p2496
I3
sV\u80a1\u4e1c
p2497
I3
sV\u516b\u5e74
p2498
I30
sV\u7f16\u7801
p2499
I3
sV\u4e0d\u8bba\u662f
p2500
I3
sV\u8d26\u6237
p2501
I3
sV\u6ca1\u5269
p2502
I3
sV\u4e0d\u662f
p2503
I96
sVM
I15
sV\u53ef\u89c2
p2504
I27
sV\u53ef\u89c1
p2505
I3
sV\u4e00\u79cd
p2506
I30
sV\u7b97\u6cd5
p2507
I3
sV\u5fc3\u5b58
p2508
I6
sV\u5224\u4eba
p2509
I3
sV\u85cf
I6
sV70
p2510
I6
sV\u679c\u65ad
p2511
I3
sV\u5230\u6237
p2512
I3
sV\u8fbd\u9614
p2513
I6
sV\u5bfc\u6f14
p2514
I9
sV\u5e02\u573a\u7ecf\u6d4e
p2515
I3
sV\u751f\u6b7b
p2516
I3
sV\u4e5f\u8bb8
p2517
I9
sV\u5fe0\u544a
p2518
I3
sV\u5931\u53bb
p2519
I18
sV\u51e0\u4e4e
p2520
I6
sV\u697c\u5b87\u70c8
p2521
I3
sV\u6c11\u751f
p2522
I3
sV1.579
p2523
I6
sV\u8010\u5fc3
p2524
I3
sV\u4e0d\u6613
p2525
I3
sV\u5341\u4e03\u5e74
p2526
I3
sV\u5dee\u8ddd
p2527
I3
sV\u6b7b
I6
sV\u9ad8\u5174
p2528
I6
sV\u592a\u5b50\u5976
p2529
I3
sV\u4e3a\u4ec0\u4e48
p2530
I33
sV\u7ecf\u7eac
p2531
I3
sV\u80a1\u4ef7
p2532
I6
sV\u4e8e\u662f
p2533
I12
sV\u591a\u60c5
p2534
I3
sV\u6559\u7ec3
p2535
I9
sV\u5408\u683c
p2536
I3
sV\u622a\u81f3
p2537
I3
sV\u901a\u8bdd
p2538
I3
sV\u4ecd\u7136
p2539
I3
sV\u968f\u65f6
p2540
I6
sVJJ
p2541
I3
sV\u5199
I3
sV\u5018
I3
sV\u4eba\u5bb6
p2542
I30
sV\u6d4b\u9a8c
p2543
I3
sV\u573a\u5730
p2544
I3
sV\u60a0\u7740\u70b9
p2545
I3
sV\u6ce1\u6c64
p2546
I3
sVPoor
p2547
I3
sV\u878d\u8d44
p2548
I3
sV\u955c\u5934
p2549
I3
sV\u63a5
I3
sV\u5f53\u521d
p2550
I3
sV\u8d26
I3
sV\u5c0f\u9547
p2551
I9
sV\u8087\u4e8b
p2552
I6
sV\u505a\u4e8b
p2553
I15
sV\u540c\u6837
p2554
I3
sV\u4e0d\u61c8
p2555
I3
sV\u72af
I12
sV\u6c61\u67d3
p2556
I6
sV\u8ff7\u9014
p2557
I3
sV\u4e8b\u5b9e\u4e0a
p2558
I3
sV\u63d0\u5347
p2559
I12
sV\u6536
I15
sV8
I15
sV\u7b97\u724c
p2560
I3
sV\u633a
I9
sV\u77e5\u9053
p2561
I75
sV\u89c9\u5bdf\u51fa
p2562
I3
sV\u5440
I54
sV\u592e\u884c
p2563
I6
sV\u7ec7
I6
sV\u535a\u53cb
p2564
I3
sV\u5750\u5728
p2565
I6
sV\u56e2\u7ed3\u6e56
p2566
I3
sV\u9677\u5165
p2567
I3
sV\u6c6a\u5cf0
p2568
I3
sV\u4e00\u534a\u513f
p2569
I3
sV\u8dd1
I21
sV\u751f\u6027
p2570
I3
sV\u786e\u5b9a
p2571
I6
sV\u8bd5
I15
sV\u65b0\u5e74
p2572
I3
sV\u7279\u51b7
p2573
I3
sV\u95e8\u53e3
p2574
I9
sV\u62ff\u6765
p2575
I21
sV\u535a
I72
sV\u53d1\u5230
p2576
I3
sV;
I12
sV\u8d44\u6e90
p2577
I12
sVConsider
p2578
I3
sV\u516c\u5b89\u673a\u5173
p2579
I3
sV\u5df2\u7136
p2580
I3
sV\u671f\u76fc
p2581
I3
sV\u589e\u503c
p2582
I3
sV\u7eb7\u7eb7\u6270\u6270
p2583
I6
sV\u5229\u7528
p2584
I3
sV\u536b\u58eb
p2585
I3
sV\u8868
I3
sV\u77ed
I3
sV\u7f51\u7edc
p2586
I12
sV\u5df1
I3
sV\u8bd5\u884c
p2587
I3
sV\u4e00\u5e76
p2588
I3
sV\u4e00\u5e74
p2589
I15
sV\u9519\u522b\u5b57
p2590
I3
sV\u56fd\u96be\u8d22
p2591
I3
sV\u4f58\u5c71
p2592
I3
sV\u8ffd
I3
sV\u53eb
I6
sV\u56de\u590d
p2593
I60
sV\u8865\u4e60\u73ed
p2594
I15
sV\u5305
I3
sV\u5929\u7ebf
p2595
I6
sV\u4e4b\u51a4
p2596
I3
sV\u8346\u68d8
p2597
I3
sV\u6ca1\u7528
p2598
I9
sV\u8868\u73b0
p2599
I12
sV\u4eb2\u751f
p2600
I3
sV317
p2601
I3
sV\u53f8\u673a
p2602
I12
sV\u8001\u670b\u53cb
p2603
I3
sV\u5c24\u5176
p2604
I3
sV\u674e\u51e4\u7eea
p2605
I3
sV\u5934\u4e0a
p2606
I3
sV\u6c14\u57ab
p2607
I3
sV\u606d\u559c
p2608
I12
sV\u539a
I6
sV\u51fa\u53f0
p2609
I3
sVphp
p2610
I3
sV\u9ec4
I3
sV\u8521
I3
sV\u8111\u5b50
p2611
I3
sV#
I3
sV\u56de\u53bb
p2612
I3
sV\u5e73\u677f
p2613
I3
sV\u4e4b\u5185
p2614
I9
sV\u53d1\u52a8\u673a
p2615
I6
sV\u68a8
I12
sV\u542b
I15
sV\u4e00\u822c
p2616
I3
sV\u6653\u5f97
p2617
I3
sVTCP
p2618
I3
sV\u771f\u662f
p2619
I6
sVBil
p2620
I3
sV\u8001\u5e08
p2621
I24
sV\u594b\u529b
p2622
I3
sV\u53c2\u4e0e
p2623
I36
sV\u6743\u76ca
p2624
I3
sV\u7559\u4e0b
p2625
I3
sV\u5b89\u629a
p2626
I3
sV\u5345
I3
sV\u5c31\u7b97
p2627
I3
sV\u5dee\u8fdc\u4e86
p2628
I3
sV\u515a\u652f\u90e8
p2629
I3
sVCCTV
p2630
I3
sV\u524d\u666f
p2631
I6
sV\u8db3\u7403\u6bd4\u8d5b
p2632
I3
sV\u62db\u5f00
p2633
I3
sV\u7ec8\u4e8e
p2634
I18
sV\u51fa\u53bb
p2635
I9
sV\u59a5
I6
sVBAZAAR
p2636
I6
sV\u51fa\u73b0
p2637
I12
sV\u5021\u5bfc
p2638
I6
sV\u7ef4\u6301
p2639
I6
sV\u79c1\u4fe1
p2640
I9
sV\u53d6\u4ee3
p2641
I3
sV\u5e78\u798f
p2642
I33
sV\u4e5d\u9633
p2643
I9
sV\u7a83\u542c
p2644
I6
sV\u7434\u745f\u548c\u9e23
p2645
I3
sV\u590d\u8f99
p2646
I6
sV\u53ef\u4ee5
p2647
I105
sV\u4e0a\u6d77
p2648
I15
sV\u526f
I6
sV\u697c
I3
sVSteve
p2649
I3
sV\u7ec8\u8eab
p2650
I6
sV\u516d\u70b9\u534a
p2651
I3
sV\u5341\u5e74
p2652
I9
sV\u611f\u6069
p2653
I6
sV\u65f6
I66
sVing4
p2654
I3
sV\u8001\u7238
p2655
I12
sV\u4e0a\u6d77\u5e02
p2656
I3
sV\u7b80\u76f4
p2657
I3
sV.7.0
p2658
I9
sV\u90a3\u4e2a
p2659
I12
sV\u597d\u591a\u5e74
p2660
I3
sV\u5076
I3
sV\u6653\u9e3d
p2661
I3
sV\u5c06
I123
sV\u9876\u90e8
p2662
I3
sV\u5982\u610f
p2663
I3
sV\u4fe1\u606f
p2664
I30
sV\u600e
I3
sV.9.1
p2665
I3
sV\u96c6\u5408
p2666
I3
sV\u51cc\u65e5
p2667
I6
sV\u72b6\u51b5
p2668
I3
sV\u4e0d\u60f3
p2669
I3
sV\u91d1\u878d\u8d44\u4ea7
p2670
I3
sV\u4e0d\u80fd
p2671
I51
sV\u521a
I63
sV\u51fa\u724c
p2672
I3
sV\u4e00\u5f20
p2673
I3
sV\u51fa\u7248
p2674
I3
sV\u73ed\u957f
p2675
I3
sV\u70e4\u8089
p2676
I3
sV\u56de\u5230
p2677
I3
sV\u5230\u8fbe
p2678
I3
sV\u8d77\u5e8a
p2679
I3
sV\u73af
I3
sV\u591a\u5c11
p2680
I9
sV\u80e1\u5b50
p2681
I6
sV\u865f
I3
sV\u4eab\u5e74
p2682
I3
sV\u7a7a\u6c14\u6c61\u67d3
p2683
I3
sVpi
p2684
I3
sV\u9053\u7406
p2685
I15
sV\u8981\u4f7f
p2686
I3
sV\u63d0\u524d
p2687
I3
sV\u54c1
I3
sV\u63d0\u5230
p2688
I18
sV\u897f\u5b89
p2689
I3
sV\u5408\u4f5c
p2690
I6
sV\u94c1\u6746
p2691
I3
sV\u300d
I6
sV\u4e0d\u80af
p2692
I3
sV\u8f6c\u4e0d
p2693
I3
sV\u653f\u7b56
p2694
I24
sVN
I9
sV\u8d23\u4efb
p2695
I9
sV\u6e05\u83ef
p2696
I9
sV\u6743\u9759
p2697
I3
sV\u53d7\u4f24
p2698
I6
sV\u70d9
I6
sV\u717d\u98ce\u70b9\u706b
p2699
I3
sV\u83b7\u5956\u8005
p2700
I3
sV\u884c\u9a76
p2701
I12
sV\u6709\u610f\u601d
p2702
I15
sV\u7f3a\u4e4f
p2703
I12
sV\u82e5
I3
sV\u4e94\u6bdb
p2704
I9
sV\u9a84\u50b2
p2705
I3
sV\u9646\u5146\u79a7
p2706
I3
sV\u5356\u6deb
p2707
I3
sV\u53ef
I33
sVsnapple
p2708
I3
sV\u5f71\u9662
p2709
I6
sV\u505c\u6b62
p2710
I6
sV\u6cbb\u7406
p2711
I3
sV\u51f6\u591a\u5409\u5c11
p2712
I6
sV\u65e0\u6cd5
p2713
I12
sV\u7ef4\u62a4
p2714
I3
sV\u5f00\u51fa
p2715
I9
sV\u4e1a\u754c
p2716
I12
sV\u5929\u6d25
p2717
I6
sV\u5f88\u591a
p2718
I78
sV07
p2719
I6
sV\u6380\u5f00
p2720
I3
sV\u6b72
I3
sV\u6cd5\u6cbb
p2721
I3
sV\u609f\u51fa
p2722
I9
sV\u5e7f\u7535
p2723
I21
sV\u7b11\u4e00\u7b11
p2724
I3
sV\u8bfe\u95f4
p2725
I3
sV\u540c\u8f74\u7535\u7f06
p2726
I3
sV\u63a5\u7740
p2727
I33
sV\u7ade\u4e89
p2728
I6
sV\u6000\u7591
p2729
I27
sV\u591a\u8c22
p2730
I6
sV\u535a\u521a
p2731
I3
sV\u6536\u83b7
p2732
I6
sV\u5c31\u884c\u4e86
p2733
I6
sV\u77ed\u671f
p2734
I3
sVYING
p2735
I6
sV\u8fc7\u7a0b
p2736
I12
sV\u6570\u91cf
p2737
I9
sV\u4e94\u6b21
p2738
I6
sV\u5171
I3
sV\u751f\u6d3b
p2739
I45
sV\u4e00\u7fa4
p2740
I3
sV\u5750\u8c08\u4f1a
p2741
I6
sV\u4eca\u5e74
p2742
I6
sV\u66f9\u603b
p2743
I3
sV\u522b\u7684
p2744
I3
sV\u731b\u7a3f
p2745
I3
sV\u4eb2\u543b
p2746
I3
sV\u90a3\u4e9b
p2747
I18
sV\u79d1\u6280
p2748
I3
sV\u7ed3\u5408
p2749
I21
sV\u5b8c\u6210
p2750
I15
sV9
I9
sV\u751f\u706b
p2751
I3
sV\u524d\u671f
p2752
I3
sV\u5fc3\u75c5
p2753
I3
sV\u5f88\u5927
p2754
I15
sV\u56db\u5904
p2755
I3
sV3.
p2756
I12
sV\u524d\u6765
p2757
I3
sV\u53ea\u80fd
p2758
I15
sV\u5143
I33
sV\u5b9e\u529b
p2759
I3
sV\u4e2d\u5c0f\u5b66\u751f
p2760
I3
sV\u8986\u76d6\u7387
p2761
I6
sV\u540e\u9762
p2762
I3
sV\u5b89\u6392
p2763
I12
sV\u63a2\u8ba8
p2764
I12
sV\u4e0d\u6028
p2765
I3
sV\u5468\u56f4
p2766
I3
sV\u9886\u57df
p2767
I3
sV\u62ff\u5230
p2768
I9
sV\u6ee1\u8db3
p2769
I9
sV\u80a1\u5e02
p2770
I3
sV\u6bd4
I39
sV\u90a3\u4efd
p2771
I3
sV\u7238\u5988
p2772
I3
sV\u7f8e\u8c8c
p2773
I3
sV\u53cd\u5bf9
p2774
I33
sV\u98de
I3
sV\u8ffd\u6355
p2775
I3
sV\u65e0
I9
sV\u5854\u5a1c
p2776
I6
sV\u672c\u6765
p2777
I12
sV\u52aa\u529b
p2778
I21
sV\u6768\u5fd7
p2779
I3
sV\u4e00\u5feb
p2780
I3
sV\u5389\u5bb3
p2781
I3
sV\u6253\u62d0
p2782
I3
sV\u8f6c\u8eab
p2783
I3
sV\u9f99\u5e74
p2784
I3
sV\u4e0d\u6015
p2785
I3
sV\u8e29
I3
sV\u5269\u4e0b
p2786
I3
sV\u5728\u4e8e
p2787
I12
sV\u7535\u52a8
p2788
I3
sV\u519b\u5de5
p2789
I1
sV\u611f\u6168
p2790
I3
sV\u51b2\u5929
p2791
I3
sV\u4e00\u8282\u8bfe
p2792
I3
sV\u732b
I3
sV\u6bcd\u6027
p2793
I3
sV\u6de1\u6cca
p2794
I3
sV\u5185
I21
sV\u52a9\u529b\u8f66
p2795
I3
sV\u6536\u5230
p2796
I3
sV\u8fd9\u4e48
p2797
I48
sV\u6491\u6b7b
p2798
I3
sV\u623f\u95f4
p2799
I3
sV\u4e00\u9879
p2800
I6
sV\u540c\u4e8b
p2801
I9
sV\u848b\u82f1
p2802
I6
sV\u53d1\u6325
p2803
I9
sV\u58eb\u6c14
p2804
I3
sV\u53d1\u5c55\u524d\u666f
p2805
I3
sV\u7518\u5f53
p2806
I3
sV\u795d\u4f60\u597d\u8fd0
p2807
I3
sV\u6211\u4eec
p2808
I177
sV\u963f\u51e1
p2809
I3
sV\u5df4\u56fe
p2810
I9
sV\u53d8\u4e3a
p2811
I3
sV\u4e0d\u542b\u7a0e
p2812
I3
sV\u4e24\u4f4d
p2813
I9
sV\u633d\u6551
p2814
I6
sV$
I3
sV\u8ba9
I66
sV\u542c
I9
sV\u800c\u6709
p2815
I6
sV\u83b7\u5956
p2816
I9
sV\u963f\u91cc
p2817
I6
sV\u7834
I3
sV\u597d\u5403
p2818
I33
sV\u751f\u4ea7
p2819
I3
sVapp
p2820
I6
sV\u54ed\u7b11\u4e0d\u5f97
p2821
I3
sV\u6b3e
I3
sV\u540c\u5b66
p2822
I12
sV...
p2823
I36
sV\u5f88\u9ad8
p2824
I3
sV\u5fc3\u7ecf
p2825
I3
sV\u8def\u8fb9
p2826
I6
sV\u4e03\u500d
p2827
I9
sV\u518d\u6765\u4e00\u4e2a
p2828
I3
sV\u60f3\u60f3\u4e5f\u662f
p2829
I3
sV\u86cb
I3
sV\u5224\u7ed9
p2830
I3
sV\u91cc\u8fb9
p2831
I3
sV\u558a\u9053
p2832
I3
sV\u8fd9\u91cc
p2833
I3
sV\u4e50
I12
sV\u8d62
I6
sV\u76ee\u51fb\u8005
p2834
I3
sV\u8d28\u7591
p2835
I3
sVTD
p2836
I27
sV\u9707\u52a8
p2837
I3
sV\u515a
I6
sV\u843d\u5165
p2838
I3
sV\u6562
I9
sV\u5e2e\u8f6c
p2839
I3
sVd
I3
sV\u4e0d\u89c1\u5f97
p2840
I3
sV\u8f66
I3
sV\u95ed
I3
sV\u603b\u989d
p2841
I6
sV\u7535\u89c6\u5267
p2842
I3
sV\u8f70\u52a8\u6548\u5e94
p2843
I3
sV\u957f\u57ce
p2844
I9
sV\u9690\u79c1
p2845
I6
sV\u4e24\u4f1a
p2846
I12
sV106
p2847
I3
sV\u8fd9\u513f
p2848
I6
sV\u547c\u5401
p2849
I3
sV\u522b\u4eba
p2850
I51
sV\u6f58\u91d1\u83b2
p2851
I6
sV\u4ee5\u5916
p2852
I3
sVOS
p2853
I3
sV\u642c
I3
sV\u4f46\u662f
p2854
I36
sV\u7f8e\u5143
p2855
I6
sV\u76ca\u6559
p2856
I3
sV\u519c\u6751
p2857
I6
sV\u63d0\u51fa
p2858
I3
sV\u7ffb\u8bd1
p2859
I3
sV\u811a\u75db
p2860
I6
sV\u5c0f\u9ed1\u70b9
p2861
I3
sV\u6765\u6362
p2862
I3
sV\u540e\u5988
p2863
I6
sV\u516c\u5bd3
p2864
I3
sV\u5417
I132
sV2999
p2865
I3
sV\u89e3\u653e
p2866
I39
sV\u8d24\u54f2
p2867
I9
sV\u5de8\u5927
p2868
I30
sV\u5b9e
I3
sV\u5927\u8fc7\u5e74
p2869
I3
sV\u5de5\u4e1a\u9769\u547d
p2870
I3
sV\u8ffd\u601d
p2871
I3
sV\u5de8\u661f
p2872
I3
sV\u907f\u7978
p2873
I3
sV\u58f6\u91cc
p2874
I3
sV\u820d\u5f97
p2875
I9
sV\u731c
I12
sV\u63a8\u4e4b
p2876
I3
sV\u7a33
I3
sVB7
p2877
I15
sV\u516c\u52a1\u5458
p2878
I3
sV\u8428\u62c9\u8428\u8482
p2879
I6
sV\u597d\u6781\u4e86
p2880
I12
sV\u8df5\u884c
p2881
I6
sV\u5927\u5409
p2882
I3
sV\u76d1\u72f1
p2883
I6
sV\u8017\u8d44
p2884
I3
sV\u52a0\u5927
p2885
I9
sV\u7b49
I39
sV\u5947\u8c08\u602a\u8bba
p2886
I3
sV\u521b\u9020\u529b
p2887
I6
sV\u6c34\u6d52
p2888
I3
sV\u81ea\u5df1
p2889
I108
sV\u81ea\u5df2
p2890
I6
sV\u5e72\u561b
p2891
I6
sV\u57ce\u9547\u4eba\u53e3
p2892
I3
sV\u5fe7\u6124
p2893
I3
sV\u4f1a\u8bae\u5ba4
p2894
I3
sV\u8bc6\u65f6\u52a1
p2895
I3
sV\u5457
I18
sV\u4e5f\u4e86
p2896
I3
sV\u5175\u52c7
p2897
I3
sV\u89c2\u770b
p2898
I3
sV\u4e3b\u5e2d
p2899
I12
sV\u5f20\u56fd\u7acb
p2900
I3
sV\u6761
I9
sV\u8df3\u51fa
p2901
I3
sV\u6beb\u65e0
p2902
I6
sV\u90ca\u533a
p2903
I3
sV\u9a6c\u7532
p2904
I3
sV\u2026
I39
sV\u5e55\u524d
p2905
I3
sV\u53a8\u5e08
p2906
I3
sV\u5df2
I21
sV\u5185\u5bb9
p2907
I24
sV\u6d88\u606f
p2908
I9
sV\u8001\u5f31\u75c5\u6b8b
p2909
I3
sV\u589e\u52a0
p2910
I42
sV\u74f6\u88c5
p2911
I3
sV\u5dc5\u5cf0
p2912
I3
sV\u9ec4\u91d1\u65f6\u4ee3
p2913
I3
sV\u552e\u4ef7
p2914
I3
sV\u9700
I3
sV\u5e2e\u4e0a
p2915
I3
sV\u6709\u4e8b\u6ca1\u4e8b
p2916
I3
sV\u800c\u662f
p2917
I6
sV\u81f3\u5c11
p2918
I9
sV\u4eba\u7c7b
p2919
I18
sV\u5f53\u7136
p2920
I6
sV\u91cd\u632b
p2921
I3
sV\u8bc1\u660e
p2922
I9
sV\u6b64\u4e3e
p2923
I3
sV\u5931\u6389
p2924
I3
sV\u4e4b\u7236
p2925
I9
sV\u8bb0\u8005
p2926
I3
sV\u6211\u4fe9
p2927
I9
sV\u4eba\u8eab\u81ea\u7531
p2928
I3
sV\u60f3\u5f00
p2929
I6
sV\u5a01\u4eea
p2930
I3
sV\u90ae\u7535
p2931
I3
sV\u63a8\u8fdb
p2932
I3
sV\u793e\u4f1a
p2933
I24
sV\u4f01\u4e1a
p2934
I27
sV\u843d\u7f51
p2935
I9
sV\u8fdb\u5c55
p2936
I6
sV..
p2937
I3
sV\u4e2d\u996d
p2938
I6
sV\u654f\u9510
p2939
I3
sV\u6301\u7eed
p2940
I6
sV\u7ec8\u7a76
p2941
I3
sV\u606a\u5b88
p2942
I6
sV\u5934
I3
sV\u5e38\u5e38
p2943
I3
sV.0
p2944
I3
sV^
I12
sV:
I735
sV.5
p2945
I30
sV\u8d44\u6df1
p2946
I6
sV\u7740
I24
sV\u85d0\u89c6
p2947
I3
sV\u4e24\u4e2a
p2948
I15
sV\u6210\u957f
p2949
I3
sV\u4eba\u58eb
p2950
I3
sV\u5907\u4efd
p2951
I3
sV\u8fdb\u4eac
p2952
I9
sV\u826f\u5fc3
p2953
I6
sV\u7528\u6237
p2954
I60
sV\u50a8\u5b58\u91cf
p2955
I3
sV\u5e94\u8bd5\u6559\u80b2
p2956
I3
sV\u7403\u4f1a
p2957
I3
sV\u8fd8\u7ed9
p2958
I3
sV\u4e00\u51b3\u80dc\u8d1f
p2959
I3
sV\u611f\u8c22\u60a8
p2960
I3
sV\u770b\u7834
p2961
I6
sV\u4e0d\u597d\u73a9
p2962
I3
sV\u6350\u52a9
p2963
I9
sV\u7814\u7a76\u9662
p2964
I3
sVGDP
p2965
I3
sV\u9986\u9676\u53bf
p2966
I3
sV\u8033\u8fb9
p2967
I3
sV\u5916\u4ea4
p2968
I6
sV\u4efb\u4f55
p2969
I24
sV\u4e66
I3
sV\u80cc\u540e
p2970
I6
sVut
p2971
I6
sV\u671f\u95f4
p2972
I18
sV....
p2973
I15
sV\u63d0\u901f
p2974
I6
sV\u4e4b\u524d
p2975
I3
sV\u9519\u8bef
p2976
I3
sV\u738b\u6893
p2977
I6
sV\u5927\u75c5
p2978
I6
sV\u79bb\u5f00
p2979
I21
sV\u7adf\u7136
p2980
I3
sViPAD2
p2981
I3
sV\u6bd5\u4e1a\u5178\u793c
p2982
I6
sV\u6094
I3
sV\u5355\u7ebf
p2983
I6
sV\u542f\u793a
p2984
I3
sV\u8001\u5144
p2985
I3
sV\u73a9\u513f
p2986
I3
sV\u6559\u6388
p2987
I3
sV\u53d6\u6d88
p2988
I3
sV\u8c03\u63a7
p2989
I3
sV\u5168\u65b0
p2990
I15
sV\u770b\u4e0d\u6e05
p2991
I12
sV\u6279\u8bc4
p2992
I3
sV\u4e13\u95e8
p2993
I12
sV\u81ea\u5bfc\u81ea\u6f14
p2994
I3
sV\u803b
I3
sV\u5219
I9
sV\u7c89\u4e1d
p2995
I21
sV\uff1b
I102
sV\u4f53\u80b2\u8bfe
p2996
I3
sV\u591f
I9
sV\u771f\u8bda
p2997
I3
sV\u6539\u5199
p2998
I9
sV%
I72
sV\u795d\u9e70
p2999
I3
sV\u4e3e\u529e
p3000
I9
sV\u4ea6
I6
sV\u7279\u5f81
p3001
I3
sV\u9ad8\u5cf0\u8bba\u575b
p3002
I6
sV\u7814\u7a76\u4f1a
p3003
I3
sV\u6269\u5c55
p3004
I3
sV\u65e0\u4e0d
p3005
I3
sV\u6c47\u63a5
p3006
I3
sV\u501f
I3
sV\u5367\u5ba4
p3007
I3
sV\u5c16\u513f
p3008
I9
sV\u80a1\u7968
p3009
I3
sV\u5b63\u8282
p3010
I3
sV\u5168\u6587
p3011
I3
sV\u8e66\u51fa\u6765
p3012
I3
sV\u72ec\u7279
p3013
I3
sV\u4e0d\u80fd\u4e0d
p3014
I3
sV\u6d3b\u5230
p3015
I3
sV\u4e0a\u4e58
p3016
I3
sV\u8054\u5408
p3017
I9
sV\u521a\u4e0a
p3018
I3
sVStanford
p3019
I6
sV\u5bf9\u8c61
p3020
I3
sVMike
p3021
I3
sV\u652f\u6301
p3022
I75
sV\u6b4c
I9
sV\u5bbd\u5e26
p3023
I33
sV\u54ea\u4e2a
p3024
I3
sV\u4e0d\u7b97
p3025
I3
sVTNC
p3026
I6
sV\u7279\u70b9
p3027
I3
sV\u540d\u5b58\u5b9e\u4ea1
p3028
I3
sV\u53d8
I3
sV\u6bcf\u5e74
p3029
I3
sV\u5f71\u54cd
p3030
I12
sV\u70b9\u7834
p3031
I3
sV\u6e38\u620f
p3032
I9
sV\u665a\u996d
p3033
I3
sV\u62dc\u5e74
p3034
I66
sV\u7ade\u4e89\u5bf9\u624b
p3035
I3
sV\u8e22\u7403
p3036
I9
sV\u8bd5\u8bd5
p3037
I39
sVWCDMA
p3038
I45
sV\u8d85\u7ea7
p3039
I3
sV\u6211\u4f1a
p3040
I6
sV\u53d1\u5c04\u529f\u7387
p3041
I3
sV\u56fd\u9645
p3042
I12
sV2000
p3043
I6
sV\u674e\u519b
p3044
I3
sV2006
p3045
I24
sV\u5f00\u53d1\u5546
p3046
I3
sV\u5243\u5149\u5934
p3047
I3
sV\u6279
I3
sV2009
p3048
I3
sV\u6e29\u60c5
p3049
I3
sVhello
p3050
I6
sV\u674e\u4e1c\u751f
p3051
I12
sV\u9002\u5f53
p3052
I9
sVCPI
p3053
I3
sV\u65e9\u5df2
p3054
I3
sV\u4e00\u5207
p3055
I6
sV\u53bb\u5e74
p3056
I15
sV\u4efb\u603b
p3057
I3
sV\u5408
I3
sV\u7535\u7f51
p3058
I3
sV\u732e\u4e0a
p3059
I3
sV\u611f\u6168\u4e07\u5343
p3060
I6
sV\u4e1c\u5347
p3061
I9
sV\u76f8\u4eff
p3062
I3
sV\u6dd8\u5b9d
p3063
I6
sV\u86ee\u5b50
p3064
I18
sV\u5c18
I9
sV\uff1a
I324
sV\u65e0\u61be
p3065
I3
sVCPU
p3066
I3
sV\u6c42\u5a5a
p3067
I3
sV\u5b98\u5458
p3068
I3
sV\u5546\u4e1a\u6a21\u5f0f
p3069
I3
sV\u603b\u76d1
p3070
I3
sV\u5bd3\u6559\u4e8e\u4e50
p3071
I3
sV\u4e24
I6
sV\u6545\u5bab
p3072
I3
sV\u6240\u4ee5
p3073
I9
sV\u9759\u5fc3
p3074
I27
sV\u6765\u81ea
p3075
I3
sV\u7535\u5f71
p3076
I12
sV\u724c\u53cb
p3077
I3
sV\u706b\u7bad
p3078
I3
sV\u5956\u52b1
p3079
I3
sV\u56db\u5b63\u5ea6
p3080
I3
sV\u79d8\u4e66\u957f
p3081
I6
sV\u4e00\u4e0b
p3082
I90
sV\u5b9e\u4e8b\u6c42\u662f
p3083
I3
sV\u4e00\u523b
p3084
I6
sV\u5927\u8dc3\u8fdb
p3085
I3
sV\u56e2\u961f
p3086
I27
sV\u5e0c\u671b
p3087
I30
sV\u7eb3\u5165
p3088
I3
sV\u653e
I6
sV\u5f00\u5c55
p3089
I12
sV\u706b\u8f66
p3090
I3
sV\u6d77\u53e3
p3091
I3
sV\u5927\u5408\u5531
p3092
I3
sV\u6307\u5411
p3093
I6
sV\u4e0a\u80fd
p3094
I3
sV\u6210\u529f\u7387
p3095
I3
sV\u56de\u5f52
p3096
I6
sV\u505a\u4e3b
p3097
I3
sV\u4e0d\u6da8
p3098
I6
sV\u5f53\u5e74
p3099
I33
sV\u6050
I6
sV\u6d77\u53e3\u5e02
p3100
I3
sV\u4e00\u5207\u90fd\u5728
p3101
I12
sV\u5e26\u52a8
p3102
I6
sV\u8d85\u7ea7\u5927\u56fd
p3103
I3
sV\u65b0\u4e13\u8f91
p3104
I6
sV\u7b2c\u56db
p3105
I9
sV\u4e0b\u8c03
p3106
I3
sV\u629b\u5f03
p3107
I3
sVBill
p3108
I6
sV\u6218\u6597\u673a
p3109
I3
sV\u9ad8\u7aef
p3110
I6
sV\u770b\u770b
p3111
I21
sV\u9a6c
I3
sV\u7edf\u4e00
p3112
I3
sV\u6148\u60b2
p3113
I6
sV\u5145\u5b9e
p3114
I3
sV\u4f55\u6653\u82b3
p3115
I9
sV?
I60
sV\u5229\u534e
p3116
I6
sV\u65b0\u6d6a
p3117
I27
sV\u65f6\u5019
p3118
I39
sV\u8bfe\u5802
p3119
I3
sV\u5bb6\u5177
p3120
I3
sV\u9875\u9762
p3121
I12
sV\u661f\u671f
p3122
I3
sV\u535a\u5f08
p3123
I3
sV\u601d\u8003
p3124
I9
sV\u5207
I6
sV\u5341\u5206
p3125
I9
sV\u9488
I3
sV\u4f11\u517b
p3126
I3
sV\u83ab\u5609\u4e50
p3127
I3
sV\u5e76\u7528
p3128
I6
sV\u575a\u6301
p3129
I15
sV\u8d22\u5e74
p3130
I3
sV\u4e3a\u96be
p3131
I3
sV\u6392
I3
sV\u8eab\u5f3a\u529b\u58ee
p3132
I3
sV\u6bcd\u4eb2
p3133
I12
sV\u827a\u672f\u4f5c\u54c1
p3134
I3
sV\u76d2\u996d
p3135
I3
sV\u5750\u7968
p3136
I3
sV\u514d\u8d39
p3137
I9
sV\u63a5\u5730
p3138
I3
sV\u5b50
I6
sV\u5df4\u987f
p3139
I3
sV\u56fd\u5916
p3140
I3
sV\u4e3b\u7ba1\u90e8\u95e8
p3141
I3
sV\u4ea4
I3
sV\u5931\u58f0
p3142
I3
sV\u6709\u65f6\u5019
p3143
I3
sV\u67aa
I6
sV\u8d85\u51e1
p3144
I3
sV\u4e9a\u4fe1
p3145
I3
sV\u623f\u5b50
p3146
I6
sV\u8f85\u5bfc
p3147
I3
sVUt
p3148
I3
sV\u4e2d\u56fd
p3149
I348
sV\u597d\u4e45\u6ca1
p3150
I3
sV\u603b
I105
sV\u64d2\u4f4f
p3151
I3
sV\u5c4f\u5e55\u663e\u793a
p3152
I3
sV\u611f\u8c22
p3153
I21
sV\u5c0f\u59d0
p3154
I3
sV\u7a7a\u65e0\u4e00\u4eba
p3155
I3
sV\u5224\u65ad
p3156
I6
sV\u591f\u545b
p3157
I3
sV\u8bf7
I84
sV\u9738\u738b
p3158
I3
sV\u54c8
I27
sV\u8305\u8001
p3159
I3
sV\u60a3
I3
sV\u4f60\u4eec
p3160
I27
sV\u5a1f\u5b50
p3161
I9
sV\u4e0d\u8d35
p3162
I3
sV\u4e0d\u51c6
p3163
I3
sV\u738b\u7ef4
p3164
I15
sV\u8f6f\u4ef6
p3165
I3
sV\u5230\u624b
p3166
I6
sV\u56de\u5fc6
p3167
I3
sV\u5468\u671f
p3168
I18
sV39
p3169
I3
sV38
p3170
I30
sV\u4ee4
I3
sV\u6267
I3
sV\u81f4\u764c\u7269\u8d28
p3171
I9
sV31
p3172
I3
sV30
p3173
I9
sV\u81ea\u95ee
p3174
I3
sV35
p3175
I6
sV\u51a0\u540d
p3176
I3
sV\u6cd5\u62c9\u5229
p3177
I3
sV\u5c0f\u599e
p3178
I3
sV\u5f00\u53d1
p3179
I15
sV\u5c31\u662f
p3180
I114
sV\u62a5\u544a\u4f1a
p3181
I3
sVctc
p3182
I3
sV\u6251\u514b
p3183
I9
sV\u4ffa
I24
sV\u62fc
I6
sV\u54bd\u4e0b
p3184
I3
sV\u518d\u5b9a
p3185
I3
sV\u76f8\u5f53
p3186
I3
sV\u5927\u5bb6
p3187
I111
sV\u6f14\u793a
p3188
I9
sV\u5f04
I3
sV\u8b66\u65b9
p3189
I6
sV\u4e11\u95fb
p3190
I6
sV\u76f8\u4fe1
p3191
I12
sV\u516c\u544a
p3192
I3
sV\u5c55\u73b0
p3193
I3
sV\u8981\u6c42
p3194
I18
sV\u9014\u4e2d
p3195
I6
sV\u4e0b\u6d77
p3196
I3
sV\u7b97
I9
sV\u9ad8
I9
sV\u98ce\u96e8\u65e0\u963b
p3197
I3
sV\u5e05
I3
sV\u5f3a\u70c8\u63a8\u8350
p3198
I3
sV\u5199\u4e0b
p3199
I3
sV\u541e
I3
sV\u58f0\u97f3
p3200
I3
sV\u9891\u9053
p3201
I24
sV\u53cd\u7701
p3202
I3
sV\u9e1f\u4eba
p3203
I3
sV\u80e1\u4e3b\u5e2d
p3204
I3
sV&
I6
sV\u65f6\u5149
p3205
I3
sV\u53ca\u65f6
p3206
I3
sV\u5730\u70b9
p3207
I3
sV\u80fd\u529b
p3208
I12
sV\u676f\u9152
p3209
I3
sV\u7167\u7247
p3210
I33
sV\u89c1\u5230
p3211
I6
sV\u53d1\u8fbe
p3212
I3
sV\u589e\u591a
p3213
I9
sV\u7ecf\u6d4e\u6760\u6746
p3214
I3
sV\u5f97\u5230
p3215
I3
sV\u6cb9
I3
sV\u9996\u6279
p3216
I3
sV\u4e3a
I90
sV\u670d\u52a1
p3217
I30
sV\u51fa\u5e2d
p3218
I9
sV\u771f\u8bdd
p3219
I3
sV\u5e72
I12
sV\u5fc3\u91cc
p3220
I6
sV\u4e00\u534a
p3221
I9
sV\u8bb2\u8bdd
p3222
I3
sV\u521b\u59cb\u4eba
p3223
I9
sV\u7f3a\u5e2d
p3224
I3
sV\u638f\u4e0d
p3225
I3
sV\u8fd8\u8981
p3226
I3
sV\u5c0f\u7075\u901a
p3227
I36
sV\u5df2\u5c06
p3228
I3
sV\uff0f
I6
sV\u8f6c\u6210
p3229
I9
sV\u5973\u5a7f
p3230
I3
sV\u4fdd\u6709
p3231
I3
sV\u738b\u7389\u9501
p3232
I12
sV\u5b66\u95ee
p3233
I6
sVhad
p3234
I3
sV\u3011
I60
sV\u4f1a\u8bae
p3235
I6
sV\u4ee5
I36
sV\u8d23\u4efb\u611f
p3236
I3
sV\u7b2c\u4e00\u5468
p3237
I3
sV\u6ee1\u610f
p3238
I3
sV\u663e\u8457
p3239
I3
sV\u5192\u5145
p3240
I3
sV\u5f52\u8def
p3241
I3
sV\u571f\u751f\u571f\u957f
p3242
I3
sV\u8bed\u97f3
p3243
I6
sVUT
p3244
I117
sV\u725b\u54c7
p3245
I3
sV\u7f51\u53cb
p3246
I3
sV\u54c8\u54c8\u54c8
p3247
I15
sV\u7ecf\u6d4e\u4f53
p3248
I6
sV\u975e\u6cd5
p3249
I3
sV\u81ea\u7136\u8d44\u6e90
p3250
I6
sV0.8
p3251
I3
sV\u7cbe\u7f8e\u58c1\u7eb8
p3252
I9
sV\u4e0d\u8c61
p3253
I39
sV\u7b2c\u4e09\u6761
p3254
I3
sV\u8d22\u62a5
p3255
I3
sV\u9020\u8c23
p3256
I9
sV\u4e0b\u8dea
p3257
I3
sV\u56de\u5e94
p3258
I12
sV\u6f0f
I6
sV\u89c2\u6d4b
p3259
I3
sV\u751f\u610f
p3260
I9
sV\u8fdc\u5904
p3261
I3
sV\u81ea\u52a8
p3262
I6
sV\u4e00\u74f6
p3263
I3
sV\u4f0a\u4f0a
p3264
I3
sV\u597d\u5ba2
p3265
I3
sV\u771f
I30
sVWireless
p3266
I12
sV\u9192\u9192
p3267
I3
sV\u7c7b\u4f3c
p3268
I6
sV\u73fe\u91d1
p3269
I3
sV\u6df1\u523b
p3270
I6
sV\u5b66\u751f
p3271
I18
sV\u52b2
I3
sV\u67f3\u6697\u82b1\u660e
p3272
I3
sV\u6536\u8fbe
p3273
I3
sV\u540c\u5c45\u4e00\u5ba4
p3274
I3
sV\u56db\u5927
p3275
I3
sV\u4eba
I351
sV\u8bb0\u4e0b
p3276
I3
sV\u4e0a\u5468\u672b
p3277
I3
sV\u5927\u591a\u6570
p3278
I3
sV\u79c0
I3
sV\u65e0\u7a77\u7684
p3279
I3
sVWifi
p3280
I3
sV\u516c\u7acb\u5b66\u6821
p3281
I3
sV\u5979\u4eec
p3282
I3
sV\u4e0d\u8c22
p3283
I6
sV\u4e4b\u6bd4
p3284
I3
sV\u4e13\u5bb6
p3285
I21
sV\u95ee\u6e05
p3286
I3
sVQ
I30
sV\u5927\u5b66
p3287
I9
sV\u8c31
I3
sV\u515a\u5458
p3288
I6
sV\u5b57
I6
sV\u73cd\u60dc
p3289
I3
sV\u4ebf\u7f8e\u5143
p3290
I33
sV\u9662\u957f
p3291
I6
sV\u5929\u4eae
p3292
I3
sV\u8001\u5f1f
p3293
I3
sV\u5ba2\u6237\u7aef
p3294
I21
sV\u5bf9\u624b
p3295
I3
sV\u4e43\u81f3\u4e8e
p3296
I3
sV\u4fee\u70bc
p3297
I6
sV\u4e00\u53e5
p3298
I9
sV\u9886\u5bfc
p3299
I15
sV\u773c\u775b
p3300
I3
sV\u4e00\u73ed
p3301
I3
sV\u6210\u4e8b\u5728\u5929
p3302
I3
sV\u7389\u67f1
p3303
I9
sV\u5ba2\u6237
p3304
I30
sV\u53f7\u89d2
p3305
I3
sV\u540c\u5b66\u4eec
p3306
I3
sV\u7ef4\u751f
p3307
I6
sV\u5b66\u4f1a
p3308
I6
sV\u771f\u6b63
p3309
I18
sV\u5c0f\u6c7d\u8f66
p3310
I3
sV\u8ba4\u53ef
p3311
I3
sV\u7279\u522b
p3312
I9
sV\u56fd\u5bb6
p3313
I18
sV\u4e0d\u4fe1
p3314
I6
sV\u786e\u5b9e
p3315
I18
sV\u5c0f\u5b66
p3316
I21
sV\u81ea\u7136
p3317
I3
sV\u8bf4\u6cd5
p3318
I6
sV\u7559\u60c5
p3319
I9
sV\u987d\u5f3a
p3320
I6
sV\u6210
I24
sV\u9ad8\u5899
p3321
I3
sV137
p3322
I3
sV\u996d\u5e97
p3323
I3
sV\u652f\u4ed8
p3324
I15
sV\u529b
I3
sV\u5904
I3
sV\u8ba1
I3
sV\u503c\u5f97
p3325
I39
sV\u4e0d\u8fc7
p3326
I15
sV\u5f20\u4f1f\u7965
p3327
I12
sV\u51b0\u8336
p3328
I3
sV\u6587
I3
sV\u6c47\u4e30
p3329
I9
sV\u91c7\u8bbf
p3330
I3
sV\u9ec4\u91d1
p3331
I18
sV\u4ea4\u60c5
p3332
I3
sV\u4e00\u4e5d\u56db\u4e8c
p3333
I3
sV\u4ea7\u4e1a
p3334
I33
sV\u6bd4\u80a9
p3335
I3
sV\u5927\u96ea
p3336
I6
sV\u5230
I171
sV\u82f1\u56fd\u8bae\u4f1a
p3337
I6
sV\u653e\u4e0b
p3338
I15
sV\u5ab3\u5987
p3339
I3
sV\u5434
I96
sVjohnny
p3340
I3
sV\u9756\u5eb7
p3341
I3
sV\u8fb9
I18
sV\u56de\u4eac
p3342
I9
sV\u4fe1\u4f5b
p3343
I9
sV2011
p3344
I24
sV\u5904\u5904
p3345
I3
sV2012
p3346
I21
sV\u4e0d\u5728\u4e4e
p3347
I3
sV\u7ec3
I3
sV\u6251
I24
sV\u6548\u679c
p3348
I9
sV\u554a
I90
sV\u9ed1\u767d
p3349
I3
sV\u884c
I9
sV\u4f4e
I18
sV\u5927\u90e8\u5206
p3350
I39
sV\u7406\u60f3
p3351
I6
sViPhone
p3352
I18
sV\u89c4\u5219
p3353
I9
sV\u5fd9
I9
sV\u8352\u5510
p3354
I6
sV\u4e3b\u52a8
p3355
I3
sV\u65b0\u4e00\u8f6e
p3356
I3
sV\u5341\u4e00\u4e2a
p3357
I3
sVgoing
p3358
I3
sV\u4f18\u8d28
p3359
I3
sV\u6c64
I3
sVVIE
p3360
I12
sV\u6d77\u91cf
p3361
I3
sV\u6668
I3
sV\u91cd\u8e48
p3362
I6
sV3.5.1
p3363
I3
sV\u5bbd\u539a
p3364
I3
sV\u6700\u4f73
p3365
I3
sV\u738b\u7ef4\u5609
p3366
I6
sV\u597d\u4eba
p3367
I3
sV\u539f\u6765
p3368
I3
sV\u6781\u4e3a
p3369
I3
sV\u8305\u4e8e\u8f7c
p3370
I3
sV\u4e9a\u6d32
p3371
I6
sV......
p3372
I6
sV\u51fa\u5dee
p3373
I6
sV\u5982
I36
sV\u9ec4\u91d1\u9970\u54c1
p3374
I3
sV\u4e3d\u90fd
p3375
I3
sV\u65e0\u8bba\u5982\u4f55
p3376
I3
sV\u5c0f\u65f6\u5019
p3377
I36
sV\u5c40\u7d00
p3378
I3
sV\u6297\u4e89
p3379
I3
sV\u751f\u6210
p3380
I3
sV\u753b\u9762
p3381
I3
sV\u5f20\u8ff0
p3382
I3
sV\u97ad\u7b56
p3383
I3
sV\u4e24\u6b21
p3384
I3
sV\u6c89\u6dc0
p3385
I3
sV\u4fc3\u6210
p3386
I3
sV\u4e8c\u767e\u591a\u65a4
p3387
I12
sV\u5373
I3
sV\u5f90\u5dde
p3388
I6
sV\u6b21
I6
sV\u56f0\u6270
p3389
I3
sV\u5bbd\u5e26\u63a5\u5165
p3390
I3
sV\u53d6\u60a6
p3391
I3
sVCEO
p3392
I18
sV\u7b49\u5230
p3393
I6
sV\u82f1\u5e74\u65e9\u901d
p3394
I3
sV\u7f51\u901a
p3395
I3
sV\u8f6c\u81ea
p3396
I3
sV\u5fae
I78
sV\u4eba\u751f
p3397
I18
sV\u773c\u7403
p3398
I3
sV\u6837
I3
sV\u5404\u65b9
p3399
I3
sV\u4e11\u964b
p3400
I3
sV\u60f3\u52a0
p3401
I3
sV\u65e2\u5b9a
p3402
I3
sV\u94f6\u884c\u5bb6
p3403
I9
sV\u6c14\u6025\u8d25\u574f
p3404
I6
sV\u5b9e\u8df5\u8005
p3405
I3
sV\u6216\u8005
p3406
I12
sV\u5047
I6
sV\u591a\u4e07
p3407
I3
sV\u6ca1\u4eba
p3408
I6
sV\u5982\u4eca
p3409
I9
sV\u5b59\u4ef2\u8c0b
p3410
I3
sV\u6240\u8c13
p3411
I3
sV\u6700\u8fd1
p3412
I33
sV106909999
p3413
I6
sV\u53f2\u518c
p3414
I3
sV\u725b
I15
sVIvey
p3415
I3
sV\u529b\u91cf
p3416
I6
sV\u65f6\u5c1a
p3417
I3
sV\u91cd\u4efb
p3418
I3
sV\u4f55\u6b62
p3419
I9
sV\u601d\u7ef4
p3420
I6
sV\u529f\u80fd
p3421
I27
sV\u4fbf\u5b9c
p3422
I3
sV\u5ba1\u7247
p3423
I3
sV\u51af\u5c0f\u94a2
p3424
I3
sV\u63aa\u4e94
p3425
I3
sV\u5267\u589e
p3426
I9
sV\u4e00\u90e8
p3427
I6
sV\u5feb\u95e8
p3428
I3
sV\u62db\u513f
p3429
I9
sV\u56db\u5927\u7686\u7a7a
p3430
I6
sV\u5c0f\u5b81
p3431
I3
sV\u53ef\u80fd
p3432
I66
sV\u5531\u7ea2
p3433
I3
sV\u603b\u7406
p3434
I3
sV\u9891\u7387
p3435
I9
sV\u8ffd\u6c42
p3436
I6
sV\u80fd\u514d
p3437
I3
sV\u8d8a\u6765\u8d8a
p3438
I3
sV\u4e94\u5e74\u7ea7
p3439
I3
sV\u5f97\u51fa
p3440
I3
sV\u4e0d\u4f1a
p3441
I51
sV\u5c3d\u663e
p3442
I6
sV\u6d3e\u51fa\u6240
p3443
I3
sV\u4e0d\u6ee1
p3444
I6
sV\u4e92\u7231
p3445
I3
sV\u5bf9\u4e0d\u8d77
p3446
I18
sV\u6620\u5165
p3447
I3
sV\u6536\u8d2d
p3448
I18
sV\u4e0e
I102
sV\u8f66\u53a2
p3449
I3
sV\u4f53\u8d28
p3450
I6
sV\u7eaa\u68c0\u59d4
p3451
I3
sV\u7f18
I18
sV\u82f1\u8fbe
p3452
I3
sV\u4e0b\u8f7d
p3453
I9
sV\u4e0d\u4ec5
p3454
I3
sV\u4e50\u89c2
p3455
I6
sVkiller
p3456
I6
sV\u676d\u5dde
p3457
I6
sV\u800c\u8a00
p3458
I3
sV\u53d1\u8a00
p3459
I3
sV\u5f3a\u8005
p3460
I3
sV\u50bb
I12
sV\u51fa\u5c40
p3461
I3
sV\u5e2e
I39
sV\u597d\u5904
p3462
I6
sV1500
p3463
I3
sV\u4eea\u5f0f
p3464
I6
sV\u94f6\u8054
p3465
I6
sV\u6539\u53d8\u65b9\u5411
p3466
I6
sV\u80bf\u7624\u533b\u9662
p3467
I3
sV\u4e8c\u5341
p3468
I3
sV\u62b9\u9ed1
p3469
I9
sV\u6559\u5316
p3470
I3
sV\u4f5b\u5b66
p3471
I6
sV\u535a\u9ccc
p3472
I3
sV\u4e00\u5143
p3473
I6
sV\u5fc3
I9
sV\u9f99\u5e74\u5927\u5409
p3474
I15
sV\u62c5\u8d1f\u8d77
p3475
I3
sV\u96ea\u4e0a\u52a0\u971c
p3476
I9
sV\u9009\u9898
p3477
I6
sVsz
p3478
I3
sV\u597d\u597d
p3479
I3
sV\u670d
I3
sV\u8001\u6c49
p3480
I3
sV\u97f3\u4e50
p3481
I12
sV\u6bb5\u65f6\u95f4
p3482
I3
sV\u76ee\u6807
p3483
I3
sV\u4e0a\u82cd
p3484
I3
sV\u9152\u5e97
p3485
I3
sV\u5728\u6b64\u4e4b\u524d
p3486
I3
sV\u5141\u8bb8
p3487
I9
sV\u7ed9
I138
sV\u7535\u89c6\u7f51
p3488
I3
sV\u76d7\u5b9d
p3489
I3
sV\u7b2c\u4e09\u65b9
p3490
I9
sV\u5982\u4f55
p3491
I24
sV\u679c\u7c89
p3492
I3
sV\u82b1\u94b1
p3493
I3
sV\u589e\u5f3a
p3494
I9
sV\u4ee5\u540e
p3495
I27
sV\u7406\u5ff5
p3496
I9
sV\u5e74\u8d39
p3497
I3
sV\u670d\u52a1\u8d39
p3498
I6
sV\u6768
I3
sV\u5927\u94b1
p3499
I3
sVSiri
p3500
I6
sV\u9644\u52a0
p3501
I9
sV\u5916\u56fd
p3502
I6
sV\u672a\u5fc5
p3503
I3
sV\u5374\u662f
p3504
I3
sVsourcing
p3505
I3
sV\u65e9\u4e0a
p3506
I3
sV\u7f8a\u5353\u96cd
p3507
I9
sV\u5929\u5143
p3508
I3
sV\u95f4\u63a5
p3509
I3
sV\u80fd
I147
sV\u54ea\u4e9b
p3510
I3
sV\u667e
I3
sV\u91d1\u94b1
p3511
I3
sV\u521a\u624d
p3512
I33
sV1.1
p3513
I3
sV\u641c\u72d0
p3514
I3
sV\u5b98\u4f4d
p3515
I3
sV\u9009
I3
sV\u6f6e\u6d41
p3516
I3
sV\u8fdb\u6d1e
p3517
I15
sV\u6c11\u4e0d\u804a\u751f
p3518
I3
sV\u516c\u76ca
p3519
I12
sV\u77e5\u8bc6
p3520
I9
sV\u4e8e
I12
sV\u6211
I717
sV\u963b\u6b62
p3521
I3
sV\u5e94\u7528
p3522
I36
sV\u4e00\u4e9b
p3523
I15
sV\u88c5
I3
sV\u731b
I3
sV\u5df2\u7ecf
p3524
I45
sV\u4e92\u52a8
p3525
I9
sV\u4e92\u52a9
p3526
I3
sV\u7231\u60c5\u6545\u4e8b
p3527
I3
sV\u60f3\u53bb
p3528
I3
sV\u5f3a\u608d
p3529
I6
sVPM2
p3530
I21
sV\u8d39
I3
sV\u7b11\u8bdd
p3531
I6
sV\u65b0\u4eba
p3532
I3
sV\u5b69\u5b50
p3533
I30
sV\u63a8\u8350
p3534
I27
sV\u516c\u56ed
p3535
I3
sV\u4e25\u5389
p3536
I3
sV\u9632\u60a3\u672a\u7136
p3537
I3
sV\u7d2f
I3
sV\u5b5d\u987a
p3538
I3
sV\u7231
I12
sV\u73b0
I9
sV\u504f\u8fdc
p3539
I3
sV\u53d1\u6539\u59d4
p3540
I3
sV\u7167\u50cf
p3541
I3
sV\u8bc4\u8bba
p3542
I9
sV\u68a8\u6c41
p3543
I6
sV=
I6
sV\u4f20\u7edf
p3544
I3
sV\u4e1c\u90e8
p3545
I9
sV\u4e9a\u5e03\u529b
p3546
I9
sV\u5954\u9a70\u8f66
p3547
I3
sV\u5efa\u8bae
p3548
I15
sV\u540d\u6821
p3549
I3
sV\u89c6\u529b
p3550
I3
sV\u961f\u5458
p3551
I6
sV\u79bb\u53bb
p3552
I3
sV\u5c3d\u53ef\u80fd\u5c11
p3553
I6
sVwho
p3554
I3
sV\u5f20\u4eae
p3555
I3
sV\u8f7b\u677e
p3556
I6
sV\u6b66\u677e
p3557
I9
sV\u4ece
I54
sV\u6743\u5c0f\u5c41
p3558
I3
sV\u63d0
I6
sV\u5efa\u8bbe
p3559
I3
sV\u89c2\u4f17
p3560
I3
sV\u521b\u4e1a\u5bb6
p3561
I3
sV\u6c11\u8425\u4f01\u4e1a
p3562
I3
sV\u5fd8
I3
sVfriend
p3563
I3
sV\u4e00\u5ea7
p3564
I3
sV\u52a8\u4eba
p3565
I3
sV\u57fa\u4e8e
p3566
I30
sV\u767d\u8840\u75c5
p3567
I9
sV\u4e07\u5206
p3568
I3
sV\u5546\u6743
p3569
I3
sV\u5341\u516b
p3570
I3
sV\u6148\u7236
p3571
I3
sV\u7977\u544a
p3572
I3
sV\u54ea
I9
sV\u53f0
I3
sV\u5f00\u53d1\u8005
p3573
I9
sV\u4eba\u5458
p3574
I9
sV\u95f4
I6
sV\u827a\u672f\u4fee\u517b
p3575
I3
sV\u5c71\u5be8
p3576
I6
sV\u53ef\u81f4
p3577
I3
sVRussel
p3578
I3
sV\u4e92\u52c9
p3579
I3
sV\u5eca\u574a
p3580
I3
sV\u66fe
I9
sV\uff02
I90
sV\u6c9f\u901a
p3581
I3
sV\u7ed3\u8bba
p3582
I6
sV\u6210\u4e3a
p3583
I21
sV\u6084\u6084
p3584
I3
sV\u5085\u6210\u7389
p3585
I12
sV\u672c\u4e8b
p3586
I3
sV\u884c\u65f6
p3587
I9
sV\u5927\u9ea6
p3588
I3
sVSunday
p3589
I3
sV\u901d\u4e16
p3590
I3
sV\u81ea\u5728
p3591
I9
sV\u4e8b\u4ef6
p3592
I3
sV\u4e00\u5927\u7b14\u94b1
p3593
I3
sV\u6700\u65e9
p3594
I6
sV\u517b\u8eab
p3595
I3
sV\u52df\u96c6
p3596
I3
sV\u81f4\u8fdc
p3597
I3
sV\u610f\u5473
p3598
I3
sV\u5217
I9
sV\u5434\u5f81
p3599
I9
sV\u53ef\u662f
p3600
I9
sV\u4e0a\u65b9
p3601
I3
sV6000
p3602
I3
sV\u4e4b\u5904
p3603
I3
sV\u7eaa\u5f55
p3604
I3
sV\u56db\u5bf8
p3605
I3
sV\u9ad8\u5ea6
p3606
I12
sV\u672c\u8eab
p3607
I3
sV\u535a\u5ba2
p3608
I12
sV\u5236\u5f0f
p3609
I6
sV\u5218\u4e8c\u98de
p3610
I6
sV\u4e94\u5206\u949f
p3611
I9
sV\u673a\u4f1a
p3612
I30
sV\u65e5\u665a
p3613
I6
sV\u6838
I18
sV\u6b3a
I3
sV\u65b9\u6cd5
p3614
I6
sV\u81ea\u7701
p3615
I3
sV\u8fdb\u800c
p3616
I3
sV\u6ee1
I3
sV\u505a\u989d
p3617
I3
sV\u96c7
I3
sV\u6301\u6709
p3618
I3
sV\u90a3\u6761
p3619
I3
sV\u534a
I9
sV\u56de\u7b54
p3620
I3
sV\u8fce\u63a5
p3621
I3
sV\u4eba\u53e3
p3622
I6
sV\u5e97
I3
sV\u4f30\u8ba1
p3623
I9
sV\u8d85\u751f
p3624
I3
sV125
p3625
I3
sV\u5f00\u8154
p3626
I3
sV\u4eba\u5bff\u4fdd\u9669
p3627
I3
sV\u804c\u4e1a
p3628
I6
sV\u7537\u4eba
p3629
I9
sV\u6148\u5584
p3630
I12
sV\u51af\u5c0f\u521a
p3631
I3
sV\u4f1f\u7965
p3632
I12
sV\u53c2\u52a0
p3633
I27
sV\u8be5
I15
sV\u5317\u4eac\u5e02\u653f\u5e9c
p3634
I6
sV\u751f\u6d3b\u7f8e\u6ee1
p3635
I3
sV\u6d3b\u52a8
p3636
I9
sV\u4e2d\u56fd\u653f\u5e9c
p3637
I6
sV\u8f93\u5f97
p3638
I3
sV\u5341\u4e5d\u5e74
p3639
I3
sV\u7aef
I12
sV\u66f4\u6b63
p3640
I3
sV\u884c\u4e3a
p3641
I3
sV\u5174\u65fa
p3642
I3
sV\u8fdb\u5ea6
p3643
I3
sV\u5fc5\u987b
p3644
I18
sV\u8d76
I3
sV\u64cd\u4f5c
p3645
I3
sV\u63a5\u53d7
p3646
I6
sV\u5e7d\u9ed8
p3647
I3
sV\u4e61\u5df4\u4f6c
p3648
I3
sV\u62ff
I9
sV\u636e\u6211\u6240\u77e5
p3649
I6
sViPad
p3650
I18
sVFDD
p3651
I12
sV\u5c0f\u6c5f
p3652
I3
sV\u72ec\u594f
p3653
I3
sV\u5c0f\u4f01\u4e1a
p3654
I3
sV\u60a8\u597d
p3655
I6
sV\u5fc3\u7406
p3656
I6
sV\u4e16\u754c\u7ea7
p3657
I3
sV\u662f\u975e
p3658
I12
sV\u771f\u4e0d
p3659
I3
sV\u5e72\u5417
p3660
I3
sVbtc
p3661
I3
sV\u6e56\u5317
p3662
I6
sV\u51ed\u501f
p3663
I6
sV\u5b9a
I3
sV\u5012\u7528
p3664
I6
sV\u6606\u660e
p3665
I3
sV\u975e\u5e38
p3666
I51
sV\u6df1\u5733
p3667
I18
sV\u56fd\u52a1\u9662
p3668
I12
sV\u5f88\u503c
p3669
I3
sV\u4ee5\u53ca
p3670
I12
sV\u60a8
I42
sV\u8d85\u8d8a
p3671
I6
sV\u53f3
I3
sV\u56de\u5bb6
p3672
I6
sV\u7531
I18
sV\u7ffb\u7ffb
p3673
I3
sV\u5927\u5e05
p3674
I15
sV\u521b\u9020
p3675
I15
sV\u534e\u4eba
p3676
I9
sV\u4e4b\u9996
p3677
I9
sVPE
p3678
I6
sV\u575a\u51b3
p3679
I3
sV\u7edd\u8def
p3680
I6
sV\u8bba
I9
sV\u5411\u524d
p3681
I3
sV\u53ea\u8981
p3682
I18
sV\u623f
I3
sV\u5927\u5e08
p3683
I15
sV\u7ba1
I6
sV\u4e00\u96c6
p3684
I6
sV\u4f1a\u4e0a
p3685
I3
sV\u4e3a\u540d
p3686
I3
sV\u5149
I3
sV\u53ca
I15
sV\u6570\u989d
p3687
I3
sV\u65e0\u6570
p3688
I3
sV\u8fd1\u65e5
p3689
I6
sV\u5929\u4ef7
p3690
I9
sV\u6e56\u5357
p3691
I3
sV\u6b64\u65f6
p3692
I6
sV\u884c\u653f
p3693
I12
sV\u8bb2\u4e49
p3694
I3
sV\u6982\u5ff5
p3695
I6
sV\u611f\u4eba
p3696
I3
sV\u6050\u6016
p3697
I3
sV\u624b\u673a\u53f7
p3698
I3
sV\u7ae5\u978b
p3699
I48
sV\u6050\u6015
p3700
I6
sV\u9093\u6587
p3701
I9
sV\u65e0\u6548
p3702
I6
sV\u7cfb\u7edf
p3703
I21
sV\u6216\u662f
p3704
I9
sV\u4fdd\u62a4
p3705
I9
sV\u601d\u6e05
p3706
I9
sV\u4e00\u76f4
p3707
I48
sV\u56fa\u5b9a
p3708
I42
sV\u559d\u676f
p3709
I3
sV\u96be\u9053
p3710
I3
sV\u5938\u5956
p3711
I3
sV\u53ea\u89c1
p3712
I6
sV\u8fd9\u5bb6
p3713
I3
sV\u5c81
I12
sV\u62a5
I6
sV\u5bfc\u81f4
p3714
I9
sV\u8bf4\u8bdd
p3715
I12
sV\u5e08\u751f
p3716
I3
sV\u5341\u4e8c\u90e8
p3717
I3
sV\u7406
I3
sV\u5e08\u7236
p3718
I9
sV\u4e00\u5708
p3719
I3
sV\u8138\u76ae\u539a
p3720
I3
sV\u4e2d\u5348
p3721
I9
sV\u5206\u5206\u5408\u5408
p3722
I6
sV\u8f83\u9ad8
p3723
I6
sV\u5f97
I27
sV\u5899
I3
sV\u671f\u5f85
p3724
I15
sV\u751f\u65e5\u5feb\u4e50
p3725
I9
sV\u539f
I12
sV\u663e\u6027
p3726
I3
sV\u4ee5\u524d
p3727
I45
sV\u5ce8\u7709\u5c71
p3728
I3
sV\u8d44\u4ea7\u8d1f\u503a\u7387
p3729
I3
sV\u4e22
I3
sV\u8981\u6765
p3730
I3
sV\u5927\u5b66\u751f
p3731
I3
sVdeep
p3732
I3
sV\u8d22\u5bcc
p3733
I12
sV\u8bc8\u9a97
p3734
I9
sV\u6fc0\u60c5
p3735
I6
sV\u524d\u8f88
p3736
I3
sV\u6700\u9ad8
p3737
I3
sV\u5f20\u6068\u6c34
p3738
I3
sV\u94b1
I12
sV\u51b3
I3
sV\u4ee5\u7259\u8fd8\u7259
p3739
I3
sV\u5305\u62ec
p3740
I9
sV\u6240\u8bf4
p3741
I6
sV\u66b4\u5229
p3742
I3
sV\u4e00\u573a
p3743
I9
sV\u4e00\u7a9d\u8702
p3744
I15
sV\u8d5a\u94b1
p3745
I6
sV\u76f8\u6bd4
p3746
I9
sV\u86ee\u597d
p3747
I3
sV\u518d\u6b21
p3748
I3
sV\u91cd\u60c5
p3749
I3
sV\u6709\u4e9b
p3750
I6
sV\u516d\u5341
p3751
I3
sV\u5446
I3
sV\u5148
I54
sV\u5546\u4f1a
p3752
I3
sV\u8d5a\u6765
p3753
I3
sV\u4ecd
I9
sV\u660e\u65e5
p3754
I3
sV\u6bcf
I12
sV\u5341\u70b9
p3755
I3
sV\u770b\u5230
p3756
I27
sV\u98de\u884c
p3757
I3
sV\u4e00\u5757
p3758
I3
sV\u611f\u89c9
p3759
I18
sV\u5e38
I12
sV\u53d1\u8868
p3760
I9
sV\u75db
I3
sV\u6295\u8d44
p3761
I30
sV\u5927\u5e74\u521d\u4e00
p3762
I3
sV\u5e7f\u5dde
p3763
I6
sV\u6709\u4eba
p3764
I33
sV\u77ed\u4fe1
p3765
I18
sV\u6b64
I6
sV\u8111\u5b50\u91cc
p3766
I3
sV\u5168\u4f53
p3767
I6
sV\u62a5\u8fc7
p3768
I3
sV\u4e0d\u503c\u4e00\u63d0
p3769
I3
sV\u7eed
I3
sV\u4ecb\u7ecd
p3770
I6
sV\u738b\u5fd7\u4e1c
p3771
I6
sV\u5b9e\u73b0
p3772
I21
sV\u5374
I12
sV\u5916\u9762
p3773
I3
sV\u611f\u89e6
p3774
I6
sVYing
p3775
I9
sV\u9505\u5df4
p3776
I3
sV\u62c5\u5fe7
p3777
I6
sV\u8bf7\u6559
p3778
I3
sV~
I15
sV\u5c01
I3
sV\u8bc1
I3
sV\u5343\u4e07\u522b
p3779
I3
sV\u63ed\u9732
p3780
I18
sV\u5236\u5ea6
p3781
I6
sV\u8d22\u5b63
p3782
I6
sV\u52a0\u5927\u529b\u5ea6
p3783
I3
sV\u7ec4\u7ec7
p3784
I6
sV\u5f15\u8d77
p3785
I6
sV\u5fc5\u5b9a
p3786
I3
sV\u4e0d
I330
sV\u5730\u7403
p3787
I3
sV\u65f6\u95f4
p3788
I78
sV\u56fd\u5b66
p3789
I27
sV\u7a7a\u6c14\u8d28\u91cf
p3790
I12
sV\u8087\u4e8b\u8005
p3791
I6
sV\u63a5\u5230
p3792
I3
sV\u72ec\u6728\u6865
p3793
I6
sV\u4ea7\u54c1\u6d4b\u8bd5
p3794
I6
sVing
p3795
I3
sV\u91cd\u8981
p3796
I15
sV\u5185\u90e8
p3797
I3
sV\u7ecf\u8425
p3798
I3
sV\u5076\u9047
p3799
I3
sV\u6551\u4eba\u4e00\u547d
p3800
I3
sV\u4e0d\u884c
p3801
I24
sV\u63d0\u9ad8
p3802
I6
sV\u5e2d
I3
sV\u51fa\u5ac1
p3803
I3
sV\u6d45\u663e
p3804
I3
sV\u6ce8\u610f
p3805
I30
sV\u94dc
I3
sV\u9634\u6027
p3806
I3
sVandroid
p3807
I3
sV\u7f13\u4e00\u7f13
p3808
I3
sV\u8d1f\u8d23
p3809
I12
sV\u8865\u9f50
p3810
I3
sV\u4fd7\u8bdd\u8bf4
p3811
I3
sV\u767b\u5c71
p3812
I3
sV\u53e6\u7c7b
p3813
I3
sV\u5468\u8fb9
p3814
I3
sV\u4eba\u7269
p3815
I3
sV\u5747
I6
sV\u519c\u6c11
p3816
I9
sV\u5373\u5f53
p3817
I3
sV\u6700\u4f4e
p3818
I3
sV\u50a8\u6237
p3819
I3
sV\u65b9\u5411
p3820
I21
sVv2
p3821
I15
sV\u8fbe\u5230\u76ee\u6807
p3822
I3
sV\u5341\u5757
p3823
I3
sV\u9ad8\u7f51
p3824
I3
sV\u8eab\u8fb9
p3825
I3
sV\u540d\u4e3a
p3826
I6
sV\u8c61
I3
sV\u8ba4\u540c
p3827
I6
sV\u91cd\u89c6
p3828
I30
sV\u95ee\u95ee
p3829
I3
sV\u5b89\u5168\u68c0\u67e5
p3830
I3
sV\u523a\u6fc0
p3831
I6
sV\u65b0\u5e74\u597d
p3832
I48
sV\u76f4\u5230
p3833
I3
sV\u50f5\u786c
p3834
I3
sV\u5229\u76ca
p3835
I30
sV\u6b27\u5143
p3836
I3
sV\u5230\u6765
p3837
I3
sV\u5475
I6
sV\u9057\u61be
p3838
I12
sV\u8ddf\u8171
p3839
I6
sV\u5df2\u6709
p3840
I3
sV\u8868\u793a
p3841
I12
sV\u5168\u573a
p3842
I3
sV\u4eba\u4e91
p3843
I3
sV\u5c0f\u7ec4
p3844
I3
sV\u7985
I3
sV\u5b9a\u4e49
p3845
I3
sV\u7b11\u58f0
p3846
I3
sV\u8c41\u8fbe
p3847
I3
sV\u4e8b
I33
sV\u4e00\u540d
p3848
I6
sV\u5bf9\u65b9
p3849
I9
sVnot
p3850
I3
sV\u70b9\u51fb
p3851
I6
sV\u623f\u5730\u4ea7
p3852
I6
sV\u578b\u53f7
p3853
I3
sV\u2014
I30
sV\u987e\u95ee
p3854
I3
sV\u6551\u52a9
p3855
I3
sV\u6765\u8bf4
p3856
I9
sV\u591a
I111
sV\u559d
I9
sV\u53f0\u82f1\u8fbe
p3857
I3
sV\u7167
I12
sV\u5e02\u573a\u5316
p3858
I6
sV\u795e\u4eba
p3859
I3
sV\u8d5a
I6
sV\u7edd\u4f73
p3860
I3
sV\u5173\u62bc
p3861
I3
sV\u6ca1\u4eba\u7ba1
p3862
I3
sV\u70b9\u71c3
p3863
I3
sV\u5168\u6c11
p3864
I12
sV\u56de\u5934
p3865
I3
sV\u7a97\u6237
p3866
I6
sV\u5965
I9
sV\u603b\u4e66\u8bb0
p3867
I6
sV\u8fd9\u65b9\u9762
p3868
I6
sV\u5305\u56f4
p3869
I3
sV\u8457\u540d\u4f5c\u5bb6
p3870
I3
sV\u826f\u673a
p3871
I3
sV\u5373\u662f
p3872
I3
sV\u91d1\u5175
p3873
I3
sV\u6839\u672c
p3874
I3
sV\u54c7
I3
sV\u539f\u56e0
p3875
I18
sV\u73e0\u5b9d
p3876
I3
sV\u7248
I15
sVfyi
p3877
I3
sV\u4e0d\u8ba9
p3878
I12
sV\u4ee3
I3
sV\u6740\u624b
p3879
I9
sV\u4e2d\u9014
p3880
I3
sV\u6d41\u5229
p3881
I3
sV\u6362\u53f0
p3882
I3
sV\u638f
I3
sVitsummit
p3883
I3
sV\u773c\u524d
p3884
I3
sV2010
p3885
I9
sV\u6d6e\u4e91
p3886
I3
sV\u56db
I21
sV\u56fd\u9645\u8d27\u5e01\u57fa\u91d1\u7ec4\u7ec7
p3887
I3
sV\u6765\u8bb2
p3888
I6
sV\u4fe1
I6
sV\u8d70\u5230
p3889
I3
sV\u653f\u5e9c
p3890
I36
sVlike
p3891
I3
sV\u72d0\u72f8
p3892
I3
sV\u643a\u624b
p3893
I3
sV\u4e00\u5468
p3894
I3
sV\u72ec\u5bb6
p3895
I3
sV\u62fc\u97f3
p3896
I6
sV\u8212\u6dc7
p3897
I3
sV\u6162\u8dd1
p3898
I3
sV\u5e78\u6703
p3899
I3
sV\u6709\u8da3
p3900
I6
sV\u9a82\u4eba
p3901
I3
sV\uff01
I1002
sV\u5149\u8363\u4f20\u7edf
p3902
I3
sV\u8fd9\u79cd
p3903
I9
sV\u4e4b\u6240\u4ee5
p3904
I3
sV\u53ea\u8bba
p3905
I6
sV\u9886\u8dd1
p3906
I3
sV\u4e0b
I54
sV\u52a0\u515a
p3907
I3
sVExcel
p3908
I3
sV\u9093\u5cf0
p3909
I6
sV\u680f
I3
sV\u9500\u552e\u989d
p3910
I3
sV\u66f4\u65b0
p3911
I36
sV\u660e\u663e
p3912
I6
sV\u8fdd\u80cc
p3913
I3
sV\u561b
I15
sV118
p3914
I9
sV\u622a\u6b62
p3915
I3
sV\u611f\u8a00
p3916
I3
sV\u9f3b\u51fa\u8840
p3917
I3
sV\u767d\u70ed\u5316
p3918
I3
sV\u82b3\u83f2
p3919
I21
sV\u5c0f\u5fc3
p3920
I9
sV\u9020\u6210
p3921
I6
sV\u770b\u91cd
p3922
I3
sV\u90e8\u4e0b
p3923
I3
sV\u75b2
I3
sV\u5927\u597d\u65f6\u673a
p3924
I3
sV\u505a\u4e3a
p3925
I3
sV\u660e\u661f
p3926
I6
sV\u8001\u9879
p3927
I6
sV\u5fb7\u5dde
p3928
I12
sV\u516d\u70b9
p3929
I3
sV\u516c\u53f8
p3930
I39
sV\u505a\u5de5
p3931
I3
sV\u7a7a\u95f4
p3932
I36
sV\u5973\u5b50
p3933
I3
sV\u5c0f\u59b9\u59b9
p3934
I3
sV\u63a5\u5165
p3935
I3
sV\u73ed\u4e3b\u4efb
p3936
I6
sV\u4e4b
I123
sV\u5927\u9c7c
p3937
I12
sVIPTV
p3938
I123
sV\u51e0\u526f
p3939
I3
sV\u52b3\u4f5c
p3940
I6
sV\u6253
I21
sV\u89c6\u9891\u4f1a\u8bae
p3941
I3
sV\u5f80\u524d\u8d70
p3942
I33
sV\u70b9\u513f
p3943
I3
sV\u51c6\u5907
p3944
I3
sV\u5e38\u52a1\u7406\u4e8b
p3945
I3
sVGABBANA
p3946
I6
sV\u59da
I3
sV\u4e4b\u4f59
p3947
I3
sV\u53d1\u8a00\u4eba
p3948
I6
sV\u571f\u58e4
p3949
I3
sV\u5404\u81ea
p3950
I3
sV\u767b\u5f55
p3951
I3
sV\u4fdd\u80b2
p3952
I3
sV\u70ed\u95f9
p3953
I33
sV\u81ea
I9
sV\u8d70\u52bf
p3954
I3
sV\u8bc4\u59d4
p3955
I3
sV\u6f14\u7ece
p3956
I3
sV\u8ba4\u771f
p3957
I9
sV\u6ee4\u955c
p3958
I3
sV\u5175
I39
sV\u4e16\u4ee3\u76f8\u4f20
p3959
I3
sV\u5c0f\u9f99
p3960
I3
sV\u9ad8\u5c71
p3961
I6
sV104.14
p3962
I3
sV\u4e00\u767e\u4e07
p3963
I6
sV\u907f\u96f7\u9488
p3964
I3
sV\u5f00
I33
sV\u5b83
I45
sV\u5f90\u9f99
p3965
I6
sV\u997c\u5e72
p3966
I3
sV\u6570\u5b57
p3967
I48
sV\u724c\u7167
p3968
I6
sV\u4e2d\u519b
p3969
I18
sV\u4f8b
I3
sV\u300a
I33
sV\u88ab\u79f0\u4f5c
p3970
I3
sV\u72ec\u7acb
p3971
I6
sV\u52a0\u70ed
p3972
I3
sV\u521a\u5728
p3973
I12
sV\u8001\u59d0
p3974
I3
sV\u9000\u4f11
p3975
I3
sV\u5e16
I12
sV\u653f\u534f\u59d4\u5458
p3976
I3
sV\u8fdc\u65b9
p3977
I6
sV\u5feb\u901f
p3978
I3
sV\u4e00\u751f
p3979
I9
sV\u719f
I3
sV\u7ad9\u7968
p3980
I6
sV\u8c22
I6
sV\u725b\u6839\u751f
p3981
I6
sV\u53e6\u5916
p3982
I9
sV\u7cbe\u8f9f
p3983
I15
sV\u5f81\u96c6
p3984
I6
sV\u4e00\u952e
p3985
I3
sV\u7f5a\u6ca1
p3986
I3
sV\u5b63\u5144
p3987
I3
sV\u8fd9\u9879
p3988
I12
sV\u5730
I63
sV\u56fd\u5e86
p3989
I3
sV\u8d2d\u4e70
p3990
I9
sV\u591a\u4e45
p3991
I3
sV\u901f\u5ea6
p3992
I24
sV\u67d4\u7545
p3993
I3
sV\u5730\u76ae
p3994
I3
sV\u7ecf\u8425\u62a5
p3995
I3
sV\u652f\u51fa
p3996
I6
sV\u4e2a\u4eba
p3997
I18
sV\u613f
I6
sV\u8840\u578b
p3998
I6
sV\u8d4c
I6
sV\u7edd\u4e0d
p3999
I3
sV\u6f0f\u51fa\u53bb
p4000
I3
sV\u6df1\u611f
p4001
I3
sV\u65b9\u4fbf
p4002
I3
sV\u8d44\u6599
p4003
I3
sV\u7ad9
I9
sV\u770b\u671b
p4004
I3
sV\u505a\u5e7f\u544a
p4005
I9
sV\u7559\u5b66\u751f
p4006
I3
sVChelsea
p4007
I3
sV\u56fe\u4e66\u9986
p4008
I6
sVhe
p4009
I3
sV\u5982\u6b64
p4010
I24
sV\u4f60
I417
sV\u5fc5\u7136
p4011
I3
sV\u6d41\u52a8\u6027
p4012
I3
sV\u65e7
I3
sV\u535a\u58eb
p4013
I12
sV\u9886\u961f
p4014
I3
sV\u9ebd
I3
sV\u5feb
I18
sV\u4e00\u65e5
p4015
I3
sV\u8bdd\u8d39
p4016
I3
sV\u4efb\u52a1
p4017
I6
sV\u79ef
I6
sV\u5bbf\u820d
p4018
I3
sV89
p4019
I6
sV\u96c5\u864e
p4020
I3
sV\u51e0\u624b
p4021
I3
sV\u8001\u59b9
p4022
I3
sV\u4e07\u822c
p4023
I3
sV\u6700\u771f
p4024
I3
sV\u636e\u8c03\u67e5
p4025
I3
sV\u627e
I27
sV\u4e24\u7801\u4e8b
p4026
I3
sV\u5f88\u597d
p4027
I3
sV1166
p4028
I3
sV\u5c82
I3
sV\u6d4f\u89c8\u5668
p4029
I3
sViphone
p4030
I3
sV\u7686
I21
sV\u7ba1\u5236
p4031
I9
sV\u674e\u9e3f\u5fe0
p4032
I12
sV\u827a\u672f
p4033
I15
sV\u54b1
I33
sV\u81ea\u4ece
p4034
I6
sVCC
p4035
I3
sV\u80fd\u5426
p4036
I9
sV\u6015
I9
sV\u76f8\u5904
p4037
I6
sV\u4e2d\u56fd\u533a
p4038
I3
sV\u5730\u5740
p4039
I9
sV\u5b59\u5b50
p4040
I3
sV\u9a6c\u62c9\u677e
p4041
I3
sV\u670d\u6bd2\u81ea\u6740
p4042
I6
sV\u5c3d\u5feb
p4043
I3
sV\u65bd\u5c55
p4044
I3
sV\u53d1\u8a93
p4045
I3
sV48
p4046
I3
sV49
p4047
I3
sV\u63a8
I9
sV\u6570\u636e\u5e93
p4048
I3
sV45
p4049
I6
sV\u5171\u60a3\u96be
p4050
I3
sV40
p4051
I12
sV4.
p4052
I9
sV\u4e3a\u6b64
p4053
I6
sV\u4eca\u5929\u5929\u6c14
p4054
I6
sV\u4e00\u6bb5\u65f6\u95f4
p4055
I12
sV\u7ea2\u5341\u5b57\u4f1a
p4056
I3
sV\u6b6a\u7406
p4057
I3
sV\u53d1\u5fae
p4058
I9
sV\u843d
I3
sV\u8fde\u63a5
p4059
I3
sV\u7c73\u82e5\u62c9
p4060
I3
sV\u6e05\u4e0d\u6e05
p4061
I3
sV\u94c1\u7d22\u6865
p4062
I6
sVTrek
p4063
I3
sV\u9ec4\u660f
p4064
I9
sV\u53c8
I48
sV\u6ca1\u5173\u7cfb
p4065
I3
sV\u6000\u5ff5
p4066
I24
sV\u4e92\u76f8
p4067
I3
sV\u67d0
I3
sV\u64d2
I3
sV\u6d77\u6ee9
p4068
I3
sV\u7834\u6848
p4069
I3
sV\u8001\u5916
p4070
I9
sV\u706b\u4e0a\u6d47\u6cb9
p4071
I3
sV\u53cd\u51fb
p4072
I3
sV\u6b63
I24
sV\u6ce2
I6
sV\u4f5b\u5bb6
p4073
I6
sV\u6536\u89c6
p4074
I3
sV\u6597\u5730\u4e3b
p4075
I6
sV\u79f0\u4e3a
p4076
I6
sV\u662f\u5426
p4077
I15
sV\u8282\u76ee
p4078
I6
sV\u5efa\u7acb
p4079
I3
sV\u4ed6\u4eec
p4080
I51
sV\u6d77\u5357
p4081
I6
sV\u5730\u533a
p4082
I9
sV\u5973\u5b69
p4083
I3
sV\u96be\u514d
p4084
I3
sV\u8d77
I9
sV\u4ef6
I3
sVat
p4085
I3
sV\u6218\u7565\u601d\u7ef4
p4086
I3
s.