(dp1
V\u6000
I3
sV\u65b0\u9510
p2
I6
sV\u6302
I3
sV\u6f2b\u8fc7
p3
I3
sV\u52b1\u5fd7
p4
I6
sV\u51fa\u6765
p5
I18
sV\u7b2c\u4e8c
p6
I6
sV\u6c83\u5c14\u6c83
p7
I3
sV\u6253\u5bf9
p8
I3
sVall
p9
I3
sV\u59d0\u597d
p10
I3
sV\u7b2c\u4e94
p11
I3
sV\u8bfa\u897f
p12
I24
sV\u63a8\u5411\u5e02\u573a
p13
I3
sV\u8f6e\u56de
p14
I3
sV\u6c89\u7740
p15
I3
sV\u7535\u6746
p16
I3
sV\u4e0d\u6cbb\u4e4b\u75c7
p17
I3
sV\u6d1e
I12
sV\u54a3
I9
sV\u5e94\u8be5
p18
I15
sV\u897f\u65b9
p19
I3
sV\u65f6\u523b
p20
I3
sV\u8fd9\u6761
p21
I3
sV\u6b64\u5904
p22
I3
sV\u7d66\u529b
p23
I3
sV\u523a\u5200
p24
I3
sV\u822c
I3
sV\u53d1\u751f
p25
I12
sV\u516d\u4e2a
p26
I3
sV\u5927\u52bf
p27
I3
sV\u51b2
I12
sVMetro
p28
I3
sV\u8c08
I3
sV\u7acb\u65b9\u7c73
p29
I3
sVSPA
p30
I3
sV\u5bbd
I3
sV\u8c08\u5224
p31
I3
sV\u98d9
I3
sV@
I3
sV\u901a\u8fc7
p32
I3
sV\u5144\u5f1f\u59d0\u59b9
p33
I3
sV\u4e24\u5929
p34
I12
sV\u6362\u8def
p35
I3
sV\u6cbb\u5b66\u4e25\u8c28
p36
I3
sV\u54c1\u724c
p37
I9
sV'
I6
sV\u773c\u4ee4
p38
I3
sV\u6b63\u5e38
p39
I3
sV\u4e2d\u592e\u653f\u5e9c
p40
I3
sVGB
p41
I3
sV\u795e\u6e05\u6c23\u723d
p42
I3
sV\u641c\u4e0d\u9e1f
p43
I3
sV\u82e5
I3
sV\u8bdd
I27
sV\u8d5e
I3
sV\u51e1
I6
sV\u4e09\u4e9a
p44
I3
sV\u5fe7
I3
sV\u4e00\u65b9\u6c34\u571f\u517b\u4e00\u65b9\u4eba
p45
I3
sV\u7f8e\u56fe
p46
I3
sV\u5de6\u4e8c
p47
I3
sV\u4e16\u7eaa
p48
I6
sV\u60c5\u611f
p49
I3
sV\u53cd\u4e4b
p50
I3
sV\u6bd4\u8f83\u70e6
p51
I3
sV\u7ecf\u8fc7
p52
I18
sV\u827a\u672f\u53f2
p53
I3
sVTomomi
p54
I3
sV\u666e\u62c9\u8fbe
p55
I3
sV\u804c\u4e1a
p56
I24
sV\u5176
I3
sV\u7c7b
I3
sV\u7ef5\u7ef5
p57
I3
sV\u662f\u96be\u5b66
p58
I3
sV\u56de\u6765
p59
I3
sV\u5c31\u8fd1
p60
I3
sV\u8eab\u5b55
p61
I3
sV\u7b2c\u4e00
p62
I12
sV\u5413\u4eba
p63
I9
sV\u4ea4\u9645\u82b1
p64
I3
sV\u300b
I81
sVfairness
p65
I3
sV\u4e24\u5143
p66
I3
sV\u8001\u864e
p67
I6
sV\u961f\u4f0d
p68
I3
sV\u51e0\u6761
p69
I3
sV\u5f15
I3
sV\u5e94
I9
sV\u78b0\u4e0b
p70
I3
sV\u53e3\u5473
p71
I6
sV\u4e0d\u957f
p72
I3
sV\u7edf\u7edf
p73
I3
sV\u6f5c\u529b\u80a1
p74
I15
sV\u5411\u5f80
p75
I3
sV\u5168\u529b
p76
I6
sV\u59d0\u59d0
p77
I9
sV\u770b\u8fc7
p78
I3
sV\u70ed\u70c8\u6b22\u8fce
p79
I3
sV\u4e27\u751f
p80
I3
sV\u5baa\u6cd5
p81
I27
sV\u95fa\u5bc6
p82
I3
sV\u6781\u4e86
p83
I6
sV\u6280\u672f
p84
I18
sV\u662f
I519
sV\u521a\u597d
p85
I6
sV\u56e0\u679c\u62a5\u5e94
p86
I3
sV\u8bb2
I18
sV\u7ec8\u7aef
p87
I12
sV\u4eba\u4f1a
p88
I3
sV\u60c5\u51b5
p89
I6
sVnew
p90
I6
sV\u66f0
I3
sV\u89e3\u51b3\u95ee\u9898
p91
I3
sV\u5e76\u975e
p92
I3
sV\u5f88\u4e45\u6ca1
p93
I3
sV\u56de\u7738
p94
I3
sV\u6709\u5929
p95
I3
sV10.
p96
I6
sV\u6b63\u6708\u5341\u4e94
p97
I3
sV\u660e\u786e
p98
I3
sV\u7f8e\u8054\u793e
p99
I3
sV\u5c5e
I6
sV\u4e94\u5e74
p100
I6
sV\u59d0\u59b9
p101
I3
sV\u5728\u5bb6
p102
I3
sV\u4e0d\u7528
p103
I3
sV\u5927\u6279
p104
I3
sV\u5927\u6811
p105
I3
sV\u7834\u574f
p106
I9
sV\u8df3
I6
sV\u8d60\u9001
p107
I3
sV\u4e4b\u65f6
p108
I3
sV\u5716
I3
sV\u5165\u573a
p109
I3
sV\u6559
I9
sVLG104
p110
I3
sV100
p111
I9
sV\u56db\u6708
p112
I3
sV\u533b\u672f
p113
I3
sV\u516c\u52a1\u8231
p114
I6
sV\u4e5f
I126
sV\u9753\u4e3d
p115
I3
sV\u7ffb\u8bd1
p116
I9
sV\u827e
I9
sV\u6536\u96c6
p117
I3
sV\u5f00\u5de5
p118
I3
sV\u518d\u6765
p119
I3
sV\u767d\u83dc
p120
I3
sV\u9976\u820c
p121
I3
sV\u5f7c
I3
sV\u53d1\u9519
p122
I3
sV\u53ef\u5f52\u7f6a
p123
I3
sV\u6ef4
I21
sV\u4ea7\u54c1
p124
I21
sV\u80a1\u7968
p125
I6
sV\u5ba4\u5916
p126
I3
sVHome
p127
I3
sVNOW
p128
I2
sV\u4e0d\u9519
p129
I18
sV\u8c08\u5230
p130
I3
sV\u6625\u5b63
p131
I6
sV\u5b89\u9759
p132
I3
sV\u6539\u5f26\u6613\u8f99
p133
I3
sV\u5f80\u5f80
p134
I6
sV\u8167\u7a74
p135
I3
sV\u91cc\u9762
p136
I3
sV\u76ee\u524d
p137
I12
sV\u5927\u4e8b\u513f
p138
I3
sV\u4e0a
I96
sV\u6700\u540e
p139
I21
sV\u4e00\u5206\u949f
p140
I6
sV\u540e
I54
sV\u8c46\u6c41
p141
I12
sV\u62bd\u8c61\u601d\u7ef4
p142
I3
sV\u4eba\u4eba
p143
I3
sV\u4e00\u8f86
p144
I6
sV\u673a\u5236
p145
I3
sV\u804c\u80fd
p146
I3
sV\u554a\u5440
p147
I6
sV\u7ed3\u5f97
p148
I3
sV\u5c31\u4e71
p149
I3
sV\u4e5f\u597d
p150
I6
sV\u4e00\u6b21
p151
I15
sV\u82cd\u8001
p152
I3
sV\u5199\u610f
p153
I3
sV\u5c0a\u4eba
p154
I3
sV\u4f11\u5047
p155
I9
sV\u5e26\u597d
p156
I6
sV\u4e2d\u8f6c
p157
I3
sV\u7537\u53cb
p158
I6
sV\u5c0f\u9e1f\u4f9d\u4eba
p159
I3
sV\u5e7c\u6559
p160
I9
sV\u4e08\u592b
p161
I6
sV\u53d1\u7403
p162
I3
sV\u60e7\u6015
p163
I3
sV\u540e\u6392
p164
I3
sV\u5c0f\u8bb0
p165
I3
sV\u636e\u8bf4
p166
I3
sV\u65e5\u5b50
p167
I6
sV\u7f8e\u4e2d\u4e0d\u8db3
p168
I3
sV\u4eba\u4eec
p169
I24
sV\u906d\u9047
p170
I3
sV\u4e03\u6708
p171
I3
sV\u521b\u7eaa\u5f55
p172
I6
sV\u5996\u5a06
p173
I3
sV\u767d\u8272
p174
I3
sV\u6253\u57fa\u7840
p175
I3
sV\u7956\u6bcd
p176
I3
sV\u592a\u51b2
p177
I3
sV\u4ece\u6765
p178
I9
sV\u65e0\u6570\u6b21
p179
I9
sV\u5feb\u4e50
p180
I24
sV\u751f\u65e5\u5feb\u4e50
p181
I3
sV\u8bfb\u4e66
p182
I3
sV\u4ee5\u4e3a
p183
I9
sV91
p184
I6
sV90
p185
I3
sV\u8d44\u6599
p186
I3
sV\u665a
I6
sV\u81ea\u6211\u6279\u8bc4
p187
I3
sV\u7ec4\u6210
p188
I3
sV\u672a\u679c
p189
I3
sV\u723d\u6717
p190
I3
sV\u51fa\u53d1
p191
I12
sV\u6b63\u5f0f
p192
I3
sV\u4ee5\u4e0b
p193
I3
sV\u5ba1\u89c6
p194
I3
sV\u7167\u732b\u753b\u864e
p195
I3
sV\u5835\u8f66
p196
I15
sV\u53e6
I6
sV\u524a\u5f31
p197
I3
sV\u7b2c\u4e00\u8bfe
p198
I3
sV\u63a9\u57cb
p199
I3
sV\u601d\u8def\u6e05\u6670
p200
I3
sV\u8bf8\u845b\u4eae
p201
I3
sV\u53f7
I6
sV\u524d\u884c
p202
I3
sV\u6b22\u559c
p203
I6
sV\u6709\u52a0
p204
I3
sV\u4e0b\u9519
p205
I3
sVmy
p206
I12
sV\u957f\u76b1\u7eb9
p207
I3
sV\u671f\u4e2d
p208
I3
sV\u8001
I39
sV\u660e\u5929
p209
I24
sV\u8282
I3
sV\u2605
I3
sV\u6b27\u6d32
p210
I3
sV\u7acb\u6625
p211
I12
sVMotel
p212
I3
sV\u81ea\u8eab
p213
I3
sV\u4f18\u96c5
p214
I6
sV\u9019
I12
sV\u5403\u6210
p215
I3
sV\u5929\u7a7a
p216
I3
sV\u7231\u60c5
p217
I6
sV\u672a\u6765
p218
I15
sVDay
p219
I3
sV\u77ed\u671f
p220
I3
sV\u5835\u5fc3
p221
I3
sV\u5468\u62a5
p222
I3
sVLG
p223
I84
sVLD
p224
I3
sV\u76f4\u63a5\u4e86\u5f53
p225
I3
sV\u65b0\u9648\u4ee3\u8c22
p226
I3
sV\u53f0\u6e7e
p227
I9
sV\u914d\u5408
p228
I3
sV\u610f\u89c1
p229
I3
sV\u8fc7\u654f\u6e90
p230
I3
sV\u6539\u53d8
p231
I3
sV\u53f3\u80a9
p232
I6
sV\u8ab2
I3
sV\u5570\u55e6
p233
I6
sV\u524d\u8fdb
p234
I9
sV\u4e00\u6bb5
p235
I3
sV\u5439
I9
sV\u795e\u9a6c
p236
I3
sV\u65e0\u5c3d
p237
I3
sV\u6e05\u6670
p238
I6
sV\u8001\u677f
p239
I24
sV\u4f9d\u9760
p240
I3
sVgaming
p241
I3
sV\u6797
I3
sV\u6b47
I6
sV\u5b66\u8d77
p242
I3
sV\u9e21\u996d
p243
I3
sV\u4eca
I3
sV\u524d
I9
sV\u53cc
I3
sV\u574f
I6
sV\u54ce
I6
sV\u59d0
I303
sV\u6253\u6298
p244
I3
sV\u549a\u549a
p245
I6
sV\u7b80\u5355
p246
I12
sV\u60f3\u89c1
p247
I3
sV\u667a\u80fd\u673a\u5668\u4eba
p248
I3
sV\u6253\u7535\u8bdd
p249
I3
sV\u699c\u6837
p250
I3
sV\u72d0\u7591
p251
I3
sV\u4e0d\u5403
p252
I3
sV\u52a0\u4e0a
p253
I3
sV\u4e0d\u540c
p254
I3
sV......
p255
I9
sV\u529f\u5fb7
p256
I3
sV\u60b2\u5267
p257
I3
sV\u901a\u5e38
p258
I3
sV\u683c\u5c40
p259
I3
sV\U0001f479
I3
sV\u4e24\u7897
p260
I6
sV\u53e4\u8bd7\u8bcd
p261
I3
sV\u82cf\u9ece\u4e16
p262
I6
sV\u6795\u6728
p263
I3
sV\u4e0d\u77e5
p264
I3
sV\u90a3\u5929
p265
I3
sV\u867d\u7136
p266
I15
sV\u52a0\u6cf0\u7f57\u5c3c\u4e9a
p267
I3
sVoffice
p268
I6
sV\u6bd4\u957f
p269
I3
sV\u501f\u94b1
p270
I3
sV\u690d\u5165\u5f0f
p271
I3
sV\u6551\u4eba
p272
I3
sV\u518d
I48
sV\u738b\u83f2
p273
I6
sV\u7ca4\u8bed
p274
I3
sV\u4e8c\u9505\u5934
p275
I3
sV\u539f\u56e0
p276
I15
sV\u8725\u8734
p277
I3
sV\u592a\u72e0
p278
I3
sV\u4e92\u7231
p279
I3
sV\u516c\u8f66
p280
I3
sV\u5c31
I288
sV\u6253\u9519
p281
I3
sV\u7cbe\u529b
p282
I9
sV\u7b26
I3
sV\u8ba4\u8bc6
p283
I9
sV\u4e1c\u897f
p284
I39
sV\u96c5\u864e
p285
I3
sV\u5206
I12
sV\u6f14\u8bb2\u8005
p286
I3
sV,
I99
sV\u6a21\u5f0f
p287
I3
sV\u4e2b\u4eec
p288
I3
sVBarber
p289
I3
sV\u4e00\u6837
p290
I24
sV\u6761\u4ef6
p291
I15
sV\u770b\u7535\u89c6
p292
I3
sV\u5bd2\u98ce
p293
I6
sV\u79bb\u5f00
p294
I6
sV\u5927\u5f7b\u5927\u609f
p295
I3
sV\u5531\u8d77\u6765
p296
I3
sV\u8054\u624b
p297
I3
sV\u5927\u7403\u5305
p298
I3
sV\u6240
I9
sV\u821e\u529b
p299
I3
sV\u98a4\u98a4\u5dcd\u5dcd
p300
I3
sV\u4e0d\u52a8
p301
I3
sVMobile
p302
I3
sV\u4e48
I9
sV\u60c5\u4ee4
p303
I3
sV\u77f3\u5757
p304
I3
sV\u7403\u573a
p305
I9
sV\u519c\u5386
p306
I3
sV\u516c\u4f17
p307
I6
sV\u516c\u52a1\u4eba\u5458
p308
I6
sV\u4e0d\u505c
p309
I6
sV\u624d\u80fd
p310
I21
sV\u83ab\u614c
p311
I6
sV\u9759\u9ed8
p312
I3
sV\u900f\u9732
p313
I3
sV\u795e\u52c7
p314
I3
sV\u6bcf\u6bcf
p315
I3
sV9.
p316
I6
sV\u4e09\u7ebf
p317
I3
sV\u5b66
I6
sV\u963b\u529b
p318
I3
sV\u4e3d
I3
sV\u7edf\u8ba1
p319
I3
sV\u89c4\u6a21
p320
I6
sV\u7f51\u7ad9
p321
I3
sV\u591a\u96be
p322
I3
sV\u65e0\u82b1
p323
I3
sV3.
p324
I9
sV\u7a81\u7136
p325
I6
sV\u679c\u65ad
p326
I6
sV\u5267\u70c8\u8fd0\u52a8
p327
I3
sV\u540d\u58f0
p328
I3
sV\u5149\u5316\u5b66
p329
I6
sV\u60ef\u4f8b
p330
I9
sV\u4e0d\u9760
p331
I3
sV\u53ea\u80fd
p332
I9
sV\u521b\u4e1a
p333
I6
sV\u8d8a
I12
sV\u884c\u4e3a
p334
I3
sV\u8d24\u60e0
p335
I3
sV\u7b11
I42
sV\u8bed\u6c14
p336
I3
sV\u827a\u672f
p337
I3
sV\u516c\u5f00\u8d5b
p338
I6
sV\u6d6a\u6253\u6d6a
p339
I3
sV\u4e24\u5bf9
p340
I3
sV\u56e0\u4e3a
p341
I21
sV\u4e00\u689d
p342
I3
sV\u52a0
I3
sVXXXX
p343
I3
sV\u672c\u7740
p344
I3
sV\u9999\u6e2f
p345
I3
sV\u8001\u767e\u59d3
p346
I3
sV\u4f1a\u59d0
p347
I3
sV\u6709\u5173
p348
I9
sV\u9ed1\u9f99\u6c5f
p349
I3
sV\u64c5\u957f
p350
I3
sV\u82b8\u82b8\u4f17\u751f
p351
I3
sV\u8010\u6027
p352
I3
sV\u524d\u9014
p353
I3
sV\u591a\u60c5
p354
I3
sV\u8fd9\u573a
p355
I3
sV\u8d35
I3
sV\u684c\u5b50
p356
I3
sV\u683c\u5f0f
p357
I3
sV\u5e78\u8fd0
p358
I3
sV\u56fd\u5bb6\u65c5\u6e38\u5c40
p359
I3
sV\u505a\u5230
p360
I12
sV\u6f14\u6280
p361
I3
sV\u5f00\u5fc3
p362
I24
sV\u61c2
I9
sV\u6545
I12
sV\u62ff\u51fa
p363
I3
sV\u811a\u4e0a
p364
I3
sV\u5207\u5b9e
p365
I3
sV\u914d
I3
sV\u6210\u90fd
p366
I6
sV\u5b66\u4e60
p367
I54
sV\u91cd\u56f4
p368
I3
sV\u906d\u53d7
p369
I3
sV\u79d2
I6
sV\u592e\u89c6
p370
I12
sV\u9002\u5f53
p371
I3
sV\u4e09\u9879
p372
I6
sV\u51fa\u65b0
p373
I6
sV\u7b11\u9192
p374
I3
sV\u4fee\u7406\u8d39
p375
I3
sV\u5f88\u4e45
p376
I6
sV\u5361
I3
sV\u72e0
I9
sV\u542c\u6765
p377
I3
sV\u5565
I30
sV\u5b9e\u65bd
p378
I3
sV\u6765\u770b
p379
I6
sV\u9009\u4e3e
p380
I3
sV\u8d70\u4eba
p381
I3
sV\u63a5\u8fd1
p382
I3
sV\u9662\u58eb
p383
I3
sV\u4f5c\u5bb6
p384
I3
sV\u5df4\u8328
p385
I9
sVheck
p386
I3
sV\u4ea6\u5e84
p387
I6
sV\u81ea\u89c9
p388
I3
sV\u62d2\u7edd
p389
I3
sV\u6563\u6563\u6b65
p390
I3
sV\u4e70\u6da8
p391
I3
sV\u9e1f\u513f
p392
I3
sV\u597d
I117
sV\u6b22\u8fce
p393
I6
sV\u62a5\u9053
p394
I6
sV\u9752\u5e74
p395
I6
sV\u54c8\u4f5b
p396
I3
sV\u677e\u9f20
p397
I3
sV\u5927\u6761
p398
I3
sV\u4e8c\u73af
p399
I3
sV\u738b
I3
sV\u7403
I9
sV\u522b\u5fd8\u4e86
p400
I3
sV\u8425\u9500
p401
I3
sV\u653e\u5728
p402
I6
sVemail
p403
I3
sV\u8868\u8fbe\u80fd\u529b
p404
I3
sV\u9b45\u529b
p405
I9
sV\u6216
I24
sV\u53cd\u8d3c
p406
I3
sV\u8d5b
I3
sV\u8d9f
I3
sV\u7eb5\u89c2
p407
I3
sV\u62b1
I3
sV\u9002\u5ea6
p408
I3
sV\u9022
I3
sV\u5c0f\u624b
p409
I3
sV\u665a\u4e0a
p410
I18
sVCongress
p411
I3
sV\u5e05\u54e5
p412
I3
sV\u4e5d
I3
sV\u96be\u9053
p413
I3
sV\u7b2c\u4e8c\u5929
p414
I6
sV\u8fdc
I3
sV\u5bf9\u4e86
p415
I6
sV\u6765\u56de
p416
I3
sV\u5409\u9686\u5761
p417
I3
sV\u51b7
I9
sV\u6253\u7403
p418
I3
sV\u7f8e\u5c3c\u8033
p419
I3
sV\u4e09\u8f6e\u8f66
p420
I3
sV\u8ba4\u771f
p421
I12
sV\u7a7a\u59d0
p422
I3
sVdogs
p423
I3
sV\u6c11\u65cf
p424
I3
sV\u5927\u6982
p425
I6
sV\u2461
I9
sV\u89c9\u9192
p426
I3
sV\u5973\u7279\u5de5
p427
I9
sV\u5f88\u8fdc
p428
I3
sV\u5468\u56db
p429
I9
sV\u4e09\u5206\u949f
p430
I3
sV\u94fa\u6ee1
p431
I3
sV\u53f3\u624b
p432
I3
sV\u8be6\u60c5\u8bf7
p433
I3
sV\u4e0b\u5730
p434
I3
sV\u65e0\u529b
p435
I6
sV\u7d2f\u5f97
p436
I3
sV\u6bdb
I6
sV\u52a0\u6cb9
p437
I15
sV\u9ad8\u539f
p438
I6
sV\u4e00\u8138
p439
I3
sV\u8ddf
I33
sV\u633d\u7559
p440
I3
sV\u63a8\u5b9a
p441
I3
sV\u5f97\u7b97
p442
I3
sV\u54e5
I15
sV\u8273\u540d
p443
I3
sV\u5982\u9762
p444
I3
sV\u5fd7\u613f\u8005
p445
I3
sV\u7ea6\u4f1a
p446
I3
sV\u52aa\u529b
p447
I21
sV\u9999\u6c1b
p448
I3
sV\u6545\u80fd
p449
I3
sVmatter
p450
I3
sV\u538b\u6291
p451
I3
sV\u6ce2\u7f57
p452
I3
sV\u5206\u5de5
p453
I3
sV\u7ffb\u6eda
p454
I3
sV\u7a7f\u8fc7
p455
I3
sV\u5df2\u662f
p456
I3
sV\u51e1\u4e8b
p457
I3
sV\u60c5\u573a
p458
I3
sV\u963f\u7518\u6b63\u4f20
p459
I3
sVmini
p460
I3
sV\u7d27\u8d34
p461
I3
sV\u632f\u594b
p462
I6
sV\u5076\u4e5f
p463
I3
sV\u4e09
I27
sV\u9a82\u4eba
p464
I6
sV\u57fa\u56e0
p465
I3
sV\u5fc3
I21
sV\u4eb2\u621a
p466
I3
sV\u884c\u9a76
p467
I3
sV\u9884\u671f
p468
I6
sV\u59d0\u7231
p469
I3
sV\u8d70\u8fc7
p470
I3
sV\u63a7\u80a1
p471
I3
sV\u7545\u901a
p472
I3
sV\u8d6b\u5c14\u8f9b\u57fa
p473
I6
sV\u6155\u5c3c\u9ed1
p474
I9
sV\u62c9\u5409\u592b
p475
I3
sV\u80a0\u75c9\u631b
p476
I3
sV\u5927
I93
sV\u5b66\u4f1a
p477
I9
sV\u6de1\u6cca
p478
I3
sV-
I156
sV\u540c\u4e8b
p479
I15
sV\u6362\u4e0a
p480
I3
sV\u6237\u7c4d\u5236\u5ea6
p481
I3
sVhigh
p482
I3
sV\u6362
I12
sV\u5f62\u6210
p483
I3
sV\u770b\u6cd5
p484
I6
sV\u72b6
I3
sV\u6a2a\u5e45
p485
I6
sV\u5f15\u5347
p486
I3
sV\u4eba\u6c11
p487
I15
sV\u53e6\u4e00\u53ea
p488
I3
sV\u5c1d\u8bd5
p489
I3
sV\u544a
I3
sV\u4f1a\u573a
p490
I3
sV\u552f\u6709
p491
I3
sV\u8d76\u7d27
p492
I9
sV\u5927\u8e0f\u6b65
p493
I3
sV\u5f81\u670d
p494
I3
sV\u8d2d\u7269\u72c2
p495
I3
sV\u8db3\u7597
p496
I3
sV\u5f53\u65f6
p497
I6
sV\u754f
I3
sV\u89c2\u770b
p498
I3
sV\u8f49\u8f49
p499
I3
sV\u5f53
I12
sV\u4e8c\u8005
p500
I3
sV\u91d1\u9ec4\u8272
p501
I3
sV\u751f\u53d1
p502
I3
sV\u51e0\u5e74
p503
I6
sV\u5c0f\u513f\u79d1
p504
I3
sV\u4f01\u4e1a
p505
I18
sV\u4e8b\u513f
p506
I3
sV\u53ef\u59d0
p507
I3
sVQQ
p508
I3
sV\u53e0
I3
sV\u961f\u5217
p509
I3
sV800
p510
I3
sVRamford
p511
I6
sV\u5e78\u4e8f
p512
I3
sV\u6539\u540d\u5b57
p513
I3
sV\u9752\u6625
p514
I6
sV\u7adf\u7136
p515
I9
sV\u836f\u8865
p516
I3
sV\u673a\u5668\u4eba
p517
I6
sV\u8c03\u63a7
p518
I3
sV\u53d1\u70b9\u72e0
p519
I3
sV\u54ea\u91cc
p520
I12
sV\u8c0e\u8a00
p521
I6
sVstupid
p522
I3
sV\u4f69\u670d
p523
I3
sV\u56fa\u5b9a
p524
I3
sV1942
p525
I3
sV\u56f4\u7740
p526
I6
sV\u94fa
I3
sV\u9ad8\u5c14\u592b
p527
I3
sV\u63d0\u9192
p528
I6
sV\u4f5b\u6cd5
p529
I3
sV\u4e0d\u71e5
p530
I6
sVjob
p531
I3
sV\u663e\u793a
p532
I15
sV\u7ec4\u59d4\u4f1a
p533
I3
sV\u5230\u5e95
p534
I6
sV\u4e00\u4e0b
p535
I12
sV\u548b
I12
sV\u7075\u611f
p536
I3
sV\u5165\u53e3
p537
I3
sV\u4e09\u5e74
p538
I3
sV\u8eab\u4f53
p539
I6
sV\u5468\u672b
p540
I15
sV\u5351\u52a3
p541
I3
sV\u5e74\u524d
p542
I3
sV\u4e00\u4e16
p543
I3
sV\u5341\u4e94
p544
I3
sV\u673a\u573a
p545
I33
sV\u72ee\u5b50
p546
I9
sV\u8018
I3
sV\u81ea\u5bfc\u81ea\u6f14
p547
I6
sV\u771f\u7684
p548
I33
sV\u6625\u5377
p549
I3
sV\u4e0d\u51fa
p550
I3
sV\u90a3
I48
sV\u53f0
I6
sV\u6b65\u884c\u8857
p551
I3
sV\u900f\u900f\u6c14
p552
I3
sV\u4e00\u4e2a
p553
I150
sV\u5730\u7403\u6751
p554
I3
sV\u80fd\u8bf4\u4f1a\u9053
p555
I3
sV\u8bb8\u591a
p556
I12
sV\u5176\u4ed6
p557
I6
sV\u624b\u673a\u53f7\u7801
p558
I3
sV\uff1e
I3
sV\u5929\u4e00
p559
I3
sV\u533a
I3
sV\u793c\u7269
p560
I9
sV\u96e8\u4e2d\u6563\u6b65
p561
I3
sV\u526f\u603b\u88c1
p562
I6
sV\u6ec7
I3
sV\u89c9
I9
sV\u5306\u5fd9
p563
I3
sV\u671f\u95f4
p564
I3
sV\u79d8\u5bc6
p565
I3
sV\u540c
I6
sV\u6307\u6807
p566
I6
sV\u603b\u4e4b
p567
I6
sV\u98d8\u98d8
p568
I3
sV\u5ba2\u6237
p569
I27
sV\u5883\u754c
p570
I3
sV\u6d12\u6ee1
p571
I3
sV\u51b3\u4e0d
p572
I3
sVreport
p573
I3
sV\u4ee5\u81f3\u4e8e
p574
I3
sV\u6768\u683c
p575
I3
sV\u4e00\u5c0d
p576
I3
sV14
p577
I3
sV\u72d7\u72d7
p578
I3
sV\u5c0a\u656c
p579
I6
sV\u592a\u5047
p580
I3
sV\u62e5\u6709
p581
I24
sV\u65b0\u5e74
p582
I3
sV\u7d66
I3
sV\u4e0d\u518d
p583
I3
sV\u518d\u6709
p584
I6
sV\u5348\u5bb4
p585
I3
sV\u6df1
I6
sV\u7b2c\u4e00\u4efd
p586
I3
sV\u8180\u80f1
p587
I3
sV\u5927\u9910
p588
I3
sV\u7b80\u76f4
p589
I3
sV\u6307\u793a
p590
I3
sV\u4e8e\u662f
p591
I3
sV\u7078
I9
sV\u5f25\u7559\u4e4b\u9645
p592
I3
sV\u6444\u5f71
p593
I3
sV\u6bcd\u725b
p594
I12
sV\u653e\u5047
p595
I6
sV\u4f5c\u7528
p596
I3
sV\u592a\u8d35
p597
I3
sV\u52c7\u6c14
p598
I3
sV\u8bed\u8a00
p599
I6
sV\u4e94\u6708
p600
I6
sV\u73b0\u5b9a
p601
I3
sV\u8138\u76c6
p602
I3
sV\u94f6\u674f\u6811
p603
I6
sV\u51e0\u5929
p604
I21
sV\u73b0\u5b9e
p605
I3
sV\u4e2d\u5143\u8282
p606
I3
sV\u8d1f\u5411
p607
I3
sV\u529e\u516c\u684c
p608
I3
sVKinect
p609
I6
sV\u5b66\u6821
p610
I3
sV\u4e8c\u5341\u51e0\u4e2a
p611
I3
sV\u597d\u542c
p612
I3
sV\u5c0f\u65f6
p613
I42
sVJohn
p614
I15
sV\u59dc\u4e0a
p615
I3
sV\u6e9c
I3
sVsituation
p616
I3
sV\u8fd4\u56de
p617
I3
sV\u72b6\u6001
p618
I3
sV\u50a8\u5b58
p619
I3
sV\u200b
I3
sV\u7b2c\u4e00\u4e2a
p620
I12
sV\u6b3a\u538b
p621
I3
sV\u5929
I6
sV\u83e9\u63d0
p622
I3
sV\u897f\u73ed\u7259
p623
I6
sV\u89c1\u8bc6
p624
I3
sV\u76f8\u7247
p625
I3
sV\u6854\u5b50
p626
I3
sV\u9632\u6cbb
p627
I3
sV\u641c\u72d7
p628
I3
sVfuture
p629
I3
sV\u6613\u7ecf
p630
I3
sV\u4eae\u4e3d
p631
I3
sV\u7b54\u6848
p632
I15
sV\u5404\u5bb6
p633
I6
sV\u5973\u6027
p634
I3
sV360
p635
I6
sV\u6574
I3
sV\u8d85\u8d8a
p636
I3
sV\u5f00\u59cb
p637
I48
sV\u8231
I3
sV\u5176\u4e2d
p638
I9
sV\u60f3\u6cd5
p639
I3
sV\u5bf9\u6b64
p640
I3
sV\u5077\u5077
p641
I3
sV\u57ce\u533a
p642
I6
sV\u6c99\u5751
p643
I6
sV\u5199\u9053
p644
I3
sV\u81ea\u4fe1
p645
I3
sV\u7ae0\u9c7c
p646
I3
sV\u5176\u4e00
p647
I3
sV\u8d74\u7f8e
p648
I3
sV\u4f18\u8d8a\u6027
p649
I3
sV\u6e38\u884c
p650
I3
sV\u6ca1\u8170
p651
I3
sV\u51e0\u56de
p652
I3
sV\u826f
I3
sV\u795d\u8d3a
p653
I3
sV\u6539\u9769\u5f00\u653e
p654
I3
sV\u5e73\u751f
p655
I3
sV\u4f1a\u5c55\u4e2d\u5fc3
p656
I3
sV\u4e00\u4ef6
p657
I3
sV\u6c14\u8840
p658
I3
sV\u8425\u517b\u5e08
p659
I3
sV\u8f6e\u5230
p660
I3
sV\u8eab\u8fb9
p661
I6
sV\u767e
I3
sV\u559d\u5f69
p662
I3
sV\u88c2\u54e5
p663
I3
sV\u7a7f
I15
sV\u6539\u9769
p664
I12
sV\u591a\u91cd
p665
I3
sV\u5317\u4eac
p666
I81
sV\u8df3\u821e
p667
I3
sV\u7b80
I9
sV\u80cc\u666f
p668
I6
sV\u56db\u65a4
p669
I3
sV\u611f\u5192
p670
I6
sV\u8282\u6c14
p671
I6
sV\u7a97\u5916
p672
I3
sV\u98d8\u9999
p673
I3
sV\u4e00\u4f17
p674
I3
sV\u82f1\u6587
p675
I6
sV\u4e00\u4f1a
p676
I3
sV\u6cd5\u5170\u514b\u798f\u673a\u573a
p677
I3
sV\u516c\u5173
p678
I9
sV\u51fa\u8272
p679
I9
sV\u7535\u8bdd\u4f1a
p680
I15
sV\u79ef\u7d2f
p681
I6
sV\u5bc2\u5be5
p682
I3
sV\u5e73\u5eb8
p683
I3
sV\u98de\u673a
p684
I18
sV\u5f18\u626c
p685
I6
sV\u76f8\u53cd
p686
I6
sV\u800c\u540e
p687
I3
sV\u745c\u4f3d
p688
I99
sV\u672c
I3
sV\u5185\u8863
p689
I3
sV.
I24
sV\u51fb\u7403
p690
I3
sV\u540e\u679c
p691
I3
sV\u8205\u5988
p692
I3
sV\u70b9
I24
sV\u5c55\u5f00
p693
I3
sV\u9053\u573a
p694
I3
sV\u8c03\u6574
p695
I15
sV\u8bf1\u60d1
p696
I3
sV\u4e0a\u697c
p697
I3
sV\u641e\u5b9a
p698
I6
sV\u59d0\u5c31
p699
I3
sV\u4e09\u5b9d
p700
I3
sV\u597d\u5403
p701
I3
sV\u8fc7
I63
sV\u4e3a\u6b64
p702
I3
sV\u4e16\u754c
p703
I15
sV\u7f3a\u4e4f
p704
I3
sV..
p705
I15
sV\u6d77\u6ee9
p706
I3
sV\u5750\u7a7f
p707
I3
sV\u843d\u8d25
p708
I3
sV\u56db\u8282
p709
I3
sV\u59d3
I3
sV\u8fb9\u4e0a
p710
I3
sV\u5c71\u4e1c\u4eba
p711
I3
sV\u5b54
I3
sV\u8868\u626c
p712
I3
sV\u7238
I3
sV\u5546\u5708
p713
I3
sV\u516c\u5171
p714
I3
sV\u4e8e
I12
sV\u5927\u5927
p715
I3
sV\u65e5\u5f0f
p716
I6
sV\u5565\u4e8b
p717
I3
sV\u4e0d\u8bb2\u6761\u4ef6
p718
I9
sV\u4ea4\u5f85
p719
I3
sV\u521d\u6b65
p720
I12
sV\u8d70
I39
sV\u79fb\u5c45
p721
I3
sV\u64b0\u6587
p722
I3
sV\u5fc3\u8df3
p723
I3
sV\u5de6\u4e0a\u89d2
p724
I3
sV\u8352\u90ca\u91ce\u5916
p725
I3
sV\u8d76\u4e0a
p726
I3
sV\u7f3a\u70b9
p727
I3
sV\u7206\u7b11
p728
I3
sV\u671f\u671b
p729
I3
sV\u4e0d\u7531\u5f97
p730
I3
sVis
p731
I21
sV\u4f53\u73b0
p732
I3
sVit
p733
I6
sV\u6625\u8da3
p734
I3
sV\u4ee5\u5f80
p735
I3
sV\u5c11
I6
sV\u76f2\u4eba
p736
I6
sVin
p737
I6
sV\u672c\u571f
p738
I3
sV\u6500\u7259
p739
I3
sV\u677f\u5b50
p740
I3
sV\u4e1d
I6
sV\u4f17\u591a
p741
I3
sV\u63a2\u5bfb
p742
I3
sV\u5927\u7247
p743
I3
sV\u5468\u5e74\u7eaa\u5ff5
p744
I3
sV\u5c55\u4f1a
p745
I3
sV\u9171\u6cb9
p746
I3
sV:
I123
sV\u7a9d\u513f
p747
I3
sV\u96e8
I6
sV\u536b\u751f\u95f4
p748
I3
sV\u8c31
I3
sV\u6240\u9700
p749
I3
sV\u81ea\u884c\u8f66
p750
I18
sV\u529e\u4e8b\u5904
p751
I3
sVV5
p752
I3
sV\u53ca
I6
sV\u5973\u4e3b\u89d2
p753
I3
sV\u5176\u4f59
p754
I3
sV\u4e00\u8fb9
p755
I6
sV\u9646\u7eed
p756
I3
sV\u6b63\u662f
p757
I3
sV\u4e00\u4e2a\u591a\u6708
p758
I3
sV\u4ece\u672a
p759
I9
sV\u6ca1\u60f3\u5230
p760
I6
sV\u51b0\u7cd6
p761
I3
sV\u8c22\u8c22
p762
I3
sV\u8f66\u6d77
p763
I3
sVbu
p764
I3
sV\u641e\u7b11
p765
I6
sV\u65e0\u8da3
p766
I3
sV\u51f6
I6
sV\u76ee\u7684
p767
I6
sV\u540e\u6765
p768
I18
sV\u81f3\u4eca
p769
I6
sV\u5484\u5484\u903c\u4eba
p770
I3
sV\u98de\u5954\u800c\u6765
p771
I3
sV\u5f15\u7528
p772
I3
sV\u80f8\u812f
p773
I3
sV\u9a97\u59d0
p774
I3
sV\u9053\u8def
p775
I3
sVguardian
p776
I3
sV\u63a8\u5fc3\u7f6e\u8179
p777
I3
sV\u671f\u6743
p778
I3
sV\u5728\u5ea7
p779
I3
sV\u516c\u5e73
p780
I3
sVDaniel
p781
I3
sV\u5b7d
I3
sVmin
p782
I6
sV\u6c34\u5e73
p783
I3
sV\u5199\u7167
p784
I3
sV\u4e24\u5c81
p785
I3
sV\u52a0\u73ed\u52a0\u70b9
p786
I3
sVHilton
p787
I3
sV\u8bf4
I219
sV\u4f24\u5fc3
p788
I3
sV\u53d7\u5230
p789
I3
sVthe
p790
I6
sV\u52a8\u6001
p791
I3
sV\u63a8\u8350
p792
I6
sV\u6781
I9
sV\u672a\u80fd
p793
I6
sV\u4f18\u5148
p794
I3
sV\u6b63\u786e
p795
I6
sV\u80c3\u764c
p796
I3
sV\u4e3b\u4efb
p797
I6
sVphoto
p798
I3
sV\u4e0d\u53ef
p799
I3
sV\u6c14
I3
sV\u53e0\u52a0
p800
I3
sV\u53d7\u51c9
p801
I3
sV\u4e00\u7897
p802
I9
sV\u9635\u52bf
p803
I3
sV\u6e05\u9192\u5242
p804
I3
sV\u624b\u673a
p805
I27
sV\u968f\u8eab\u643a\u5e26
p806
I3
sV\u50b2\u6e38
p807
I3
sV\u7231\u60c5\u6545\u4e8b
p808
I3
sV\u70df\u96fe
p809
I9
sV\u4e0a\u8fc7
p810
I3
sV\u767e\u5ea6
p811
I3
sV\u8bfa\u57fa\u4e9a
p812
I30
sV\u7ed3\u679c
p813
I6
sV\u4f7f\u547d\u611f
p814
I3
sV\u6f02\u4eae
p815
I9
sV\u592a
I60
sV\u65ad
I6
sV\u5929\u6c14
p816
I9
sV\u6210\u529f\u8005
p817
I3
sV\u656c\u4f69
p818
I3
sV\u6109\u5feb
p819
I6
sV\u4e00\u773c
p820
I3
sV\u62c9\u5170\u624e\u5b9d
p821
I6
sV\u6293\u62cd
p822
I3
sV\u611f\u52a8
p823
I3
sV\u5168\u7403
p824
I6
sV\u6316\u51fa
p825
I6
sV\u5c3c
I3
sV\u6210\u540d
p826
I3
sVD
I3
sV\u4f46
I69
sV\u7f9e\u6127\u96be\u5f53
p827
I3
sVSetup
p828
I3
sV\u9ad8\u8ddf\u978b
p829
I3
sV\u50cf
I45
sV\u8349\u76d6
p830
I3
sV\u4e00\u5fc3
p831
I3
sV\u7f8e\u597d
p832
I6
sV\u548c\u838e\u83ab
p833
I3
sV\u5b9e\u610f
p834
I3
sV\u8857\u821e
p835
I9
sV\u8001\u5e08
p836
I42
sV\u7f8e\u5973
p837
I6
sV\u8ddd
I3
sV\u5723\u5f7c\u5f97\u5821
p838
I3
sV\u5931\u660e
p839
I3
sV\u4e0b\u96e8
p840
I3
sV\u6539\u540d
p841
I3
sV\u51e0\u7bc7
p842
I3
sV\u52a0\u9a97
p843
I3
sV55
p844
I3
sV\u4e07\u4f17\u77a9\u76ee
p845
I3
sV51
p846
I3
sV\u70e7\u809a
p847
I3
sV\u68b3\u5934
p848
I3
sV\u4e70
I54
sV\u7403\u5305
p849
I3
sV5.
p850
I6
sV\u90e8\u5206
p851
I3
sV\u5177\u4f53\u505a\u6cd5
p852
I3
sV\u7f51\u7edc\u8425\u9500
p853
I3
sV\u9c7c
I3
sV\u8def\u8fb9
p854
I3
sV\u6f14
I6
sV\u6e4d\u6025
p855
I3
sV\u53d1\u73b0
p856
I39
sV\u5feb\u8981
p857
I3
sV\u65f6\u4ee3
p858
I3
sVold
p859
I3
sV\u4ece\u5929
p860
I3
sV\u5404\u9986
p861
I3
sV\u8d85\u8fc7
p862
I6
sV\u7b14\u8bb0\u672c
p863
I3
sV\u548c
I228
sV\u5f00\u5b8c
p864
I3
sV\u90ed\u6653\u5cf0
p865
I3
sV\u5403\u5403\u559d\u559d
p866
I3
sV\u6807\u51c6
p867
I6
sV\u73af\u4fdd
p868
I9
sV\u5229\u6da6\u7387
p869
I18
sV\u4fe1\u53f7
p870
I3
sV\u4f7f\u7528
p871
I12
sV\u4f24
I3
sV\u771f\u7406
p872
I3
sV\u6d88\u9000
p873
I3
sV\u96cd\u5bb9
p874
I3
sV\u7231\u604b
p875
I3
sV\u51fa\u7c7b\u62d4\u8403
p876
I3
sV\u770b\u89c1
p877
I6
sV\u66f4\u597d
p878
I9
sV\u5fc3\u4e2d
p879
I9
sV\u6ca1\u6709
p880
I45
sV\u9aa8
I3
sV\u5b50\u5b59
p881
I3
sV\u6d77\u6d0b
p882
I3
sV\u76f8\u9047
p883
I6
sV/
I177
sV\u96a8\u53e3
p884
I3
sV\u627e\u5230
p885
I27
sV\u4e1a\u7ee9
p886
I18
sV\u6cd5\u5f8b
p887
I6
sV\u5237\u5b50
p888
I3
sV\u5339
I9
sV\u4e00\u4e00\u5bf9\u5e94
p889
I3
sV\u5f02\u5e38
p890
I6
sV\u4f1a\u540e
p891
I3
sV\u5fae\u514b
p892
I3
sV\u6ca1\u6765
p893
I3
sV\u5348\u591c
p894
I3
sV\u53c2\u8003
p895
I3
sV\u9280\u5149
p896
I3
sV\u4e0a\u7f51
p897
I12
sV\u5b8c\u5168
p898
I3
sV\u592a\u9633
p899
I3
sV\u7f51
I6
sV\u5e2e\u5fd9
p900
I12
sV\u57f9\u517b
p901
I9
sV\u968f\u673a
p902
I3
sV\u8003\u8651\u4e00\u4e0b
p903
I3
sVcharice
p904
I3
sV\u4ffa\u5bb6
p905
I6
sV\u65e5\u5185\u74e6
p906
I3
sV\u5fc3\u7530
p907
I6
sVFirst
p908
I3
sV\u5fb7\u6587
p909
I3
sV\u62a4\u680f
p910
I3
sV\u590d\u82cf
p911
I3
sV\u7ed3\u675f
p912
I9
sV\u547d\u8fd0
p913
I3
sV\u7231\u5c14\u5170
p914
I6
sV\u62a5\u544a
p915
I15
sV\u522e\u98ce
p916
I3
sV\u866b
I3
sV\u653e\u751f
p917
I6
sV\u672c\u5468
p918
I3
sV\u6ce8\u610f\u529b
p919
I3
sV\u81ea\u5f37
p920
I3
sV\u71c3\u7078
p921
I3
sV\u6d41\u5e74
p922
I3
sV\u5409\u6728\u5185\u5179
p923
I3
sV\u500d\u611f
p924
I3
sV\u51fa
I18
sV\u5f53\u5dee
p925
I3
sV\u51b3\u8d5b
p926
I3
sV\u6700
I66
sV\u5835\u795e
p927
I3
sV\u5927\u8fde
p928
I3
sV\u8d54\u507f
p929
I6
sV\u8a89
I3
sV\u6253\u9032
p930
I3
sV\u578b
I18
sV\u4e4b\u540e
p931
I3
sV\u5730\u513f
p932
I3
sV\u4e09\u79cb
p933
I3
sV\u51e0\u6b21
p934
I3
sV\u7fa4\u5c45\u52a8\u7269
p935
I3
sV\u6b63\u597d
p936
I3
sV\u5fd8
I9
sV\u8f9b
I3
sV\u5386\u7a0b
p937
I3
sV\u5929\u6d25
p938
I6
sV\u65e0\u7ebf
p939
I3
sV\u6700\u521d
p940
I3
sV\u4eac\u6d25\u5180
p941
I3
sV\u89e3\u91ca
p942
I9
sV\u62bd\u53d6
p943
I3
sV\u80cc\u540e
p944
I6
sV\u5e26
I48
sV\u7761\u89c9
p945
I9
sV\u7b28
I3
sV\u4e0b\u5348
p946
I9
sV\u9ad8\u8d28\u91cf
p947
I3
sV\u51ac\u5929
p948
I6
sV\u4e0a\u6f14
p949
I6
sV\u5341\u8db3
p950
I3
sV\u6700\u7231
p951
I3
sV\u7ea2\u4eba
p952
I3
sV\u8f66\u8f86
p953
I9
sV\u4f53\u80b2
p954
I3
sV\u56de
I6
sV\u6570\u636e
p955
I3
sV\u96f2\u98db\u63da
p956
I3
sVhappy
p957
I3
sV\u89c6\u9891
p958
I9
sV\u5f69\u8272
p959
I3
sV\u60c5
I3
sV\u852b\u7684
p960
I3
sV\u611f\u53d7
p961
I6
sV\u57cb
I3
sV\u54c1\u8336
p962
I3
sV\u7ea2\u5229
p963
I6
sV\u91cf
I6
sV\u5317\u4e0a
p964
I6
sV\u8339\u8339
p965
I3
sV8.
p966
I3
sV\u5fc3\u7406\u5b66\u5bb6
p967
I3
sV\u65ad\u5b50\u7edd\u5b59
p968
I3
sV\u5178\u793c
p969
I6
sV\u9a97\u5b50
p970
I3
sV\u8fdb
I6
sV\u65b9\u821f\u5b50
p971
I3
sV\u656c\u4e1a
p972
I3
sV\u51e1\u5c3c
p973
I3
sV\u9760
I9
sV\u5462
I48
sV\u5999\u8bed
p974
I3
sV\u8d70\u8d77
p975
I3
sV\u611f\u53f9
p976
I3
sV\u5ae9
I3
sV\u5426\u5b9a
p977
I3
sV\u5fe0\u8bda
p978
I3
sV\u662f\u4e0d\u662f
p979
I3
sV\u4e1a\u52a1
p980
I6
sV\u626e
I3
sV\u53d1\u7ed9
p981
I3
sV\u5929\u8d4b
p982
I3
sV\u745e\u58eb
p983
I3
sV\u7ec3\u745c\u73c8
p984
I3
sV\u4e00\u8d77
p985
I18
sV\u773c\u89c1
p986
I3
sV\u5546\u7528
p987
I6
sV\u5ed6\u667a
p988
I6
sV\u7a76\u7adf
p989
I6
sV\u773c\u955c
p990
I9
sV\u6280\u80fd
p991
I3
sV\u4e0a\u5e1d
p992
I3
sV\u4e0d\u5267
p993
I3
sV\u54ea
I30
sV\u8005
I3
sV\u672a\u8bd5\u8fc7
p994
I3
sV\u4e86
I858
sV\u770b
I96
sV\u667a\u6167
p995
I9
sV\u65b9\u9762
p996
I3
sV\u6709\u529b
p997
I3
sV\u4e0b\u73ed
p998
I6
sV\u4eba\u683c
p999
I15
sV\u82db\u6c42
p1000
I3
sV\u9ebb\u70e6
p1001
I9
sV\u6696
I3
sV\u5730\u4e0a
p1002
I3
sV\u5730\u4e0b
p1003
I3
sV\u65e0\u5e38
p1004
I3
sV\u540e\u6094
p1005
I3
sV15.
p1006
I3
sV\u6df1\u6c34
p1007
I3
sV\u9f99
I3
sVno
p1008
I3
sVnot
p1009
I3
sVChoying
p1010
I6
sV\u8dcc\u8dcc
p1011
I3
sV\u8868\u767d
p1012
I3
sV\u517b\u751f
p1013
I6
sV\u5341\u5173
p1014
I3
sV\u6bd4\u59d0
p1015
I3
sV\u513f\u5b50
p1016
I3
sV\u60c5\u4eba\u8282
p1017
I12
sV\u52a8\u624b
p1018
I3
sV\u79d2\u6740
p1019
I3
sV\u642c\u5230
p1020
I3
sV\u65b0\u6f6e\u6d41
p1021
I3
sV\u4ece\u6b64
p1022
I3
sV\u840c\u9a9a
p1023
I3
sVnaive
p1024
I3
sV\u53cc\u6027\u604b
p1025
I3
sV\u4f7f\u547d
p1026
I6
sV\u5de6\u53f3
p1027
I9
sV\u56e0\u6b64
p1028
I3
sV\u4e24\u5ea7
p1029
I3
sV\u9f13\u52b1
p1030
I9
sV\u4e0b\u53a8
p1031
I3
sV\u8f66\u8f7d
p1032
I3
sV\u5409\u5229
p1033
I3
sV\u731b\u5403
p1034
I3
sV\u6696\u878d\u878d
p1035
I6
sV\u8ba4\u4e3a
p1036
I21
sV\u80af\u5b9a
p1037
I3
sV\u6b4c
I3
sV\u4e0d\u7edd\u4e8e\u8033
p1038
I3
sV\u4e0b\u53bb
p1039
I6
sV\u4f5b
I3
sV\u5e74\u5185
p1040
I3
sV\u4f24\u5bb3
p1041
I6
sV\u900f
I6
sV\u8bb0\u5f97
p1042
I6
sV\u7ecf\u6d4e
p1043
I6
sV\u91ca\u653e
p1044
I3
sV\u5d2d\u65b0
p1045
I3
sV\u5065
I3
sV\u5584\u7528
p1046
I3
sV\u673a\u4e0d\u53ef\u5931
p1047
I3
sV\u55b7\u568f
p1048
I3
sV\u4e94\u5957
p1049
I3
sV\u6539\u5584
p1050
I3
sV\u6d53\u5bc6
p1051
I6
sV\u4e09\u5929
p1052
I3
sV\u5496\u55b1
p1053
I3
sV\u7684\u8bdd
p1054
I9
sV\u4e92\u8054\u7f51
p1055
I15
sV\u5df4\u5c55\u4e2d
p1056
I6
sV\u53ec\u96c6
p1057
I3
sV\u7f8e\u98df
p1058
I3
sV\u7279
I6
sV\u8d22\u5e74
p1059
I6
sV\u96fe
I6
sV\u8d1f\u9762
p1060
I3
sV\u4e09\u5927
p1061
I12
sV\u8868\u60c5
p1062
I3
sV\u8981
I156
sV\u524d\u540e
p1063
I6
sV\u8fd9\u4f4d
p1064
I9
sV\u4e0a\u5199
p1065
I3
sV\u770b\u6765
p1066
I15
sV\u516c\u6c11
p1067
I3
sV\u7f29\u6c34
p1068
I3
sV\u3010
I108
sV\uff02
I39
sV\u5965\u5df4\u9a6c
p1069
I6
sV\u4e0d\u5df2
p1070
I3
sV\u9001\u7ed9
p1071
I3
sV\u4f1a
I48
sV\u8e6d
I9
sV\u6e10\u6e10
p1072
I3
sVone
p1073
I3
sV\u4e09\u56fd
p1074
I6
sV\u8bd5\u9a8c
p1075
I3
sV\u5b8c\u7f8e
p1076
I6
sV\u88ab
I51
sV\u5371\u673a
p1077
I3
sV\u7a33
I3
sV\u4e00\u822c
p1078
I3
sV\u5f53\u4e0b
p1079
I3
sV\u5168\u7a0b
p1080
I3
sV\u7eff\u8336
p1081
I3
sV\u840c\u751f
p1082
I3
sV\u73b0\u5728
p1083
I45
sV\u5f3a
I12
sV\u968f\u548c
p1084
I3
sV\u5404\u5730
p1085
I3
sV\u521a\u624d
p1086
I3
sV\u89c1
I27
sV\u5de8\u87f9
p1087
I6
sV\u670d\u52a1
p1088
I3
sV\u868a\u5b50
p1089
I3
sV\u5bf9\u7acb
p1090
I6
sV\u5fc3\u60c5
p1091
I12
sV\u4eac\u8154
p1092
I3
sV\u5927\u53d4
p1093
I3
sV\u8d77\u5230
p1094
I3
sV\u4e45\u5750
p1095
I3
sV\u5fc3\u60f3
p1096
I3
sV\u897f\u601d\u7f57
p1097
I3
sV\u80a5\u7855
p1098
I3
sV\u4e50\u5e93
p1099
I3
sV\u54ea\u4e2a
p1100
I3
sV\u6c14\u5b9a\u795e\u95f2
p1101
I3
sV\u5feb\u6765
p1102
I6
sV\u4e54\u5e03\u65af
p1103
I6
sV\u5468
I6
sV\u770b\u6709
p1104
I6
sV\u7d20\u6709
p1105
I3
sV\u5bb6\u91cc
p1106
I3
sV\u5f7c\u6b64
p1107
I3
sV\u7269\u8d44
p1108
I3
sV\u4f9d\u65e7
p1109
I9
sV\u5fc3\u80f8
p1110
I3
sV\u5929\u624d
p1111
I9
sVteam
p1112
I3
sV\u770b\u671b
p1113
I3
sV\u8fd0\u8425\u5546
p1114
I24
sV\u8001\u4eba
p1115
I12
sV\u5b9e\u65bd\u8005
p1116
I3
sV\u836f\u5e97
p1117
I3
sV\u6050\u60e7
p1118
I6
sV\u6807\u5fd7
p1119
I6
sV\u5408\u529b
p1120
I3
sV\u8868\u8fbe
p1121
I3
sV\u529e\u516c\u5ba4
p1122
I9
sV\u8207
I3
sV\u4e00\u628a
p1123
I9
sV\u597d\u51e0\u4e2a
p1124
I3
sV\u53c2\u4e4e
p1125
I3
sV\u7956\u56fd
p1126
I3
sV\u5404\u79cd
p1127
I15
sV\u5fc3\u601d
p1128
I3
sV\u8f6c\u53d1
p1129
I12
sV\u66f4\u591a
p1130
I3
sV\u4e0d\u662f\u6545\u610f
p1131
I3
sV\u9707\u60ca
p1132
I3
sV\u8fdb\u9a7b
p1133
I3
sV\u8ddf\u7740
p1134
I6
sV\u8001\u4e61
p1135
I3
sV\u7f8e\u578b
p1136
I3
sV\u65e2\u8981
p1137
I3
sV\u6c38\u4e0d
p1138
I3
sV\u9192\u609f
p1139
I6
sV\u6253\u5f97
p1140
I6
sV\u4e3b\u8981
p1141
I15
sV\u4e0d\u670d\u8f93
p1142
I3
sV\u8131
I9
sV\u6302\u724c
p1143
I3
sV\u540d\u5b57
p1144
I6
sV\u8fc7\u6ee4
p1145
I3
sV\u8001\u5e72\u90e8
p1146
I6
sV\u5df4\u4f10\u5229\u4e9a
p1147
I3
sV\u4e00\u90e8\u5206
p1148
I3
sV\u563f
I6
sV\u4f18\u7f8e
p1149
I3
sV\u521d\u516b
p1150
I3
sV\u64cd\u5f04
p1151
I3
sV\u6781\u7c89
p1152
I3
sV\u4fdd\u969c
p1153
I3
sV\u53c2\u4e0e
p1154
I12
sV\u5076
I9
sV\u5acc
I12
sV\u7b2b
I3
sV\u540c\u65f6
p1155
I15
sV\u5ba3\u79f0
p1156
I3
sV\u8bb0\u5fc6
p1157
I3
sV\u6726\u6727
p1158
I3
sV[
I15
sV\u5e72\u561b
p1159
I3
sV\u603b\u662f
p1160
I12
sV\u591a\u5c11
p1161
I9
sV\u8fce\u96be\u800c\u4e0a
p1162
I3
sV\u5c71\u6c34
p1163
I6
sV\u5c31\u8981
p1164
I18
sV\u8bb2\u7a76
p1165
I3
sV\u6765\u8bf4
p1166
I3
sVMB
p1167
I3
sV\u60f3\u60f3
p1168
I12
sV\u63d0\u4f9b
p1169
I9
sV\u65b0\u5e01
p1170
I3
sV\u7236\u6bcd
p1171
I3
sV\u767d\u6bdb
p1172
I3
sVshooter
p1173
I6
sV\u8fc7\u6765
p1174
I6
sVMV
p1175
I6
sV\u5938\u8d5e
p1176
I3
sV\u66f4
I39
sV\u6807\u7b7e
p1177
I3
sV\u4f3c\u4e4e
p1178
I3
sV\u4eba\u7978
p1179
I3
sV\u901a\u5730
p1180
I3
sV\u5bc6\u5bc6\u7684
p1181
I3
sV\u8fd9\u4e48
p1182
I39
sV\u532a
I3
sVlove
p1183
I3
sV\u4eba\u529b\u8d44\u6e90
p1184
I3
sV\u865a\u6784
p1185
I3
sV\u7b54\u8bb0\u8005\u95ee
p1186
I3
sV\u998b
I3
sV\u9ad8\u7ea7
p1187
I9
sVEnough
p1188
I3
sV\u65b7
I3
sV\u8bd5\u7528
p1189
I3
sV\u8bbe\u8ba1\u8005
p1190
I3
sV\u75af\u72c2
p1191
I15
sV\u94f6\u674f
p1192
I3
sV\u5988\u5440
p1193
I3
sVmarket
p1194
I3
sV\u95fb\u542c
p1195
I6
sV\u524d\u540e\u5de6\u53f3
p1196
I3
sV\u6625\u610f
p1197
I3
sV\u521b\u65b0
p1198
I9
sV\u5766\u7136
p1199
I3
sV\u897f\u6c99
p1200
I9
sV\u6307\u6570
p1201
I3
sV\u7528
I30
sV\u81ea\u6211
p1202
I15
sV\u4f1a\u5411
p1203
I3
sV\u4e0d\u64c5\u8f9e\u4ee4
p1204
I3
sV\u901b\u516c\u56ed
p1205
I3
sV\u4f53\u5f0f
p1206
I6
sViphone
p1207
I3
sV\u6811\u53c9
p1208
I3
sV\u6c34\u6d41
p1209
I3
sV\u65e0\u7ebf\u7f51\u7edc
p1210
I3
sV\u963f\u4ec0
p1211
I3
sV\u795e\u79d8
p1212
I3
sV\u5761
I3
sV\u6b63\u5728
p1213
I9
sV\u4ec5
I3
sV\u5168\u4e16\u754c
p1214
I6
sVF
I3
sV\u79cb
I3
sV\u7167\u7740
p1215
I3
sV\u4f4f\u9662
p1216
I6
sV\u5934\u53d1
p1217
I6
sV\u6311\u4e09\u62e3\u56db
p1218
I3
sV\u6beb\u65e0
p1219
I6
sV\u6865\u6bb5
p1220
I3
sV\u9165
I3
sV\u632b\u6298
p1221
I3
sV\u98ce\u5ea6
p1222
I6
sV\u7ed9\u51fa
p1223
I3
sV\u840c\u5446
p1224
I6
sV\u5047\u5976
p1225
I3
sV\u8fd9\u4e2a
p1226
I45
sV\u53d1\u5c55
p1227
I15
sV\u957f\u88d9
p1228
I3
sV\u533b\u9662
p1229
I6
sV\u5f00\u706b
p1230
I3
sV\u6210\u719f
p1231
I12
sV\u5e7f\u89d2
p1232
I3
sV\u81ea\u7701
p1233
I3
sV\u5f00\u9519
p1234
I3
sV\u56db\u6ea2
p1235
I3
sV\u51b7\u6c14
p1236
I3
sV\u6574\u4e2a
p1237
I3
sV\u5c31\u8bfb\u4e8e
p1238
I3
sV\u6c38\u8fdc
p1239
I6
sV\u7b2c\u4e8c\u5b63
p1240
I3
sVOur
p1241
I3
sV\u6d6a
I3
sV\u795d\u60a8
p1242
I3
sV\u5c31\u662f
p1243
I87
sV\u9ed8\u5ff5
p1244
I3
sV\u827e\u7078
p1245
I6
sV\u6c89\u9ed8
p1246
I3
sV\u5e38\u7528
p1247
I6
sV\u4f73\u671f
p1248
I3
sV\u5973\u7ea2
p1249
I3
sV\u6307
I3
sV\u4e00\u822c\u6765\u8bf4
p1250
I3
sV\u89c9\u5f97\u5f88\u6709
p1251
I3
sV\u62a2\u53bb
p1252
I3
sV\u7096
I3
sV\u9002\u5408
p1253
I3
sV\u8c22\u6069
p1254
I3
sV\u7537\u5b69
p1255
I3
sV\u897f\u6c99\u7fa4\u5c9b
p1256
I6
sV\u3011
I108
sV\u80f3\u818a
p1257
I3
sV\u81ea\u7f16
p1258
I6
sV\u4efb\u4f55\u4eba
p1259
I3
sV\u8bf4\u53d8\u5c31\u53d8
p1260
I3
sV\u6c47\u62a5
p1261
I3
sV\u4f17\u671b\u6240\u5f52
p1262
I3
sV\u5b89\u5fc3
p1263
I3
sV\u4f1a\u5b50
p1264
I3
sV\u902e\u52a0
p1265
I3
sV\u671f
I3
sV\u649e
I9
sV\u8d76\u7740
p1266
I3
sV\u5ee3\u544a
p1267
I3
sV\u5206\u5916\u5996\u5a06
p1268
I3
sV\u86c7
I3
sV\u8a00\u8f9e
p1269
I3
sV\u8fc7\u4e0a
p1270
I6
sV1
I54
sV\u751a\u597d
p1271
I3
sV\u7406\u8d22
p1272
I6
sV\u53bb\u8fc7
p1273
I3
sV\u592a\u6162
p1274
I3
sV\u8fdb\u6b65
p1275
I6
sV\u516c\u4fe1\u529b
p1276
I3
sV\u76f8\u5f53
p1277
I6
sV\u901a\u60e0\u6cb3
p1278
I3
sV\u7f57\u6c49\u679c
p1279
I3
sV\u723d
I3
sV\u6301\u658b
p1280
I3
sV\u6b65\u9053
p1281
I3
sV\u51b0\u6fc0\u51cc
p1282
I3
sV\u5e7f\u897f
p1283
I3
sV\u4e1c\u56db\u73af
p1284
I3
sV\u8fd9\u4e8b
p1285
I3
sV\u4e0d\u8131
p1286
I9
sV\u534a\u5c0f\u65f6
p1287
I6
sV\u7406\u7531
p1288
I3
sV\u9ebb\u9ebb
p1289
I3
sV\u4e00\u5b63\u5ea6
p1290
I6
sV\u5927\u96e8
p1291
I6
sV\u6a80\u9999\u5c71
p1292
I3
sV\u4e0d\u59a8
p1293
I3
sV\u589e\u52a0
p1294
I3
sV\u4e4c\u7634
p1295
I3
sV\u9075\u4ece
p1296
I3
sV\u5171\u60c5
p1297
I3
sV\u7f8e\u56fd
p1298
I15
sV\u672c\u5b50
p1299
I3
sV\u4e24\u70b9
p1300
I3
sV\u4e0d\u5c3d
p1301
I3
sV\u8bf8\u4f5b
p1302
I3
sV\u8fd0\u52a8
p1303
I6
sV\u67e5\u8d44\u6599
p1304
I3
sV\u83dc
I3
sV\u795e\u5947
p1305
I3
sV\u7cbe\u8f9f
p1306
I3
sV\u9152\u5e97
p1307
I6
sV\u751f\u517b
p1308
I3
sV\u7cbe\u795e
p1309
I21
sV\u597d\u8bdd
p1310
I3
sV\u95e8
I6
sV\u57ce\u5e02
p1311
I6
sV\u6760\u624d
p1312
I3
sV\u65e9\u4e0a\u597d
p1313
I3
sV\u8f6f
I3
sV\u6e05\u4e3d
p1314
I3
sV\u505a\u597d
p1315
I6
sV\u8fd9\u4eba
p1316
I3
sV\u8bc4\u8bba
p1317
I3
sV\u6e7f\u6c14
p1318
I3
sV\u6d4b\u8bd5
p1319
I18
sV\u77e5\u96be\u800c\u9000
p1320
I3
sV\u517b
I6
sV\u4eba\u6c11\u5e01
p1321
I3
sV\u4e3b\u610f
p1322
I3
sV\u7ef4\u62a4
p1323
I3
sV\u4f53\u91cd
p1324
I3
sV\u9e21\u76ae
p1325
I3
sV\u7a7f\u5b54
p1326
I3
sV\u8d85
I9
sV\u5077\u7aa5\u8005
p1327
I3
sV\u5a31\u4e50
p1328
I9
sV\u752d\u63d0
p1329
I3
sV\u6c38\u5174\u5c9b
p1330
I6
sV\u604b\u7231
p1331
I3
sV\u5206\u949f
p1332
I6
sV\u5693
I3
sV\u4e0d\u82e6
p1333
I3
sV\u95f2\u7740
p1334
I3
sV\u7b2c\u4e00\u6b21
p1335
I12
sV\u65e0\u56fd\u754c
p1336
I3
sV\u70c8\u65e5
p1337
I3
sV\u7ee7\u7eed
p1338
I6
sV\u7559\u5b66
p1339
I3
sV\u809a\u5b50
p1340
I3
sV\u201c
I81
sV\u5927\u5c9b
p1341
I3
sV\u7ba1
I6
sV\u5973\u4eba
p1342
I21
sV\u9500\u552e
p1343
I3
sV\u5927\u5305
p1344
I3
sVChiemsee
p1345
I3
sV\u4e0e\u65f6\u4ff1\u8fdb
p1346
I3
sV\u5b9a\u775b\u4e00\u770b
p1347
I3
sV\u7fb9
I3
sV\u5e38
I3
sV\u723d\u5feb
p1348
I3
sV\u81f3\u5c11
p1349
I12
sV\u8840\u62fc
p1350
I6
sV\u575a\u51b3
p1351
I3
sV\u65c5\u884c
p1352
I3
sV\u6dd1\u5973
p1353
I6
sV\u673a\u7968
p1354
I3
sV\u52a0\u65a4
p1355
I3
sV\u4f8b\u5982
p1356
I3
sV\u90a3\u4e48
p1357
I27
sV\u9762\u5411\u672a\u6765
p1358
I6
sV\u584c
I9
sV\u53d1
I15
sV\u8bf5\u7ecf
p1359
I3
sV\u4eea\u6001\u4e07\u65b9
p1360
I3
sV\u53d7\u76ca\u532a\u6d45
p1361
I3
sV\u547c\u5578
p1362
I3
sV1952
p1363
I3
sV\u8fd9
I177
sV\u8be5
I15
sV\u52c3\u53d1
p1364
I3
sV\u7279\u8272
p1365
I6
sV\u63a8\u52a8\u529b
p1366
I6
sV\u65e9\u51fa\u665a\u5f52
p1367
I3
sV\u6574\u6d01
p1368
I6
sV\u4e07\u5723\u8282
p1369
I3
sV\u6293\u72c2
p1370
I6
sV\u70e7
I6
sV\u7f13\u7f13
p1371
I3
sV\u59cb\u751f
p1372
I3
sV\u6f5c\u89c4\u5219
p1373
I3
sV\u4e0d\u5982
p1374
I6
sVGAME
p1375
I3
sV\u6f6e
I3
sV\u4e0a\u73ed
p1376
I6
sV\u4e0d\u5f97
p1377
I3
sV\u4e00\u6574\u5929
p1378
I3
sV\u5e03\u65bd
p1379
I3
sV\u6218\u8230
p1380
I3
sV\u6559\u80b2
p1381
I6
sV\u5e73\u9759
p1382
I9
sV\u9690\u85cf
p1383
I3
sV\u8fc7\u65e9
p1384
I3
sV\u563f\u563f
p1385
I3
sV\u4e03
I3
sV\u91cd\u5ea6
p1386
I3
sV\u51b3\u5b9a
p1387
I12
sV\u6709
I264
sV\u5bb6\u732b
p1388
I3
sVyeah
p1389
I3
sV\u5c0f
I30
sV\u7f8e
I21
sV\u54c8\u54c8\u5927\u7b11
p1390
I3
sV\u6211\u4fe9
p1391
I3
sV\u4efb\u52a1
p1392
I9
sV\u4e00\u6447\u4e09\u6643
p1393
I3
sV\u7edd\u6d3b
p1394
I3
sV\u9ec4\u5bb6\u9a79
p1395
I3
sV\u6d6a\u6f2b
p1396
I3
sV\u89e6\u52a8
p1397
I6
sV\u6302\u6321
p1398
I3
sV\u5bb6\u65cf
p1399
I3
sV\u521d\u590f
p1400
I3
sV\u4e0a\u4f4d
p1401
I3
sV\u8fdb\u884c
p1402
I18
sV\u4e3b\u6253
p1403
I3
sV\u4eae\u76f8
p1404
I3
sV\u68c9\u9ebb
p1405
I3
sV\u767d\u5934\u53d1
p1406
I6
sV\u80dc\u5229
p1407
I3
sV\u52a8\u4f5c
p1408
I3
sV\u5efa\u7acb
p1409
I3
sV\u653b\u575a
p1410
I3
sV\u53d1\u7535\u673a
p1411
I3
sV\u7edd\u5bf9
p1412
I3
sV\u5b9e\u8df5
p1413
I3
sV\u6625\u8282
p1414
I9
sV\u9632\u62a4
p1415
I6
sV\u806a\u660e
p1416
I3
sV\u8ba1\u5212
p1417
I21
sV\u88f9\u8db3\u4e0d\u524d
p1418
I3
sV\u8fdb\u8865
p1419
I3
sV\u5bb6
I9
sV\u5145\u7535
p1420
I3
sV\u7528\u5fc3
p1421
I6
sV\u5fc3\u667a
p1422
I3
sV\u9a71\u9664
p1423
I3
sV\u4f53\u7cfb
p1424
I6
sV\u87f9\u8089
p1425
I9
sV\u4e43
I24
sV\u5982\u7ec7
p1426
I3
sVG
I33
sVstate
p1427
I3
sV\u624d
I24
sV\u7b14\u76f4
p1428
I3
sV\u5f20\u71d5\u592b
p1429
I3
sV\u6e05\u6d01
p1430
I3
sV\u8bdd\u9898
p1431
I3
sV\u5bf9\u7167
p1432
I3
sV\u552f\u4e00
p1433
I3
sV\u6570\u636e\u6d41
p1434
I3
sV\u76f4\u63a5
p1435
I3
sV\u4e0a\u5348
p1436
I9
sV\u8857
I3
sVOne
p1437
I3
sV\u4f59
I3
sV\u5341\u4e09\u5339
p1438
I3
sV\u6ed1\u96ea
p1439
I3
sV\u626c\u683c
p1440
I9
sV\u7531\u4e8e
p1441
I9
sV\u67b6\u7740
p1442
I3
sV\u50b2\u96ea\u51cc\u98ce
p1443
I3
sV\u8fc7\u654f
p1444
I6
sV\u6447\u66f3
p1445
I3
sV\u660e\u524d
p1446
I3
sV\u6781\u5ea6
p1447
I3
sV\u6700\u5feb
p1448
I3
sV\u6cb9\u8102
p1449
I3
sV\u8fdb\u5c0f
p1450
I3
sV\u5458\u5de5
p1451
I15
sV\u5355\u4f4d
p1452
I6
sV\u4f20\u8f93
p1453
I3
sV\u4e24\u624b\u7a7a\u7a7a
p1454
I3
sV\u4ea4\u901a
p1455
I15
sV\u5927\u6c14
p1456
I3
sV\u51d1\u6570
p1457
I3
sV\u6309\u952e
p1458
I3
sV\u7387\u5148\u5782\u8303
p1459
I6
sV\u5931\u63a7
p1460
I3
sV\u5934\u9876
p1461
I3
sV\u717d
I3
sV\u9002\u5e94
p1462
I3
sV\u8106\u8f6f
p1463
I3
sV\u4e0a\u5c9b
p1464
I3
sV\u78e8\u53bb
p1465
I3
sV\u793e\u533a
p1466
I3
sV\u8138\u76ae
p1467
I3
sV\u8054\u7cfb
p1468
I6
sV\u7ba1\u63a7
p1469
I6
sV\u9053
I6
sV\u6708
I33
sV\u65e5\u7167
p1470
I3
sV\u65e0\u52a9
p1471
I3
sV\u5c0f\u4f19\u5b50
p1472
I6
sV\u7f3a
I3
sV\u70b9\u51fb
p1473
I12
sV\u5012
I9
sV\u8f89\u714c
p1474
I3
sV\u4e00\u811a
p1475
I3
sV\u4f18
I3
sVopen
p1476
I3
sV\u4e4b\u4e3e
p1477
I3
sV\u4e0d\u5efa
p1478
I6
sV\u4e4b\u4e00
p1479
I9
sV\u7ca5
I3
sV\u7a1a\u5ae9
p1480
I3
sV\u4e0d\u7ec3
p1481
I6
sV\u5728
I279
sV\u4fdd\u4f51
p1482
I6
sV\u88ad
I3
sV\u6bdb\u5dfe
p1483
I3
sV\u4f24\u7740
p1484
I3
sV\u5c0f\u59d1\u5a18
p1485
I3
sV\u5927\u57ce\u5e02
p1486
I6
sV\u6749\u6811
p1487
I3
sV\u53d1\u5e03
p1488
I24
sV2
I63
sV\u4f0d\u59d0
p1489
I3
sV\u6295\u8d44
p1490
I9
sV\u53bb
I138
sV\u653e\u5f03
p1491
I3
sV\u8d22
I6
sV\u54b1\u4eec
p1492
I6
sV\u83e9\u8428
p1493
I3
sVa
I3
sV\u6069\u4eba
p1494
I3
sV\u81ea\u5c0a
p1495
I3
sV\u5584\u826f
p1496
I15
sV\u533b\u6cbb
p1497
I3
sV\u4f0d
I3
sV\u91cd\u7f6e
p1498
I6
sV\u7528\u5217
p1499
I3
sV\u884c\u52a8
p1500
I3
sV\u56fd\u8d38
p1501
I3
sV\u5207\u5207
p1502
I3
sVMiles
p1503
I3
sV\u9996\u9875
p1504
I3
sV\u8fde\u7740
p1505
I3
sV\u7f8e\u5473
p1506
I3
sV\u68b3\u7406
p1507
I3
sV\u56de\u56fd
p1508
I3
sV11
p1509
I18
sV10
p1510
I27
sV13
p1511
I39
sV12
p1512
I24
sV15
p1513
I18
sV\u9519\u8bef
p1514
I6
sV17
p1515
I6
sV16
p1516
I6
sV19
p1517
I6
sV18
p1518
I12
sV\u897f\u95e8\u5b50
p1519
I18
sV\u7ecf\u9a8c\u4e0d\u8db3
p1520
I3
sV\u8def
I18
sV.5
p1521
I6
sV\u5173\u5fc3
p1522
I3
sV\u7b80\u79f0
p1523
I3
sV\u76f4\u64ad
p1524
I12
sV\u7a81\u7834
p1525
I3
sV\u5e0c\u745f
p1526
I3
sV\u5c0f\u670b\u53cb
p1527
I3
sV\u6349\u895f\u89c1\u8098
p1528
I3
sV\u90fd
I246
sV\u8131\u79bb
p1529
I3
sV\u7cbe\u5bc6
p1530
I6
sV1.
p1531
I9
sVand
p1532
I3
sV\u4ed8\u94b1
p1533
I6
sV\u751f\u731b
p1534
I3
sV\u5c3d\u5168\u529b
p1535
I3
sV\u6740
I9
sV\u6ef4\u6c57
p1536
I3
sVDD
p1537
I3
sV\u6f84\u6e05
p1538
I3
sV\u6f14\u8bb2
p1539
I9
sV\u5e94\u5f53
p1540
I3
sV\u82b1\u8349
p1541
I3
sV\u53bb\u5e74\u540c\u671f
p1542
I12
sV\u4e92\u64cd\u4f5c
p1543
I3
sV\u51b7\u8273
p1544
I3
sV\u5723\u8bde
p1545
I12
sV\u5012\u4ef0
p1546
I3
sV\u8eab\u5b50
p1547
I3
sV\u79fb\u52a8
p1548
I24
sV\u201d
I78
sV\u5e2e\u52a9
p1549
I9
sV\u4e00\u6c7d\u5927\u4f17
p1550
I3
sV\u7ec4\u5408
p1551
I3
sV\u79f0
I3
sV\u6563\u5fc3
p1552
I3
sV\u592a\u7cbe\u5f69
p1553
I3
sVWiFi
p1554
I3
sV\u7ba1\u7406\u8005
p1555
I3
sV\u58f0\u97f3
p1556
I3
sV\u7b2c\u56db
p1557
I3
sV\u653e\u5f97
p1558
I3
sV\u963f\u62c9\u4f2f
p1559
I3
sV\u63b0
I3
sV\u4fe9\u628a
p1560
I3
sV\u6293\u4f4f
p1561
I3
sV\u897f\u4e0a
p1562
I6
sV\u602a
I3
sV\u5217\u4e3e
p1563
I3
sV\u5931\u671b
p1564
I6
sV\u5931\u8bef
p1565
I6
sV\u96be
I12
sV\u4e2d\u6587
p1566
I3
sV\u8f68\u8ff9
p1567
I3
sV\u85cf
I3
sV\u5377
I3
sV\u62c6
I3
sV\u957f\u5b89\u8857
p1568
I6
sVGOD
p1569
I3
sV\u5927\u697c
p1570
I3
sV\u73af\u8282
p1571
I3
sV\u5927\u65fa
p1572
I3
sV\u9753
I3
sV\u4f9d\u7136
p1573
I9
sV\u5348\u540e
p1574
I6
sV\u9762\u8272
p1575
I6
sV\u8fd8
I84
sV\u5df2\u4e8e
p1576
I3
sV]
I12
sV\u5bbd\u6170
p1577
I3
sV\u94a2\u7434
p1578
I3
sV\u771f\u597d
p1579
I9
sVBeyond
p1580
I3
sV\u5f3a\u70c8
p1581
I3
sV\u4fe1\u606f\u91cf
p1582
I3
sV\u4ee5\u53ca
p1583
I9
sV\u65b0\u7eff
p1584
I3
sV\u5e74\u8f7b\u4eba
p1585
I3
sV\u8fdf\u5230
p1586
I3
sV\u9664\u4e86
p1587
I9
sV\u7814\u7a76\u6210\u679c
p1588
I3
sV\u5c06\u6765
p1589
I3
sV\u9ad8\u85aa
p1590
I3
sV\u54c8\u4e8c\u4e86
p1591
I3
sV\u89e6\u53ca
p1592
I3
sV\u653e\u5fc3
p1593
I3
sV\u57fa\u59c6
p1594
I3
sV\u957f
I6
sV\u56fe
I12
sV\u8d81
I3
sV\u638c\u63a7
p1595
I3
sV\u6c14\u52bf\u78c5\u7934
p1596
I3
sV\u5bbd\u655e
p1597
I3
sVToo
p1598
I3
sVWee
p1599
I3
sVshow
p1600
I3
sV\u6ca1\u6da8
p1601
I3
sV\u9f8d
I3
sV\u59d0\u957f
p1602
I3
sV\u5f97\u6709
p1603
I3
sV\u52d9
I3
sV\u5f3a\u973e
p1604
I3
sV\u8eab\u6750
p1605
I3
sV\u62a5\u7eb8
p1606
I3
sV\u6492\u6b22
p1607
I3
sV\u94f6\u624d
p1608
I3
sV\u65e0\u7a77
p1609
I3
sV\u90a3\u5730
p1610
I3
sV\u5404
I3
sV\u6216\u56e0
p1611
I3
sV\u7531
I3
sV\u6d3b\u52a8
p1612
I3
sV\u6700\u5927
p1613
I15
sV\u7531\u8877
p1614
I3
sVRajeev
p1615
I3
sV\u6d4b\u4e0b
p1616
I3
sV\u540c\u610f
p1617
I6
sV\u5730\u65b9
p1618
I12
sV\u5927\u4e9b
p1619
I3
sV3
I66
sV\u522b\u54ed
p1620
I3
sV\u77f3\u5934
p1621
I3
sV\u51e0\u5339
p1622
I3
sV\u96cc\u96c4\u5f02\u682a
p1623
I3
sV\u65c5\u6e38
p1624
I15
sV\u6ca1\u4eba\u6562\u62c9
p1625
I3
sV\u751f\u547d\u529b
p1626
I6
sV\u7838
I6
sV\u505c\u6b62
p1627
I3
sV\u8bef\u4eba
p1628
I3
sV\u8086\u8650
p1629
I3
sV\u5f3a\u5927
p1630
I24
sV\u4e2d\u60c5\u5c40
p1631
I3
sV\u7728\u773c
p1632
I3
sVget
p1633
I3
sV\u8c03\u8c03
p1634
I3
sV\u8457\u540d
p1635
I3
sV\u8fc7\u53bb
p1636
I15
sV\u5fcd
I3
sV\u5584\u884c
p1637
I3
sV\u6b7b\u53bb\u6d3b\u6765
p1638
I3
sV\u4f55\u5e74\u4f55\u6708
p1639
I3
sV\u534e\u4e3d
p1640
I9
sV\u8d56
I3
sV\u7cca\u6d82
p1641
I3
sV\u4e13\u4e1a
p1642
I21
sV\u4ece\u4e8b
p1643
I3
sV\u7ed9\u7d2f
p1644
I3
sV\u5566
I96
sV\u8fd9\u6b21
p1645
I9
sV\u65e9\u9910
p1646
I3
sV\u978b
I3
sV\u5835\u5230
p1647
I3
sV\u957f\u8dd1
p1648
I3
sVmorning
p1649
I3
sV\u597d\u4e45
p1650
I3
sV\u8f70\u9e23
p1651
I3
sV\u60f3
I69
sV\u6728\u6709
p1652
I12
sV\u8303\u513f
p1653
I12
sV\u5927\u5e45\u5ea6
p1654
I3
sV\u8fd9\u6b3e
p1655
I6
sV\u6d3b\u5316\u77f3
p1656
I3
sV\u5bb6\u5bb4
p1657
I3
sV\u54f2
I3
sV\u81ea\u6740
p1658
I3
sV\u592a\u5c81
p1659
I27
sV\u6700\u597d
p1660
I12
sV\u7535\u8bdd
p1661
I9
sV\u6c34\u571f
p1662
I3
sV\u9700\u8981
p1663
I33
sV\u8bd5\u70b9
p1664
I6
sV\u5bb6\u5bb6
p1665
I3
sV\u9f50\u6574
p1666
I3
sV\u4f20\u64ad
p1667
I6
sV\u5c06\u4fe1\u5c06\u7591
p1668
I3
sV\u5916\u754c
p1669
I3
sV\u8d77\u6765
p1670
I21
sV\u9ad8\u6e05
p1671
I6
sV\u5f00\u4f1a
p1672
I15
sV\u6fc0\u53d1
p1673
I3
sV\u53cd\u6b63
p1674
I3
sV\u6570\u5b66\u5bb6
p1675
I3
sV\u4e0d\u597d
p1676
I21
sV\u5fae\u7b11
p1677
I15
sV\u65f6\u5148
p1678
I3
sV\u98ce\u5473
p1679
I3
sV\u8003\u8651
p1680
I3
sV\u516c\u4ea4\u8f66
p1681
I3
sV830
p1682
I3
sV\u6f20\u89c6
p1683
I6
sV\u597d\u5f00\u5fc3
p1684
I3
sV\u670b\u53cb
p1685
I45
sV\u771f\u4e0d\u9519
p1686
I3
sV\u52b2\u513f
p1687
I3
sV\u7f8e\u8339\u5988
p1688
I3
sV\u98d8\u9038
p1689
I3
sV\u6709\u7f6a
p1690
I3
sV\u591a\u9879
p1691
I3
sV\u4f53\u9a8c
p1692
I9
sV\u8d8a\u6765\u8d8a
p1693
I3
sV\u8fd9\u4efd
p1694
I3
sV\u7a97\u5e18
p1695
I3
sV\u5e02\u573a
p1696
I9
sV\u6d41
I3
sV\u4e0d\u5927
p1697
I3
sV\u5bf9\u9762
p1698
I6
sV\u5148\u751f
p1699
I3
sV\u6c90\u6d74
p1700
I3
sV25
p1701
I6
sV\u817f
I3
sV\u5982\u5922\u5982\u5e7b
p1702
I3
sV\u4f4e\u52a3
p1703
I3
sVYoutube
p1704
I3
sV\u9010\u6e10
p1705
I6
sV\u6b22\u58f0\u7b11\u8bed
p1706
I9
sV\u957f\u86c7
p1707
I3
sV\u534e\u4eba
p1708
I3
sV27
p1709
I6
sV\u4e0d\u5931
p1710
I3
sV\u5ea6
I15
sV9000
p1711
I3
sV\u76f4\u6307
p1712
I3
sV\u6210\u7ee9
p1713
I3
sV\u5e73\u5747
p1714
I3
sV\u7ffb
I6
sV\u5bb6\u957f
p1715
I3
sV\u5361\u7f57\u5c14
p1716
I3
sV\u6d6e\u5c18
p1717
I3
sV\u751f\u547d
p1718
I9
sV\u52a0\u6301
p1719
I3
sV\u706b\u8f66
p1720
I6
sV\u6865\u4e0b
p1721
I3
sV\u98ce\u5439
p1722
I3
sV\u90e8
I3
sV\u80f8\u6000
p1723
I3
sV\u53ea
I42
sV\u4eec
I18
sV\u7814\u53d1
p1724
I6
sVs
I3
sV\u540e\u4e5d
p1725
I3
sV\u9650
I3
sV\u54ea\u6015
p1726
I3
sV\u5979
I72
sV\u8fd1\u65e5
p1727
I3
sV\u4e0d\u591f
p1728
I3
sV\u82b1
I6
sV\u5584\u4e8e
p1729
I9
sV\u91cd\u5927
p1730
I6
sV\u53ef\u770b
p1731
I3
sV\u5976\u5976
p1732
I3
sV\u6545\u4e8b
p1733
I3
sV\u9ed1\u8138
p1734
I3
sV\u4e24\u987f
p1735
I3
sV\uff0c
I4725
sV6.
p1736
I6
sV\u4ec7\u4eba
p1737
I6
sV60
p1738
I3
sV\u6b64\u65f6
p1739
I9
sV\u8482
I3
sV64
p1740
I3
sV\u5a46\u5a46
p1741
I12
sV\u5f00\u901a
p1742
I3
sV\u5386\u5c3d\u78e8\u96be
p1743
I3
sV\u4eba\u82b1
p1744
I3
sV\u83b7\u6279
p1745
I3
sV\u6bcf\u4e2a
p1746
I9
sV\u7d20
I6
sV\u94f8\u5c31
p1747
I3
sV\u524d\u5f80
p1748
I3
sV\u77a7
I6
sV\u6700\u8d77\u7801
p1749
I3
sV\u4e0d\u4e45\u524d
p1750
I3
sV\u8f66\u7a97
p1751
I6
sV\u5c0f\u96e8
p1752
I3
sV\u57fa\u7840
p1753
I9
sV\u4e09\u53f7
p1754
I3
sVSuri
p1755
I3
sV\u65f6\u5149
p1756
I3
sV\u5de5\u4f5c
p1757
I42
sV\u5e2d\u5377
p1758
I3
sV\u7d2f\u51fa
p1759
I3
sV\u65e5\u575b
p1760
I6
sV\u5938
I6
sV\u771f\u5b9e\u81ea\u6211
p1761
I3
sV\u4e0d\u826f
p1762
I3
sV500
p1763
I6
sV\u56fe\u7247
p1764
I18
sV\u7a33\u5b9a
p1765
I9
sV\u4ee3\u8a00\u4eba
p1766
I3
sV\u91d1\u8272
p1767
I6
sV\u4e00\u5834
p1768
I3
sVP
I3
sV\u8282\u65e5
p1769
I3
sV\u4e2d\u5916\u8bb0\u8005
p1770
I3
sV\u627e\u94b1
p1771
I3
sV\u5f97\u77e5
p1772
I3
sV\u5e7f\u6df1
p1773
I6
sV\u4f0a
I3
sV\u67cf\u6797
p1774
I3
sV\u5c16\u6c99\u5480
p1775
I3
sV\u6597\u4e89
p1776
I3
sV\u6b3a\u8bc8
p1777
I3
sV\u751f\u75c5
p1778
I6
sV\u66dd
I3
sV\u548b\u5730
p1779
I3
sV\u82ac\u5170\u4eba
p1780
I3
sV\u5f31\u5f31
p1781
I3
sV\u6d77\u9614\u5929\u7a7a
p1782
I3
sV\u4e00\u6761
p1783
I12
sV\u6838\u5fc3
p1784
I3
sV\u770b\u620f
p1785
I3
sV\u8f6c
I21
sV\u8bef
I21
sV\u4e0d\u8bf7\u81ea\u6765
p1786
I3
sV\u517b\u5fc3
p1787
I3
sV\u6570
I6
sV\u81f3
I9
sV\u7406\u89e3
p1788
I3
sV\u804a\u5929
p1789
I6
sV\u591a\u52a8\u75c7
p1790
I3
sV\u53f0\u62a5
p1791
I3
sV\u5450\u558a
p1792
I3
sV\u7167\u660e
p1793
I3
sV\u8046\u542c
p1794
I9
sV\u66f4\u52a0
p1795
I6
sV\u5f00\u7a97
p1796
I3
sV\u8c01
I24
sV\u51b2\u6d17
p1797
I3
sV\u4eca\u665a
p1798
I15
sV\u72ec\u884c
p1799
I3
sV\u628a
I57
sV\u5fc5\u8981
p1800
I3
sV\u5f8c
I3
sV24.25
p1801
I3
sV\u8033\u7554
p1802
I3
sV\u5411
I39
sV\u5f69\u7968
p1803
I3
sV\u98de\u54a7
p1804
I3
sV\u4e2d\u56fd\u79fb\u52a8
p1805
I3
sV\u5e26\u6765
p1806
I6
sV\u65f6\u65f6
p1807
I3
sV\u521b\u610f
p1808
I6
sV\u9189\u5fc3
p1809
I3
sV\u8d77\u4e0d\u6765
p1810
I3
sV\u6444
I3
sV\u5f85\u7eed
p1811
I6
sV\u6709\u5e78
p1812
I3
sV\u591c\u95f4
p1813
I3
sV\u7ea2
I6
sV\u5934\u573a
p1814
I3
sV\u719f\u4eba
p1815
I3
sVNSN
p1816
I3
sVXXX
p1817
I3
sV\u4e2d
I99
sV\u5927\u4f1a
p1818
I6
sV\u5468\u4e94
p1819
I3
sV\u65e0\u540d
p1820
I3
sV\u65b0
I39
sV\u4f26\u5bb6
p1821
I3
sV\u5168\u7f8e
p1822
I3
sV\u90a3\u65f6\u5feb
p1823
I3
sV\u5468\u4e8c
p1824
I3
sV\u6084\u7136
p1825
I6
sVCarol
p1826
I3
sV\u8dd1\u6b65\u673a
p1827
I3
sV\u6d69
I3
sV\u5341\u5206\u949f
p1828
I3
sV\u5996\u7684
p1829
I3
sV\u5e10\u7bf7
p1830
I3
sV\u68c9\u88ab
p1831
I3
sVI
I6
sV\u91cd
I6
sV\u8208\u5230
p1832
I3
sV\u592a\u597d\u4e86
p1833
I3
sV\u98ce
I3
sV\u524d\u4e5d
p1834
I3
sV\u65b0\u82b1
p1835
I3
sV\u5011
I6
sV\u591a\u591a
p1836
I3
sV\u6625\u65fa
p1837
I9
sV%
I39
sV\u81ea\u52a9
p1838
I3
sV\u674e
I3
sV\u641e\u4e0d\u5b9a
p1839
I6
sV\u5bb9\u6613
p1840
I3
sV\u6ce8\u5165
p1841
I3
sV\u957f\u6c5f
p1842
I3
sV\u4e60\u7ec3
p1843
I6
sV\u540c\u60c5
p1844
I3
sV\u54e6
I18
sV\u82f1\u8bed
p1845
I3
sV\u6fc0\u52a8
p1846
I3
sV\u7ea6
I6
sV\u8270\u96be
p1847
I6
sV\u7ea2\u988a
p1848
I3
sV\u5e72\u6d3b
p1849
I3
sV\u51e0\u9053
p1850
I3
sV\u6fc0\u52b1
p1851
I9
sV\u4e0a\u5468
p1852
I6
sV\u4e00\u65e6
p1853
I6
sV\u540c\u80de
p1854
I3
sV\u63a8\u9500
p1855
I3
sV\u767d
I9
sV\u7f8e\u8f6e\u7f8e\u5942
p1856
I3
sV\u4e00
I81
sV\u6210\u5c31
p1857
I3
sV\u78e8\u96be
p1858
I3
sV\u5339\u9a6c
p1859
I9
sV\u7688\u4f9d
p1860
I3
sV\u4e8c\u8fdb\u5236
p1861
I3
sV\u642d
I12
sVOVER
p1862
I3
sVresolution
p1863
I3
sV\u8001\u516c
p1864
I3
sV\u5e76\u79f0
p1865
I3
sVRaya
p1866
I6
sV\u8bf4\u8bdd
p1867
I12
sV\u8db4\u4e0b
p1868
I3
sV\u6c14\u8d28
p1869
I9
sV\u5171\u6709
p1870
I3
sV\u6388\u8bfe
p1871
I3
sVfeiLG
p1872
I3
sV\u5408\u7406
p1873
I3
sV\u771f\u60c5
p1874
I3
sV\u6de1\u817e
p1875
I6
sV\u6628\u665a
p1876
I9
sV\u675c\u857e\u65af
p1877
I3
sV\u4e2d\u79d1\u9662
p1878
I3
sV\u8654\u8bda
p1879
I3
sV\u88c2\u5ac2
p1880
I3
sV\u5b89\u987f
p1881
I3
sV\u73a9
I6
sV\u5228
I3
sV\u8eab
I3
sV\u574f\u5904
p1882
I3
sV\u575a\u5b9a\u4e0d\u79fb
p1883
I6
sV\u76f4\u81f3
p1884
I3
sV\u7136\u540e
p1885
I3
sV\u5df2\u6709
p1886
I3
sV\u642c\u5bb6
p1887
I3
sV\u9cb2
I3
sV4
I72
sV\u5929\u5730
p1888
I3
sV\u667a\u80fd\u7ec8\u7aef
p1889
I6
sV\u4eca\u65e5
p1890
I3
sV\u731b\u864e
p1891
I3
sV\u87ba\u86f3
p1892
I3
sVMark
p1893
I6
sV\u6c42\u77e5
p1894
I3
sVCheers
p1895
I3
sV\u4e0d\u7ba1
p1896
I3
sV\u7537
I9
sV\u70e7\u9ea6
p1897
I3
sV\u6746
I6
sV\u4ec1\u4e49
p1898
I3
sV\u95f4\u9694
p1899
I3
sV\u5c4c
I9
sV\u9519\u4e71
p1900
I3
sV\u6210\u529f
p1901
I15
sV\u89d2\u5ea6
p1902
I12
sV\u6c7d\u8f66
p1903
I3
sV\u8d23\u4efb\u5fc3
p1904
I3
sV\u7855\u58eb
p1905
I3
sV\u795e\u7ecf
p1906
I6
sV\u9ed1\u5e55
p1907
I3
sV\u7a7a\u8361\u8361
p1908
I3
sV\u6230\u9b25
p1909
I3
sV\u6ce2\u7279
p1910
I3
sV\u8dcb\u5c71\u6d89\u6c34
p1911
I3
sV\u9876\u5230\u65e0\u8bed
p1912
I3
sV\u771f\u7f8e
p1913
I3
sV\u9676\u9189
p1914
I3
sV\u95f9\u5fc3
p1915
I3
sV\u4fdd\u8d28\u4fdd\u91cf
p1916
I3
sV\u5f53\u8857
p1917
I3
sV\u83ca\u82b1
p1918
I3
sV\u67f1
I3
sV\u7070\u673a
p1919
I3
sV\u542c\u8bf4
p1920
I6
sV\u5168\u5c4f
p1921
I3
sV\u6625\u665a
p1922
I6
sV\u5356\u76f8
p1923
I3
sV\u96fb
I3
sV\u5f00\u5934
p1924
I3
sV\u4f55\u5fc3
p1925
I3
sV\u5e9f\u589f
p1926
I3
sV\u98ce\u9669
p1927
I3
sV\u8fd8\u6709
p1928
I24
sV\u8715\u53d8
p1929
I3
sV\u6309
I6
sV\u4f18\u79c0
p1930
I9
sV\u5230\u54ea\u53bb
p1931
I3
sV\u529e\u6cd5
p1932
I3
sV\u89c9\u5f97
p1933
I18
sV\u4e89\u53d6
p1934
I6
sV\u6e29\u99a8
p1935
I6
sV\u7d27\u6025
p1936
I3
sV\u4e13\u6ce8
p1937
I9
sV\u5750\u8f66
p1938
I9
sV\u4f20\u8bf4
p1939
I3
sV\u8d5b\u8f66
p1940
I3
sV\u7535\u89c6
p1941
I6
sV\u5173\u5207
p1942
I6
sV\u6d53\u5ea6
p1943
I3
sVpeace
p1944
I3
sV\u5177\u5907
p1945
I3
sV\u5c65\u884c
p1946
I6
sV\u5916\u9762
p1947
I3
sV\u7d27\u65e5\u5b50
p1948
I6
sV\u54c8\u54c8\u54c8\u54c8
p1949
I3
sV\u6e38\u620f
p1950
I3
sV\u5427
I141
sV\u6cfc\u5987
p1951
I3
sV\u52a8
I3
sV\u4e2b
I9
sV\u521a\u4e0b
p1952
I3
sV\u4e91\u5927
p1953
I3
sV\u56db\u697c
p1954
I3
sV\u5c0f\u5929\u4f7f
p1955
I6
sV\u6069\u7231
p1956
I3
sV\u51e0\u8fd1
p1957
I3
sV\u5173\u952e
p1958
I3
sV\U0001f63b
I3
sV\u9879\u76ee
p1959
I3
sV\u4f55\u5f02
p1960
I3
sV\u4ee5\u524d
p1961
I9
sV\u73b0\u91d1
p1962
I3
sV\u901b\u8857
p1963
I6
sV\u9732\u9762
p1964
I3
sV\u82cf\u6069
p1965
I3
sV\u538b\u4f24
p1966
I3
sV\u56f4\u8116
p1967
I3
sV\u4e94\u5341\u5143
p1968
I3
sV\u6469\u6258\u8f66
p1969
I3
sV\u5254\u9664
p1970
I3
sV\u9633\u6c14
p1971
I12
sV\u5751
I3
sV\u5f00\u53d1
p1972
I3
sV\u56ed\u5b50
p1973
I3
sV70
p1974
I3
sV\u5468\u56f4
p1975
I3
sV\u63e1\u624b\u8a00\u548c
p1976
I3
sV\u77cd\u94c4
p1977
I3
sV\u5386\u53f2
p1978
I9
sVok
p1979
I3
sV\u6d17\u6fa1
p1980
I3
sV\u97f3\u4e50\u5b66\u9662
p1981
I3
sV\u5927\u81ea\u7136
p1982
I3
sVof
p1983
I9
sV\u9633\u5149\u707f\u70c2
p1984
I3
sV\u4f5c\u51fa
p1985
I3
sV\u4e94\u9053
p1986
I3
sV\u4e00\u987f
p1987
I6
sV\u91cd\u590d
p1988
I3
sV\u808c\u8089\u7537
p1989
I3
sV\u8fc7\u6162
p1990
I3
sV\u5bfb\u627e
p1991
I6
sV\u96c5\u81f4
p1992
I3
sV\u767b
I3
sVor
p1993
I6
sV\u4e0a\u9762
p1994
I3
sV\u4e0d\u5230
p1995
I12
sV\u4e0d\u6765
p1996
I3
sV\u53c2\u89c1
p1997
I3
sV\u53c2\u89c2
p1998
I6
sV\u5631\u6258
p1999
I3
sV\u51e0\u5f20
p2000
I3
sV\u524d\u8f88
p2001
I6
sV\u53f3\u4e0b
p2002
I3
sV\u81f4\u5bcc
p2003
I3
sV\u8baf
I3
sV\u5e73\u548c
p2004
I12
sV\u7a7a\u95f4
p2005
I6
sV\u89c2\u5bdf
p2006
I6
sV\u5531\u6b4c
p2007
I6
sV\u5b83\u5c71\u4e4b\u77f3
p2008
I3
sV\u67b6\u52bf
p2009
I3
sV\u51fa\u884c
p2010
I6
sV\u94b1
I15
sV\u59d0\u8bf4
p2011
I9
sV\u9119\u89c6
p2012
I6
sV\u52aa\u529b\u5b9e\u73b0
p2013
I3
sV\u5de5\u8d44
p2014
I6
sVNB
p2015
I12
sVthere
p2016
I3
sV\u62cd\u4e0b
p2017
I3
sV\u9884\u8ba1
p2018
I3
sV\u5706
I3
sV\u4e8c\u5f97
p2019
I3
sV\u5f00\u5230
p2020
I3
sV\u5e36
I3
sV\u5e02\u6c11
p2021
I6
sV\u5168\u90e8
p2022
I9
sV\u8aaa
I3
sV\u4e00\u5c0f
p2023
I3
sV\u9650\u91cf
p2024
I3
sV\u649e\u8f66
p2025
I3
sV\u4e2d\u5370
p2026
I3
sV\u4eba\u884c
p2027
I3
sV\u6446\u8c31
p2028
I3
sV\u5b9a\u5f0f
p2029
I3
sV\u8db3\u591f
p2030
I6
sV\u6551\u63f4
p2031
I6
sV\u5fae\u98ce
p2032
I3
sVenough
p2033
I3
sV\u804a
I3
sV\u859b\u5fae
p2034
I3
sV\u5750
I12
sV\u6bcf\u6b21
p2035
I6
sV\u52a0\u5de5\u4e1a
p2036
I3
sV\u6e56
I9
sV\u6a21\u7279
p2037
I6
sV\u7ea0\u7ed3
p2038
I9
sV\u5468\u65e5
p2039
I3
sV\u4f60\u597d
p2040
I3
sV\u8d0a
I3
sV\u4e00\u6708\u4efd
p2041
I3
sV\u62d4\u5c16
p2042
I3
sV\u63a9\u8033\u76d7\u94c3
p2043
I3
sV\u96f6\u4e0b
p2044
I12
sV\u5c40\u9650
p2045
I3
sV\u5b58
I3
sV\u7f51\u7edc\u7535\u8bdd
p2046
I3
sV\u6307\u6325
p2047
I3
sV\u897f\u672c
p2048
I3
sV\u697c\u5e02
p2049
I3
sV\u4e16\u754c\u5404\u5730
p2050
I3
sV\u5e76
I15
sV\u8db3\u4e09\u91cc
p2051
I3
sV\u76f8\u5f53\u4e8e
p2052
I3
sV\u51e1\u5c14\u8d5b
p2053
I3
sV\u8fd9\u6837
p2054
I39
sV\u65f6\u671f
p2055
I9
sV\u8737\u5367
p2056
I3
sV\u5c11\u5973
p2057
I3
sV\u6211\u4f1a
p2058
I9
sV\u5973\u4e2d\u8c6a\u6770
p2059
I3
sV\u81ea\u767d
p2060
I3
sVS
I3
sV\u6027\u683c
p2061
I3
sV\u5c0d
I3
sV\u6709\u4e9b
p2062
I9
sV\u82e6\u96be
p2063
I3
sV\u4e00\u8def
p2064
I12
sV\u6d17\u6d17
p2065
I3
sV\u6c99\u5c18
p2066
I3
sV\u8003\u5bdf
p2067
I3
sV\u4e00\u6597
p2068
I3
sV\u805a\u4f1a
p2069
I3
sV\u53d8\u6210
p2070
I6
sV\u4e24\u5927\u9635\u8425
p2071
I3
sV\u611f
I3
sV\u767b\u5cf6
p2072
I3
sV\u597d\u4f3c
p2073
I3
sV\u96cc\u96c4
p2074
I3
sV\u75db\u82e6\u4e07\u5206
p2075
I3
sV\u8fd8\u662f
p2076
I33
sV\u559d\u6c64
p2077
I3
sV\u5229
I3
sV\u968f\u5373
p2078
I3
sV\u90a3\u4eba
p2079
I3
sV\u70ed\u7231\u751f\u6d3b
p2080
I3
sV5
I33
sVyou
p2081
I9
sV\u4e00\u65b9
p2082
I3
sV\u75bc
I3
sV\u513f
I6
sV\u6cd5\u56fd
p2083
I3
sV\u8bf4\u65f6\u8fdf
p2084
I3
sV\u5fd9\u788c
p2085
I6
sV\u706f\u5149
p2086
I3
sV\u90e8\u7f72
p2087
I9
sV\u8c6a\u60c5\u4e07\u4e08
p2088
I3
sV2005
p2089
I3
sV\u6ee8\u6d77
p2090
I6
sV\u594f
I3
sV\u5e86\u795d
p2091
I3
sV\u97e7\u6027
p2092
I6
sV\u7cbe\u5f69
p2093
I6
sV\u5468\u5e74
p2094
I3
sV\u4ed6
I129
sV\u77e5\u803b\u800c\u540e\u52c7
p2095
I3
sV\u6700\u9ad8
p2096
I6
sV\u7aef\u5e84
p2097
I3
sV\u8f7b
I3
sV\u653b\u7565
p2098
I3
sV\u559c\u5fe7\u53c2\u534a
p2099
I3
sV\u8212\u5c55
p2100
I3
sV\u5b63
I6
sV\u5c0f\u4e8b
p2101
I3
sV\u964d\u8c03
p2102
I3
sV\u65b9\u5f0f
p2103
I3
sV\u60c5\u7eea
p2104
I6
sV\u9047\u89c1
p2105
I3
sV\u5927\u8d5e
p2106
I3
sVtricks
p2107
I3
sV\u7740\u6765
p2108
I3
sV\u963f\u6c64\u54e5
p2109
I3
sV\u6625\u8fd0
p2110
I3
sV\u65e0\u9650
p2111
I6
sV\u5730\u94c1
p2112
I3
sV\u7535
I3
sV\u5b89\u59ae
p2113
I3
sV\u98de\u884c
p2114
I6
sV\u5c0f\u4e95
p2115
I6
sV\u7d6e\u7d6e\u53e8\u53e8
p2116
I3
sV\u547d
I3
sV\u522b
I15
sV\u7ea0\u7eb7
p2117
I3
sV\u3000
I6
sV\u5eb7\u5065
p2118
I3
sV22
p2119
I3
sV\u7231\u7279
p2120
I3
sV\u6491\u8d77
p2121
I3
sV\u5b63\u8d22\u62a5
p2122
I6
sV\u4f24\u53e3
p2123
I3
sV\u52a0\u5feb
p2124
I3
sV\u88c5\u5907
p2125
I3
sV\u671d\u971e
p2126
I3
sV\u5343\u4e07
p2127
I6
sV\u51cc\u6668
p2128
I9
sV\u53f6
I3
sV\u96be\u5f97
p2129
I3
sV\u82b1\u5fc3
p2130
I3
sV\u6a1f\u5b9c
p2131
I6
sV\u6c47\u8403
p2132
I3
sV\u4e14
I21
sV\u804a\u804a\u5929
p2133
I3
sV\u8fc7\u5f80
p2134
I3
sV\u7ade\u731c
p2135
I3
sV\u5c0f\u5ddd
p2136
I3
sV\u9759\u9759\u5730
p2137
I3
sV\u603b\u7ed3
p2138
I6
sV\u6743\u5229
p2139
I6
sV\u7ecf\u9a8c
p2140
I3
sV\u8fc8\u514b
p2141
I3
sV\u656c\u8bf7
p2142
I3
sV\u6760\u4e0a
p2143
I3
sV1115
p2144
I3
sV\u901a\u4fe1
p2145
I24
sV\u4e09\u4ef6
p2146
I3
sV\u56fd\u5185
p2147
I3
sV\u4e2d\u5e74
p2148
I3
sV\u75c5\u623f
p2149
I3
sV\u94ed\u8bb0
p2150
I3
sVth
p2151
I3
sV\u65b9
I3
sV\u4e09\u4ee3
p2152
I3
sV\u5206\u4eab
p2153
I18
sV\u5f2f\u66f2
p2154
I3
sV\u4ebf
I6
sVBMW
p2155
I3
sV\u62b1\u62b1
p2156
I3
sV\u62cd\u7167
p2157
I9
sV\u5404\u4f4d
p2158
I6
sV\u72ec\u89d2\u620f
p2159
I9
sV\u677f\u5bf8
p2160
I3
sV\u4e0d\u65ad
p2161
I6
sV\u5927\u4e0d\u4e00\u6837
p2162
I3
sV\u6210\u827e
p2163
I3
sV\u53d6\u820d
p2164
I3
sV\u89e3\u8131
p2165
I3
sVGIF
p2166
I3
sV\u4e0d\u65b7
p2167
I3
sV\u671d\u7740
p2168
I3
sV\u795d\u798f
p2169
I15
sV\u70cf
I3
sV\u9b41\u603b
p2170
I3
sV\u6b64
I27
sV\u77e5\u540d
p2171
I3
sV\u9996\u6b21
p2172
I3
sV\u57ce\u5e02\u89c4\u5212
p2173
I3
sV\u633a\u4f4f
p2174
I3
sV\u84e6\u7136\u56de\u9996
p2175
I3
sV\u6ca1\u51c6
p2176
I3
sV\u4e34\u65f6
p2177
I3
sV\u76c6\u6cb9
p2178
I3
sV\u4e3b\u9898
p2179
I3
sV\u73ed
I9
sV\u5b9e\u5728
p2180
I15
sV\u516d\u5e74
p2181
I6
sV\u7e41\u81f3
p2182
I3
sV\u5173\u6ce8
p2183
I6
sV\u5305\u62ec
p2184
I6
sV\u5e74
I54
sV\u62c9\u626f
p2185
I3
sV\u5168
I18
sV\u54a3\u5f53
p2186
I6
sV\u6478
I3
sV\u804a\u804a
p2187
I3
sV\u9093\u5c0f\u521a
p2188
I3
sV\u5e74\u4ee3
p2189
I3
sV\u5bf9\u6bd4
p2190
I3
sV\u5403
I78
sV\u9888\u690e\u75c5
p2191
I3
sV\u7684
I1929
sV\u6bcf\u5929
p2192
I12
sV\u9986
I6
sV\u8001\u603b
p2193
I3
sV\u5927\u723d
p2194
I3
sV\u5f88\u5c11
p2195
I3
sV\u6253\u67b6
p2196
I3
sV\u65e9\u65e9
p2197
I6
sV\u62c9\u5a01
p2198
I3
sVOnly
p2199
I3
sV\u4e91\u5357\u5927\u5b66
p2200
I3
sV\u8f15
I3
sV\u6df7\u5408\u4f53
p2201
I3
sV\u9519
I3
sV\u674e\u514b\u5f3a
p2202
I12
sV\u6536\u4e3a
p2203
I12
sV\u9e1f
I6
sV\u987a\u5229
p2204
I9
sV\u60a0
I6
sV\u8f6e\u5ed3
p2205
I3
sV\u7701\u7565
p2206
I3
sV\u6536\u85cf
p2207
I3
sV\u961f
I3
sV\u72ac
I3
sV\u7ba1\u7528
p2208
I3
sV\u53cd\u5e94
p2209
I9
sV\u6700\u65b0
p2210
I6
sVBusinessInsider
p2211
I3
sVMick
p2212
I6
sV\u5047\u80a2
p2213
I3
sV\u7f51\u7edc\u5de5\u7a0b
p2214
I3
sV\u65c1\u8fb9
p2215
I3
sV\u2022
I3
sV\u98df\u8865
p2216
I3
sV\u540c\u9053
p2217
I3
sV\u52a8\u753b
p2218
I3
sV\u707e\u533a
p2219
I6
sV\u6559\u5802
p2220
I3
sV\u9884\u544a
p2221
I6
sV\u7f50\u5934
p2222
I3
sV\u6253\u5c41\u80a1
p2223
I3
sV\u4e95
I3
sV\u4e2b\u5c0f
p2224
I3
sV\u5b63\u5ea6
p2225
I24
sV\u5927\u4e2a\u5b50
p2226
I3
sVXbox
p2227
I6
sV\u8bf4\u660e
p2228
I6
sV\u9a97\u6cd5
p2229
I3
sV\u98ce\u683c
p2230
I3
sV\u518d\u73b0
p2231
I6
sV\u6b63\u524d\u65b9
p2232
I3
sV\u4e4b\u95f4
p2233
I6
sV\u7559
I9
sV\u7edd\u671b
p2234
I3
sV\u821e\u8005
p2235
I3
sV\u4e0d\u8be5
p2236
I6
sV\u600e\u4e48
p2237
I27
sV\u53f8\u673a
p2238
I3
sV\u2463
I3
sV\u6625\u98ce
p2239
I3
sV\u6765
I93
sV\u5feb\u5feb
p2240
I3
sV\u8fc1\u5f99
p2241
I3
sV\u6e29\u67d4
p2242
I15
sV\u95ee
I33
sV\u535a\u7269\u9986
p2243
I3
sV\u73b0\u573a
p2244
I18
sV\u7c73
I9
sV\u4e09\u4e2a
p2245
I15
sV\u5370\u5ea6
p2246
I3
sV\u8f9b\u82e6
p2247
I12
sV\u8fd8\u597d
p2248
I3
sV\u4e2d\u6307
p2249
I3
sV\u5927\u724c
p2250
I3
sV\u559c\u7b11\u989c\u5f00
p2251
I3
sV\u60e6\u5ff5
p2252
I3
sV\u8036
I3
sV\u81ea\u6028\u81ea\u827e
p2253
I3
sVvia
p2254
I3
sV\u6625\u5929
p2255
I21
sV\u521b\u65b0\u80fd\u529b
p2256
I6
sV\u7c89
I3
sV\u8bed\u51fa\u60ca\u4eba
p2257
I3
sV\u72c2\u98ce
p2258
I3
sV\u4f5c\u4e1a
p2259
I3
sV\u51b3\u7b56
p2260
I12
sV\u8001\u57ce
p2261
I6
sV\u534a\u5929
p2262
I3
sV\u63d0\u524d
p2263
I12
sV\u9632\u5907
p2264
I3
sV\u5e72\u51c0
p2265
I15
sV\u7f8e\u4e3d
p2266
I12
sV\u7956\u5b97
p2267
I3
sV\u5c0f\u5077
p2268
I3
sV\u53cc\u817f
p2269
I3
sV\u6d88\u6781
p2270
I18
sV\u7a9d
I3
sV\u5b9e\u9645
p2271
I9
sV\u4e91\u91cf
p2272
I3
sV\u80a1
I3
sV\u6d3b\u8dc3
p2273
I3
sV\u8fbe\u82ac\u5947
p2274
I3
sV\u671d\u9633
p2275
I6
sV\u589e\u957f
p2276
I12
sV\u4e0b\u96ea
p2277
I3
sV\u795d
I6
sV\u6562\u4e8e
p2278
I9
sV\u4e2a
I105
sV\u4f5c\u4e3a
p2279
I3
sV\u5230\u8bbf
p2280
I3
sV\u7b2c\u4e00\u5b63\u5ea6
p2281
I6
sV\u642d\u5e10\u7bf7
p2282
I3
sV\u5927\u5385
p2283
I3
sV\u82f9\u679c
p2284
I6
sV\u500b
I6
sV6
I24
sV\u8fde
I9
sV\u8eab\u7a7f
p2285
I3
sV\u79cb\u5929
p2286
I3
sV\u4fbf
I6
sV\u751a\u81f3
p2287
I12
sV\u5927\u53f7
p2288
I3
sV\u7eb8\u7cca
p2289
I3
sV\u5145\u5206
p2290
I12
sV\u76c5
I3
sV\u4ec1\u5144
p2291
I3
sV\u7247\u5b50
p2292
I3
sV\u5dee\u4e0d\u591a
p2293
I3
sV\u4e2d\u5f0f
p2294
I3
sV\u62cd
I21
sV\u5154\u5bb3
p2295
I3
sV\u89d2\u8272
p2296
I3
sV\u4f59\u9999
p2297
I3
sV\u63a7\u6c5f\u8def
p2298
I3
sV\u6628\u5929
p2299
I12
sV\u84b8\u817e
p2300
I3
sVLTE
p2301
I21
sV\u6807\u660e
p2302
I3
sV\u90bb
I3
sV\u4e2d\u80fd
p2303
I3
sV\u5916\u51fa
p2304
I6
sV\u8bf7\u4e3e\u624b
p2305
I3
sV\u79d1\u666e
p2306
I3
sV\u96be\u5fd8
p2307
I3
sV\u903b\u8f91
p2308
I9
sV\u5176\u5b83
p2309
I3
sV\u603b\u5f97
p2310
I3
sV\u90a3\u79cd
p2311
I9
sV\u6536\u6746
p2312
I6
sV\u592a\u5f3a\u5927
p2313
I3
sV\u5145\u6ee1
p2314
I12
sV\u4e0b\u5c5e
p2315
I6
sV\u8bf8\u5982\u6b64\u7c7b
p2316
I3
sV\u533b\u836f
p2317
I3
sV\u626f\u86cb
p2318
I3
sV\u5373\u53ef
p2319
I6
sV\u96be\u5fcd
p2320
I3
sV\u677e\u6811
p2321
I3
sV\u5fc3\u82b1\u6012\u653e
p2322
I3
sV\u73af\u5835
p2323
I3
sV\u667a
I6
sV\u89c4\u5b9a
p2324
I3
sV\u6d1b\u6749\u77f6
p2325
I6
sV\u5176\u5b9e
p2326
I33
sV\u8857\u89d2
p2327
I3
sV\u9001
I27
sV\u76f4
I6
sV\u5973\u751f
p2328
I18
sV\u53d8\u5c0f
p2329
I6
sV\u534f\u52a9
p2330
I3
sV\u671d\u9633\u95e8
p2331
I3
sV\u8fbe\u5230
p2332
I6
sV\u7f79\u60a3
p2333
I3
sV\u5e8a
I9
sV\u5373\u5316
p2334
I3
sV\u6c42\u53cb
p2335
I3
sV\u6811
I12
sV\u51fa\u56fd
p2336
I6
sV\u6708\u5149
p2337
I3
sV\u4e09\u4f4d
p2338
I3
sV\u91cd\u65b0
p2339
I3
sV\u5317
I6
sV\u7d27\u5f20
p2340
I3
sV\u4e00\u5b9a
p2341
I18
sV\u518d\u6b21
p2342
I3
sV\u597d\u73a9
p2343
I6
sV\uff1f
I252
sV!
I66
sV\u6b65\u884c
p2344
I3
sV\u70ed\u5e26
p2345
I3
sV\u9e2d\u5b50
p2346
I6
sV\u6253\u55b7\u568f
p2347
I3
sV\u68a6
I3
sV\u6da8
I3
sV\u957f\u9014
p2348
I3
sVphelps
p2349
I3
sV\u6cf0\u56fd
p2350
I3
sV\u772f
I3
sV\u6905\u5b50
p2351
I3
sV\u81f4\u656c
p2352
I9
sV\u4e00\u5bb6
p2353
I3
sV\u8981\u8bf4
p2354
I9
sV\u66fe\u7ecf
p2355
I12
sV\u5165\u9519
p2356
I3
sV\u5c3d\u91cf
p2357
I3
sV\u672c\u5bab
p2358
I3
sV1970
p2359
I3
sV\u9189\u9999
p2360
I3
sV\u63aa\u65bd
p2361
I3
sV\u5543
I3
sV\u9a6c\u6d85
p2362
I3
sV\u4ef0\u8116
p2363
I3
sV\u7da0
I3
sV\u6bcd
I3
sV\u6240\u6709
p2364
I18
sV\u73af\u5883
p2365
I12
sV\u5c4b\u5b50
p2366
I3
sV\u6000\u91cc
p2367
I3
sV\u58c1\u4e0a
p2368
I3
sV\u666e\u901a
p2369
I3
sV\u62bd\u5956
p2370
I6
sV\u9547\u9759
p2371
I3
sV\u5357
I3
sV\u58f3\u91cc
p2372
I3
sV\u91cd\u8981
p2373
I15
sV\u4e2a\u6027
p2374
I9
sV\u4e0a\u5b66
p2375
I3
sV\u6218\u80dc
p2376
I3
sV\u96ea
I6
sV\u4e25\u91cd
p2377
I12
sV\u6297\u65e5
p2378
I3
sV\u8fc7\u5e74
p2379
I9
sV\u6307\u6325\u5bb6
p2380
I3
sV\u5404\u5927\u62a5
p2381
I3
sV\u516b
I3
sV\u624d\u534e
p2382
I3
sV\u79d8\u4e66
p2383
I3
sV\u53ec
I3
sVDeep
p2384
I3
sV\u65b9\u6cd5
p2385
I6
sV\u52a0\u70ed
p2386
I3
sV\u73b0\u4ee3
p2387
I6
sV\u4e2d\u5fb7
p2388
I3
sV\u549a\u5566
p2389
I3
sV\u81ea\u7acb
p2390
I3
sV\u4ed8\u8bf8\u884c\u52a8
p2391
I3
sV\u4e00\u5bf9
p2392
I6
sV\u4e0b\u4e0d\u53bb
p2393
I3
sV\u597d\u53cb
p2394
I9
sV\u5026\u610f
p2395
I3
sVJazz
p2396
I3
sV\u67d4\u987a
p2397
I6
sV\u8def\u4e0a
p2398
I6
sV\u9887
I3
sV\u4e2d\u5c42
p2399
I3
sV\u5904\u7406
p2400
I3
sV\u5e08
I15
sV\u4ec0\u4e48
p2401
I63
sV\u5956
I3
sV\u5fae\u8584
p2402
I3
sV\u800c
I42
sV\u6b64\u6b21
p2403
I3
sV\u968f\u98ce\u800c\u53bb
p2404
I3
sV\u6d3b
I3
sV\u8fde\u4e0a
p2405
I3
sV\u5173\u4e8e
p2406
I12
sV\u65e0\u8bba
p2407
I12
sV\u6ca1\u53bb
p2408
I3
sV\u964d
I3
sV\u53d8\u5f97
p2409
I3
sV\u8001\u4eba\u5bb6
p2410
I12
sV\u6d4b\u503c
p2411
I3
sV24
p2412
I3
sV\u6587\u4ef6
p2413
I3
sVstyle
p2414
I3
sV\u5dee\u522b
p2415
I6
sV20
p2416
I21
sV21
p2417
I3
sV\u4e8b\u60c5
p2418
I15
sV23
p2419
I3
sV\u79bb\u5a5a
p2420
I3
sV28
p2421
I6
sV29
p2422
I6
sV\u54af
I3
sV\u5927\u5e08\u8d5b
p2423
I3
sV\u51fa\u955c
p2424
I3
sV\u6e20\u9053
p2425
I3
sV\u53ea\u6709
p2426
I12
sV
I3
sV\uff08
I57
sV2.
p2427
I9
sV\u4eba\u6c11\u5927\u4f1a\u5802
p2428
I3
sV\u5df4\u8d6b
p2429
I3
sV\u6cbf
I3
sV\u6ce8\u610f
p2430
I15
sV\u57fa\u672c
p2431
I3
sV\u82b1\u751f
p2432
I3
sV\u75c5
I3
sV\u54c1\u5fb7
p2433
I3
sV\u9a6c\u4e0a
p2434
I3
sVL
I24
sV\u4e24\u6b21
p2435
I9
sV\u9084
I6
sV\u5feb\u6377
p2436
I3
sV\u4e94\u540d
p2437
I3
sV\u82f1\u52c7
p2438
I3
sV\u5468\u516d
p2439
I6
sV\u4e00\u5e74
p2440
I9
sV\u9762\u5bf9
p2441
I21
sV\uff5e
I33
sV\u9a91
I12
sV\u82ad\u857e
p2442
I3
sV\u533b\u7597
p2443
I3
sV\u2464
I3
sV\u8863\u670d
p2444
I6
sV\u810f\u8bdd
p2445
I6
sV\u6536\u644a
p2446
I3
sV\u4f4e\u8c03
p2447
I6
sV\u4e5d\u70b9
p2448
I3
sV\u4e0d\u6c42\u4e0a\u8fdb
p2449
I3
sV\u65e9
I6
sV\u6ca1\u52b2
p2450
I3
sV\u5bb9\u989c
p2451
I3
sV\u65e0\u6bd4
p2452
I6
sV\u592a\u4e0d\u5bb9\u6613
p2453
I3
sV\u5267\u900f
p2454
I3
sV\u4e00\u9879
p2455
I3
sV\u501f\u53e3
p2456
I6
sV\u5468\u5b50
p2457
I3
sV\u6b63\u6c14
p2458
I3
sV\u5bbd\u5bb9
p2459
I3
sV\u5c41
I3
sV\u5ba4\u5185
p2460
I6
sV\u51fa\u95e8
p2461
I6
sV\u8377\u82b1
p2462
I3
sV\u5929\u9053\u916c\u52e4
p2463
I3
sV\uff09
I123
sV\u77f3\u6797
p2464
I3
sV\u5185\u5fc3
p2465
I21
sV\u6d89\u6c34
p2466
I6
sV\u59d0\u5f97\u4ee4
p2467
I3
sV\u9ad8\u901f
p2468
I9
sV\u4f26\u6566
p2469
I9
sV\u52b3\u5fc3
p2470
I3
sV\u63d0\u95ee
p2471
I9
sV\u989c
I6
sV\u9ec4\u91d1
p2472
I12
sV\u9000\u4f11\u91d1
p2473
I6
sVipad2
p2474
I3
sV\u58a8\u955c
p2475
I6
sV\u7a00\u7ca5
p2476
I3
sV\u6709\u60c5
p2477
I3
sV\u80fd\u591f
p2478
I9
sV\u516e
I3
sV\u60b2\u6124
p2479
I3
sV\u5927\u4f7f
p2480
I6
sV\u6d3b\u7740
p2481
I3
sV\u9635\u96e8
p2482
I3
sV7
I33
sV\u524d\u8f6c
p2483
I3
sV\u4e0b\u5348\u8336
p2484
I3
sV\u529f\u80fd\u9f50\u5168
p2485
I3
sV\u773c\u89c2\u516d\u8def
p2486
I3
sV\u8fbe
I6
sV\u4eca\u591c
p2487
I3
sV\u9996\u8981
p2488
I3
sV\u4e2d\u79cb\u4f73\u8282
p2489
I3
sV\u796d\u54c1
p2490
I3
sV\u52a0\u7d27
p2491
I3
sV\u7ea2\u67a3
p2492
I3
sV\u624b
I3
sV\u6ce2\u7f57\u50e7
p2493
I3
sV\u91d1\u5149\u5927\u9053
p2494
I6
sVEB
p2495
I3
sV\u95ee\u9898
p2496
I60
sV\u76f8\u4e92
p2497
I3
sV\u5b8c\u6574
p2498
I3
sV"
I21
sV\u5927\u5409\u5927\u5229
p2499
I3
sV\u5173\u4e4e
p2500
I3
sV\u8150\u8d25
p2501
I3
sV\u5927\u9053
p2502
I3
sVteach
p2503
I3
sV\u4e0d\u514d
p2504
I3
sV\u547c\u5438
p2505
I6
sV\u4e00\u5927
p2506
I6
sV\u7e41\u8363
p2507
I3
sV\u4e00\u6279
p2508
I6
sV\u7a7a\u6808
p2509
I3
sV\u8d31\u4eba
p2510
I3
sV\u533b\u751f
p2511
I15
sV\u76f4\u5230
p2512
I3
sV\u5c3d\u529b
p2513
I3
sV\u73bb\u7483
p2514
I9
sV\u8d85\u97f3\u901f
p2515
I3
sV\u4e00\u58f0
p2516
I3
sV\u953b\u70bc\u8eab\u4f53
p2517
I3
sV\u4eca\u5929
p2518
I153
sV\u597d\u50cf
p2519
I27
sV\u7389\u7c73\u68d2\u5b50
p2520
I6
sV\u662f\u56e0\u4e3a
p2521
I3
sV\u6c49\u5b66
p2522
I3
sV\u5236\u9020
p2523
I15
sV\u597d\u4e45\u597d\u4e45
p2524
I3
sV\u3002
I1356
sV\u6c11\u95f4
p2525
I3
sV\u4e0b\u6765
p2526
I3
sV\u903b\u8f91\u601d\u7ef4
p2527
I3
sV\u6bd4\u8d77
p2528
I3
sV\u656c\u8bf7\u671f\u5f85
p2529
I3
sV\u6dcb\u6d74
p2530
I3
sV\u6761\u8def
p2531
I3
sV\u811a\u5fc3
p2532
I3
sV\u4e92\u52a8
p2533
I3
sV\u53ea\u662f
p2534
I15
sV\u5145\u6c9b
p2535
I3
sV\u8fc4\u4eca
p2536
I3
sV\u5de5\u5177
p2537
I6
sV\u4e0d\u66fe
p2538
I6
sV\u90a3\u6837
p2539
I9
sV\u591c
I3
sV\u624d\u521a
p2540
I3
sV\u6d6a\u8d39
p2541
I3
sV\u65e0\u5730\u81ea\u5bb9
p2542
I3
sV\u8fd9\u5468
p2543
I3
sV\u6f5c\u6c34
p2544
I3
sV\u5468\u5b50\u8018
p2545
I3
sV\u9884\u9632
p2546
I3
sV\u6bd4\u8d5b
p2547
I9
sV\u7981\u4e0d\u4f4f
p2548
I3
sV\u6bd2\u59dc
p2549
I3
sVDream
p2550
I3
sV\u6765\u5230
p2551
I15
sV\u4e00\u5929
p2552
I48
sV\u8fdc\u53bb
p2553
I3
sV\u51c6\u5907
p2554
I6
sV\u9b54\u5e7b
p2555
I3
sV\u997f\u6781\u4e86
p2556
I3
sV\u529e\u516c
p2557
I6
sV\u7ec3\u597d
p2558
I3
sV\u522b\u8bf4
p2559
I6
sV\u5413\u574f
p2560
I3
sV\u5c55\u9986
p2561
I6
sV\u4f24\u98ce\u611f\u5192
p2562
I3
sV\u8f6c\u8fd0
p2563
I3
sV\u53d1\u660e
p2564
I3
sV\u91d1\u5c71
p2565
I3
sV\u51e0\u4ee3
p2566
I3
sV\u63a2\u7a76
p2567
I3
sV\u6c34\u58a8
p2568
I3
sV\u519c\u5c55\u9986
p2569
I3
sV\u4eba\u624d
p2570
I18
sVGTI
p2571
I3
sV\u5c4a
I6
sV\u611f\u67d3
p2572
I3
sV\u614c
I3
sV\u5ffd\u95fb
p2573
I3
sV\u864e
I3
sV\u60b2\u60c5
p2574
I3
sV\u673a
I3
sV\u6cd5
I3
sV\u8d54
I3
sV\u4e07\u4e00
p2575
I3
sV\u9886\u5148
p2576
I3
sV\u6d1e\u623f\u82b1\u70db
p2577
I3
sV\u900f\u660e
p2578
I6
sV\u5d07\u656c
p2579
I6
sV\u6325\u624b
p2580
I6
sV\u672c\u8d28
p2581
I3
sV\u7334\u9999
p2582
I3
sV\u53eb
I96
sV\u70ed
I9
sV\u771f\u4e2a
p2583
I3
sV\u55ef
I9
sV\u5bfb\u6c42
p2584
I3
sV\u9f3b\u6881
p2585
I3
sV2020
p2586
I3
sV\u6210\u5e74\u4eba
p2587
I3
sV\u8ba8\u538c
p2588
I3
sV\u82f1\u8bed\u89d2
p2589
I3
sV\u5927\u91cf
p2590
I3
sV\u8bfb
I3
sV\u4e3e
I3
sV\u697c
I9
sV\u78be\u8fc7
p2591
I3
sV\u4e00\u5982
p2592
I3
sV\u5927\u4f5c
p2593
I3
sV\u535a\u4f1a
p2594
I6
sV\u4e9b
I3
sV\u51e0\u4e2a
p2595
I9
sV\u5f88
I51
sV\u57f9\u517b\u4eba\u624d
p2596
I6
sV\u5341\u4e00\u6708
p2597
I3
sV\u7edd\u62db
p2598
I3
sV\u60c5\u8282
p2599
I6
sV\u955c\u6846
p2600
I3
sV\u5144\u5f1f
p2601
I6
sVB
I12
sV\u5634\u4e0a
p2602
I3
sV\u544a\u8bc9
p2603
I6
sV\u8d76\u8d76
p2604
I6
sV\u5927\u8111
p2605
I3
sV\u5982\u679c
p2606
I33
sV\u5145\u6c14
p2607
I3
sV\u549a
I3
sV\u4e94\u516c\u91cc
p2608
I3
sV\u516c\u5e03
p2609
I3
sV\u8425
I12
sV\u63a2\u7d22
p2610
I6
sV\u7b2c\u4e00\u5929
p2611
I3
sV\u5230\u65f6\u5019
p2612
I3
sV\u6d41\u901d
p2613
I3
sVself
p2614
I3
sV\u6211\u5bb6
p2615
I15
sV\u62c6\u4e0b\u6765
p2616
I3
sV\u76ae
I3
sV\u5347\u7ea7
p2617
I3
sV\u6e3a\u5c0f
p2618
I3
sV\u5229\u76ca
p2619
I9
sV\u56db\u4f4d
p2620
I3
sV\u8fdb\u5165
p2621
I12
sV\u4e00\u4e1d\u4e0d\u82df
p2622
I6
sV\u6b27\u5143
p2623
I6
sV\u6b63\u76f4
p2624
I3
sV\u5f35
I3
sVAPEC
p2625
I3
sV\u4e00\u4e2a\u6708
p2626
I3
sV\u5750\u5230
p2627
I3
sV\u5e26\u5934
p2628
I3
sV\u6362\u6210
p2629
I3
sV\u4e09\u6d1e
p2630
I3
sV\u8f7b\u8f7b
p2631
I3
sV7.
p2632
I6
sV\u4e0d\u662f
p2633
I54
sV\u4e60\u60ef
p2634
I12
sV\u6ed1\u4e0b\u6765
p2635
I3
sV\u9065\u9065\u76f8\u5bf9
p2636
I3
sV\u7b49\u7b49
p2637
I6
sV\u5766\u8361
p2638
I3
sV\u559d\u8336
p2639
I3
sV\u7f29\u77ed
p2640
I3
sV\u65f6\u4e0d\u6211\u5f85
p2641
I3
sV\u4eba\u7c7b
p2642
I3
sVXE
p2643
I3
sV\u62b9\u5634
p2644
I3
sV\u81ea\u8c6a\u611f
p2645
I3
sV\u5bfc\u6f14
p2646
I6
sV\u65e0\u60c5
p2647
I3
sV\u2465
I3
sV\u4e8c\u53f7
p2648
I6
sV\u5f62\u8c61\u601d\u7ef4
p2649
I3
sV\u559d\u4e00\u676f
p2650
I3
sV\u5931\u53bb
p2651
I3
sV\u501f\u9274
p2652
I9
sV\u6279\u8bc4
p2653
I3
sV\u6709\u6548\u7387
p2654
I3
sV\u7ba1\u5b50
p2655
I3
sV\u767e\u4e0a
p2656
I3
sV\u61c2\u5f97
p2657
I3
sV\u5df4
I12
sV\u90c1\u95f7
p2658
I3
sV\u4fdd\u6d01
p2659
I9
sV\u95ed\u5e55\u5f0f
p2660
I3
sVOTT
p2661
I12
sV\u9ad8\u5174
p2662
I18
sV\u82a6\u5c71
p2663
I3
sV\u51fa\u8fc7
p2664
I3
sV\u6c14\u573a
p2665
I3
sV\u81ea\u5f3a
p2666
I3
sV\u771f\u723d
p2667
I3
sV\u8981\u4e48
p2668
I6
sV\u5408\u683c
p2669
I3
sV\u5168\u5fc3\u6295\u5165
p2670
I3
sV\u622a\u81f3
p2671
I3
sV\u901a\u8bdd
p2672
I3
sVbusinesses
p2673
I3
sV\u6562\u8bb2
p2674
I3
sV\u94c1\u6811\u5f00\u82b1
p2675
I3
sV\u5199
I9
sV\u4e24\u8d77
p2676
I3
sV\u5c9b
I9
sV\u8fc7\u5b8c
p2677
I3
sV\u573a\u5730
p2678
I6
sV\u60a0\u7740\u70b9
p2679
I3
sV\u5317\u4eac\u706b\u8f66\u7ad9
p2680
I3
sVJC
p2681
I3
sV\u8ffd\u95ee
p2682
I3
sV\u63a5
I12
sV\u5de5\u7a0b\u5e08
p2683
I3
sV\u6c42
I3
sV\u5927\u65b9\u5411
p2684
I6
sV\u5c40\u90e8
p2685
I3
sV\u505a\u4e8b
p2686
I6
sV\u7c7b\u4f3c
p2687
I6
sV\u72af
I6
sV\u6c61\u67d3
p2688
I27
sV\u5b66\u7403
p2689
I3
sVPM2
p2690
I6
sV\u63d0\u5347
p2691
I12
sV\u5c0f\u8f66
p2692
I6
sVblablabla
p2693
I3
sV8
I45
sV\u633a
I24
sV\u77e5\u9053
p2694
I42
sV\u820c\u5934
p2695
I3
sV\u6709\u70b9
p2696
I21
sV\u9769\u547d
p2697
I6
sV\u4e4b\u5167
p2698
I3
sV\u90a3\u8f6e
p2699
I3
sV\u7ec7
I3
sV\u5361\u5361
p2700
I3
sV\u8fd9\u6837\u513f
p2701
I3
sV\u56e2\u7ed3\u6e56
p2702
I3
sV\u4f55\u65f6
p2703
I3
sV\u8c03\u7406
p2704
I3
sV\u4e00\u6b65
p2705
I3
sV\u8dd1
I21
sV\u54f2\u7406
p2706
I3
sV\u8bd5
I6
sV\u786e\u5b9e
p2707
I3
sV\u95e8\u53e3
p2708
I9
sV\u611f\u60c5
p2709
I3
sV\u535a
I27
sV\u722d\u5148\u6050
p2710
I3
sV\u8d44\u6e90
p2711
I3
sV\u795e
I27
sV\u5927\u76d7
p2712
I3
sV\u2460
I9
sV\u53c2\u52a0
p2713
I12
sV\u6f14\u5458
p2714
I6
sV\u4f20\u4e0b\u6765
p2715
I3
sV\u697c\u5802\u9986\u6240
p2716
I6
sV\u8868
I9
sV\u6750\u6599
p2717
I3
sV\u7ecf
I3
sV\u7f51\u7edc
p2718
I12
sV\u95f7\u9a9a
p2719
I3
sV\u5df1
I3
sV\u98ce\u6c99
p2720
I3
sV\u9884\u7ea6
p2721
I3
sV\u968f\u559c
p2722
I6
sV\u641c\u7d22
p2723
I6
sV\u5f53\u524d
p2724
I3
sV\u5e02\u573a\u8425\u9500
p2725
I3
sV\u6025\u5207
p2726
I3
sV\u65f6\u5c1a
p2727
I3
sV\u5929\u9e45
p2728
I6
sV\u540a\u74f6
p2729
I3
sV\u6447\u6eda\u4e50
p2730
I3
sV\u5f92\u624b
p2731
I3
sV\u9501
I3
sV\u8f6c\u8fc7
p2732
I3
sV\u9017\u5f04
p2733
I3
sV\u96c5\u5b89
p2734
I18
sV\u6ca1\u7528
p2735
I6
sV\u8868\u73b0
p2736
I3
sV\u5e72\u7ec3
p2737
I3
sV\u670d
I3
sV\u620f
I3
sV\u7ed3\u675f\u6218\u6597
p2738
I3
sV\u6ca1\u7535
p2739
I6
sVare
p2740
I3
sV\u884c\u8d70
p2741
I3
sV\u7ecf\u5e38
p2742
I15
sV\u5de6\u80a9
p2743
I6
sV\u539a
I3
sV\u6e29\u6696
p2744
I3
sV\u599e
I3
sV\u8111\u5b50
p2745
I9
sV#
I3
sV\u56de\u53bb
p2746
I3
sV\u989c\u8272
p2747
I3
sV\u597d\u65e5\u5b50
p2748
I9
sV\u7b97\u8ba1
p2749
I3
sV\u5f88\u5feb
p2750
I6
sV\u5357\u8def
p2751
I3
sV\u54c1\u5c1d
p2752
I3
sVwow
p2753
I3
sV\u91d1\u5b9d
p2754
I3
sV\u5149\u4e34
p2755
I3
sV\u771f\u662f
p2756
I18
sV\u4e2a\u5934
p2757
I3
sV\u5176\u6b21
p2758
I3
sV\u9910\u5385
p2759
I12
sV\u8fd9\u4f1a\u513f
p2760
I3
sV\u4e50\u624b
p2761
I3
sV\u71ac\u5230
p2762
I3
sV\u866b\u513f
p2763
I3
sV\u8868\u8ff0
p2764
I3
sV\u8fd0\u8f7d\u5de5\u5177
p2765
I3
sV\u5145\u7535\u5668
p2766
I12
sV\u62db\u5f85\u8d39
p2767
I6
sV\u8fc5\u96f7\u4e0d\u53ca
p2768
I3
sV\u524d\u666f
p2769
I3
sV\u62c5\u5fc3
p2770
I12
sV\u9f50\u513f
p2771
I3
sV\u7ea6\u6cd5\u4e09\u7ae0
p2772
I6
sV\u91c7\u53d6\u884c\u52a8
p2773
I3
sV\u7ec8\u4e8e
p2774
I9
sV\u51fa\u53bb
p2775
I12
sV\u65b0\u589e
p2776
I3
sVFriends
p2777
I3
sV\u51fa\u73b0
p2778
I21
sV\u6ca1\u957f
p2779
I6
sV\u4e00\u5927\u65e9
p2780
I6
sV\u8840\u8089\u6a21\u7cca
p2781
I3
sVwater
p2782
I3
sVc
I3
sV\u6709\u673a
p2783
I3
sV\u9ed8\u9ed8
p2784
I6
sV\u5e78\u798f
p2785
I18
sV\u542f\u7528
p2786
I3
sV\u5929\u9ed1
p2787
I3
sV\u5357\u6d77\u8230\u961f
p2788
I3
sV\u53ef\u4ee5
p2789
I51
sV\u4e0a\u6d77
p2790
I21
sV\u5947\u8ff9
p2791
I3
sV\u770b\u5b8c
p2792
I3
sV\u8bf8\u591a
p2793
I3
sV\u5de5\u5546\u754c
p2794
I3
sV\u5e7f\u544a
p2795
I9
sV\u611f\u6069
p2796
I12
sV\u65f6
I39
sV\u8001\u7239
p2797
I9
sV\u6de1\u5b9a
p2798
I18
sV\u5f53\u56de\u4e8b
p2799
I3
sV\u767e\u5343\u4e07\u4ebf
p2800
I3
sV\u90a3\u4e2a
p2801
I15
sV\u522b\u6015
p2802
I3
sV\u72ec\u9886\u98ce\u9a9a
p2803
I3
sV\u5c06
I48
sVsimple
p2804
I3
sV\u968f\u5fc3
p2805
I3
sV\u4e1c\u76f4\u95e8
p2806
I9
sV\u4fe1\u606f
p2807
I12
sV\u6ca1\u94b1
p2808
I3
sV\u72b6\u51b5
p2809
I3
sV\u6700\u6015
p2810
I3
sV\u4e0d\u80fd
p2811
I42
sV\u5118
I3
sV\u867d\u662f
p2812
I3
sV\u521a
I30
sV\u4e2b\u79df
p2813
I3
sV\u8e6c
I3
sV\u6210\u672c
p2814
I3
sV\u9009\u62e9
p2815
I6
sV\u79fb\u6c11
p2816
I3
sV\u6324
I3
sV\u4e86\u7136
p2817
I3
sV\u5bf9\u4e8e
p2818
I3
sV\u957f\u671f\u4ee5\u6765
p2819
I3
sV\u819d\u76d6
p2820
I9
sV\u6bdb\u8863
p2821
I3
sV\u62dc
I18
sV\u67e5\u67e5
p2822
I3
sV\u73ab\u7470
p2823
I3
sV\u4eba\u513f
p2824
I6
sV\u5228\u77f3
p2825
I3
sV\u5916\u7525\u5973
p2826
I3
sV\u7a7a\u6c14\u6c61\u67d3
p2827
I3
sV\u8a8d\u70ba
p2828
I3
sV\u9053\u7406
p2829
I3
sV\u597d\u770b
p2830
I9
sV\u4eca\u65e9
p2831
I3
sV\u81ea\u5e7c
p2832
I3
sV\u4e00\u8282
p2833
I3
sV0000
p2834
I3
sV\u5408\u4f5c
p2835
I3
sV\u94c1\u6746
p2836
I3
sV\u5e7d\u5e7d
p2837
I3
sV\u500d
I3
sV\u5e97\u9762
p2838
I3
sV\u5267\u573a
p2839
I3
sVN
I6
sV\u65b9\u9488\u653f\u7b56
p2840
I3
sV\u5bb9
I3
sV\u673a\u667a
p2841
I3
sV\u4fe1\u606f\u65f6\u62a5
p2842
I3
sV\u653e\u6162
p2843
I3
sV\u7edd
I3
sV\u8180\u80f1\u7ecf
p2844
I3
sV\u5408\u9002
p2845
I3
sV\u6709\u610f\u601d
p2846
I6
sV\u4f20\u9001
p2847
I3
sV\u62e5
I3
sV\u5386\u65f6
p2848
I3
sV\u76b1\u7eb9
p2849
I15
sV\u55bd
I3
sV\u5fae\u8f6f
p2850
I12
sV\u9633\u5149
p2851
I12
sV\u53ef
I57
sV\u832b\u832b
p2852
I3
sV\u5e72
I6
sV\u813e\u6c14\u597d
p2853
I3
sV\u6cbb\u7406
p2854
I6
sV\u65e0\u6cd5
p2855
I12
sV\u6dfb
I3
sV\u7eaf\u6734
p2856
I3
sV\u5404\u754c\u4eba\u58eb
p2857
I3
sVSARS
p2858
I3
sV\u5f88\u591a
p2859
I15
sV\u5230\u5904
p2860
I9
sV\u6cd5\u6cbb
p2861
I3
sV\u5927\u5730
p2862
I3
sV\u5988
I3
sV\u62fc\u547d
p2863
I6
sV\u516d\u4e03\u5c81
p2864
I3
sV\u81ea\u53d1
p2865
I3
sV\u95ee\u59d0
p2866
I3
sV\u3001
I306
sV\u4fdd\u8bc1
p2867
I12
sV\u65e5\u671f
p2868
I3
sV\u6536\u83b7
p2869
I3
sV\u7acb\u523b
p2870
I3
sV\u4e0d\u607c
p2871
I3
sV\u5fb7\u56fd
p2872
I24
sV\u8840\u6d41\u5982\u6ce8
p2873
I3
sV\u8fc7\u7a0b
p2874
I9
sV\u5171
I3
sV\u6ca1\u7403
p2875
I3
sV\u957f\u54c8
p2876
I3
sV\u751f\u6d3b
p2877
I27
sVshirt
p2878
I3
sV\u4e00\u7fa4
p2879
I6
sV\u4eca\u5e74
p2880
I27
sV\u672c\u672c
p2881
I3
sV\u6253\u4ea4\u9053
p2882
I3
sV\u5473
I3
sV\u6210\u679c
p2883
I3
sV\u90a3\u4e9b
p2884
I12
sV\u79d1\u6280
p2885
I21
sV\u53f2
I6
sV\u7075\u52a8
p2886
I6
sV\u5b8c\u6210
p2887
I21
sV\u7248
I9
sV9
I30
sV\u516b\u5339
p2888
I3
sV\u547c\u5578\u800c\u8fc7
p2889
I3
sV\u4e0d\u53ef\u907f\u514d
p2890
I3
sV\u5f88\u5927
p2891
I6
sV\u751f\u6b7b
p2892
I3
sV\u907f\u5f00
p2893
I3
sV\u666e\u5409
p2894
I12
sV\u5143
I3
sV\u5b9e\u529b
p2895
I3
sV\u7b2c\u4e09\u6b21
p2896
I3
sV\u4f4d\u7f6e
p2897
I6
sV\u88e4\u8869
p2898
I3
sV\u5cf0\u4f1a
p2899
I6
sV\u5b89\u6392
p2900
I3
sV\u634f
I6
sV\u5229\u6574
p2901
I6
sV\u62ff\u5230
p2902
I3
sV\u7279\u6b8a
p2903
I3
sV\u5929\u5d29\u5730\u88c2
p2904
I3
sV\u6bd4
I27
sV\u90a3\u4efd
p2905
I3
sV\u9053\u89c2
p2906
I3
sV100000000
p2907
I3
sV\u7f8e\u8c8c
p2908
I3
sV\u540c\u5fd7
p2909
I6
sV\u98de
I9
sV\u5927\u5757
p2910
I3
sV\u65e0
I6
sV\u5341\u5927
p2911
I3
sV\u53d1\u80d6
p2912
I3
sV\u79cd\u79cd
p2913
I3
sV\u7ba9\u7b50
p2914
I3
sV\u5389\u5bb3
p2915
I3
sV\u6d41\u6d6a
p2916
I3
sV\u5e7d\u9ed8
p2917
I12
sV\u62fc
I3
sV\u67d4\u7f8e
p2918
I3
sV\u8e29
I3
sV\u5973
I24
sV\u7238\u6559
p2919
I3
sV\u7fa1\u6155
p2920
I3
sV\u95e8\u524d
p2921
I3
sV\u660f\u6697
p2922
I3
sV\u8001\u540c\u5fd7
p2923
I3
sV\u732b
I6
sV\u8857\u9053
p2924
I3
sV\u5600
I3
sV\u8981\u6c42
p2925
I12
sV\u5185
I3
sV\u5927\u6ce1
p2926
I3
sV\u5fc3\u5fc3\u76f8\u5370
p2927
I3
sV\u5f00\u7403
p2928
I3
sV\u5b89
I3
sV\u51fa\u5165
p2929
I3
sV\u547c\u547c
p2930
I3
sV\u623f\u95f4
p2931
I3
sV52.3
p2932
I6
sV\u674e\u5065
p2933
I3
sVsnow
p2934
I3
sV\u738b\u77f3
p2935
I3
sV\u827e\u8fea
p2936
I3
sV\u67e0\u6aac\u6c34
p2937
I3
sV\u53d1\u6325
p2938
I3
sV\u5b8c\u4e8b
p2939
I3
sV\u623f\u95e8
p2940
I3
sV\u5218
I3
sV\u4e0d\u597d\u610f\u601d
p2941
I9
sV\u7ea7\u522b
p2942
I3
sV\u6211\u4eec
p2943
I90
sV\u789f
I6
sV\u5f04
I6
sV\u72e0\u7684
p2944
I3
sV\u4e8b\u5152
p2945
I3
sV\u8ba9
I102
sV\u542c
I15
sV\u8861\u91cf
p2946
I3
sV\u6709\u65f6
p2947
I3
sV\u94f2\u9664
p2948
I3
sV\u4e07\u6b65
p2949
I9
sV\u7834
I3
sV\u65e5\u575b\u516c\u56ed
p2950
I3
sV\u5c0f\u5267\u573a
p2951
I3
sV\u8d56\u70b9
p2952
I3
sV\u516b\u70b9
p2953
I3
sV\u80a1\u5e02
p2954
I9
sV\u8001\u5b9e\u8bdd
p2955
I3
sV...
p2956
I9
sV\u4e00\u5c40
p2957
I3
sV\u800c\u6765
p2958
I3
sV\u5fc3\u7ecf
p2959
I3
sV\u8212\u9002
p2960
I3
sV\u5201
I3
sV\u7b11\u5bb9
p2961
I12
sV\u9519\u5c42
p2962
I3
sV\u6bc1\u574f
p2963
I3
sV\u81ea\u7231
p2964
I3
sV\u4f1f\u5927
p2965
I3
sV\u5927\u54e5
p2966
I3
sV\u8d62
I6
sV\u5fc3\u7406\u54a8\u8be2
p2967
I3
sV\u82f1\u96c4
p2968
I3
sV\u7231\u770b
p2969
I3
sV\u515a
I3
sV\u98df
I3
sV\u6e05\u9192
p2970
I3
sV\u6562
I3
sV\u5c45\u58eb
p2971
I3
sV\u8f66
I12
sV\u5077\u62cd
p2972
I3
sV\u6325\u6746
p2973
I6
sV\u82f1\u56fd
p2974
I9
sV\u5934\u7834\u8840\u6d41
p2975
I3
sV\u6c34\u6df1
p2976
I3
sV\u9e70
I3
sV\u6c60\u5b50
p2977
I3
sV\u8fd9\u513f
p2978
I9
sV\u81ea\u6478
p2979
I3
sV\u522b\u4eba
p2980
I15
sV\u5de6\u624b
p2981
I3
sV\u548b\u529e
p2982
I3
sV\u4f46\u662f
p2983
I9
sV\u95ed\u76ee
p2984
I3
sVgardening
p2985
I3
sV\u8fd9\u91cc
p2986
I9
sV\u706b\u9505
p2987
I6
sV\u4e0d\u5ec9
p2988
I3
sV\u63d0\u51fa
p2989
I6
sV\u9ad8\u7403
p2990
I6
sV\u76f4\u5954
p2991
I3
sV\u7b4b\u9aa8
p2992
I3
sV\u6d88\u8017
p2993
I3
sV\u4e0b\u4e00\u9636\u6bb5
p2994
I3
sVMWC
p2995
I3
sV\u6709\u6548
p2996
I3
sV\u5417
I69
sV\u6bdb\u6bdb\u96e8
p2997
I3
sV\u4fdd\u7f57
p2998
I3
sV\u79d1\u5b66
p2999
I3
sV\u97d3\u5287
p3000
I3
sV\u5de8\u5927
p3001
I6
sV\u600e\u6837
p3002
I12
sV\u5750\u5750
p3003
I3
sV\u5305\u5bb9\u6027
p3004
I3
sV\u592a\u665a
p3005
I3
sV\u6709\u6570
p3006
I6
sV\u751f\u5b58
p3007
I3
sV\u59d0\u9700
p3008
I3
sV\u968f\u7740
p3009
I3
sV\u5f31
I12
sV\u5927\u817f
p3010
I3
sV\u5730\u9f20
p3011
I3
sV\u7269\u6d41
p3012
I3
sV\u7845\u8c37
p3013
I6
sV\u641e
I3
sV\u4e0a\u4f20
p3014
I6
sV\u634b
I3
sV\u65e0\u6240\u4e0d\u80fd
p3015
I3
sV\u7741
I6
sV\u8fc7\u5956
p3016
I3
sV\u6148\u7f18
p3017
I6
sV\u5403\u4e8f
p3018
I3
sV\u575a\u5f3a
p3019
I6
sV\u60e8\u767d
p3020
I3
sV\u7b49
I30
sV\u7eaf\u5c5e\u865a\u6784
p3021
I3
sV\u6216\u5c11
p3022
I3
sV\u81ea\u5df1
p3023
I81
sV\u81ea\u5df2
p3024
I3
sV\u91cc
I30
sV\u5bf9
I60
sV2205879393
p3025
I3
sV\u5594
I9
sV\u5457
I9
sV\u7ade\u4e89\u5bf9\u624b
p3026
I3
sV\u804c\u573a
p3027
I3
sV\u56db\u53f7
p3028
I3
sV\u7b11\u7b11
p3029
I3
sV\u65e0\u8bba\u662f
p3030
I6
sV\u4e89\u8bba
p3031
I3
sV\u52e4\u594b
p3032
I3
sV\u50cf\u7247
p3033
I3
sV\u897f\u5355
p3034
I3
sV\u6dd8\u6c14\u9b3c
p3035
I3
sV\u60f3\u7ec7\u4ef6
p3036
I3
sV\u970d\u5c14
p3037
I3
sV\u4e03\u70b9
p3038
I3
sV\u5df2
I6
sV\u5185\u5bb9
p3039
I9
sV\u6d88\u606f
p3040
I15
sV\u77a7\u89c1
p3041
I3
sV\u9f13\u638c
p3042
I6
sV\u7a7a\u6c14
p3043
I12
sV\u9519\u5cf0
p3044
I3
sV\u5805\u5f37
p3045
I3
sV\u5ff5\u4e66
p3046
I3
sV\u8154\u8c03
p3047
I3
sV\u8bfe
I15
sV\u9700
I6
sV\u53cd\u8150\u8d25
p3048
I6
sV\u53e4\u5178
p3049
I3
sV\u6e38\u5ba2
p3050
I12
sV\u800c\u662f
p3051
I6
sVOoO
p3052
I3
sV\u7f3a\u6c27
p3053
I3
sV\u62a2\u9669
p3054
I3
sV\u74e6\u783e
p3055
I3
sV\u7b2c
I57
sV\u5973\u738b
p3056
I3
sV\u67e5\u6587
p3057
I3
sVvery
p3058
I3
sV\u5b9e\u9645\u4e0a
p3059
I3
sV\u8bb0\u8005
p3060
I24
sV\u60f3\u5f03
p3061
I3
sV\u5927\u96ea\u7eb7\u98de
p3062
I3
sV\u5bb6\u4eba
p3063
I3
sV\u901a
I3
sV\u7b49\u5f85
p3064
I3
sV\u6797\u5fbd\u8335
p3065
I3
sV\u6ca1\u89c4\u77e9
p3066
I3
sV\u63a8\u8fdb
p3067
I3
sV\u80c6\u6218\u5fc3\u60ca
p3068
I6
sV\u8d22\u653f
p3069
I3
sV\u8fd9\u4e09\u6761
p3070
I3
sV\u51fa\u6d74
p3071
I3
sV\u89c1\u5230
p3072
I3
sV\u4e0d\u6b62
p3073
I3
sV\u6301\u7eed
p3074
I3
sV\u7eff\u6811
p3075
I3
sV\u95ed\u8a00
p3076
I3
sV\u663e\u73b0
p3077
I3
sV\u5439\u725b
p3078
I18
sV\u606a\u5b88
p3079
I6
sV\u5934
I6
sV\u4e1c\u5f20\u897f\u671b
p3080
I3
sV\u8d50\u4e88
p3081
I3
sV\u6d77\u9c9c
p3082
I3
sV\u4e0b
I78
sV\u7740
I126
sV\u6000\u7740
p3083
I3
sV11.
p3084
I3
sV\u4e24\u4e2a
p3085
I36
sV\u5c0f\u4e11
p3086
I6
sV\u6210\u957f
p3087
I9
sV\u4eba\u58eb
p3088
I3
sV\u6b32\u671b\u90fd\u5e02
p3089
I3
sV\u5f97\u5230
p3090
I6
sV\u64cd
I3
sV\u7528\u6237
p3091
I3
sV\u5973\u53cb
p3092
I6
sV\u7537\u751f
p3093
I18
sVMHD
p3094
I3
sV\u4f46\u6709
p3095
I3
sV\u505a
I123
sV\u5408\u8d44
p3096
I6
sV\u5927\u95e8
p3097
I6
sV\u5fc3\u75bc
p3098
I3
sV\u2462
I6
sV\u5927\u706b
p3099
I6
sV\u4efb\u4f55
p3100
I15
sV\u5e2e\u4e60
p3101
I3
sV\u56db\u70b9
p3102
I9
sV\u4e5f\u8bb8
p3103
I3
sV\u54ed
I15
sV\u884c\u4e8b
p3104
I3
sV\u51ef
I3
sV\u6e38\u8239
p3105
I3
sV\u9886\u7565
p3106
I3
sV\u4e0a\u6709
p3107
I3
sVsometimes
p3108
I3
sV\u754c\u9762
p3109
I3
sV\u5e7f\u573a
p3110
I3
sV\u903c\u5230
p3111
I3
sV\u6559\u6388
p3112
I3
sV\u5f53\u5bb6\u4f5c\u4e3b
p3113
I3
sV\u8eab\u4f53\u5065\u5eb7
p3114
I3
sV\u5bb6\u4e2d
p3115
I3
sV\u672a\u5173
p3116
I3
sVv2
p3117
I3
sV\u90a3\u90e8
p3118
I3
sV\u5baa\u653f
p3119
I3
sV\u6ce1\u6e29\u6cc9
p3120
I3
sV\u4f9d\u7a00
p3121
I3
sV\u4e0a\u4e0b
p3122
I3
sV\u5219
I42
sV\u7c89\u4e1d
p3123
I3
sV\uff1b
I330
sVDrolma
p3124
I6
sV\u665a\u9910
p3125
I9
sV\u561b
I21
sV\u591f
I9
sV\u53c2\u7167
p3126
I3
sV\u6025
I3
sV\u8d27
I3
sV\u4ea6
I6
sV\u597d\u559d
p3127
I6
sVBartz
p3128
I3
sV\u6307\u5bfc
p3129
I6
sV\u5076\u50cf\u5267
p3130
I3
sV\u4ea4\u6d41
p3131
I6
sV\u5c34\u5c2c
p3132
I3
sVTM
p3133
I3
sV\u5835
I15
sV\u5c11\u4e4b\u53c8\u5c11
p3134
I3
sV\u542c\u5230
p3135
I15
sV\u8239
I3
sVTD
p3136
I18
sV\u66f4\u8863
p3137
I3
sV\u72ec\u7279
p3138
I6
sV\u4e0d\u80fd\u4e0d
p3139
I12
sV\u6267\u884c
p3140
I6
sV\u9b54\u9b3c
p3141
I3
sV\u54b8\u83dc
p3142
I3
sV\u5ff5\u4f5b
p3143
I6
sV\u5112\u96c5
p3144
I3
sV\u76d1\u6d4b\u4e2d\u5fc3
p3145
I3
sV\u795e\u8f66
p3146
I3
sV\u8fdb\u9519
p3147
I3
sV\u6307\u5b9a
p3148
I6
sV\u652f\u6301
p3149
I15
sV\u62ce
I3
sV\u5931\u843d
p3150
I12
sV\u9886\u5bfc\u529b
p3151
I9
sV\u8fd0\u52a8\u5458
p3152
I3
sV\u63d0\u9ad8\u8b66\u60d5
p3153
I3
sV\u76d6
I12
sV\u53d8
I6
sV\u7ec3\u5251
p3154
I3
sV\u6bcf\u5e74
p3155
I6
sV\u5f71\u54cd
p3156
I12
sV\u6c38\u5174
p3157
I3
sV\u4e9a\u8fd0
p3158
I3
sV\u665a\u996d
p3159
I3
sV\u591a\u4e48
p3160
I3
sV\u6709\u6ca1\u6709
p3161
I6
sV\u6323\u624e
p3162
I3
sVGURUJI
p3163
I3
sV\u8bd5\u8bd5
p3164
I15
sV\u6311\u6218
p3165
I18
sV\u8d85\u7ea7
p3166
I9
sV\u5357\u4eac
p3167
I9
sV\u7aef\u76d8\u5b50
p3168
I3
sV\u60f3\u5ff5
p3169
I3
sV\u56fd\u9645
p3170
I6
sV\u8be6\u89c1
p3171
I3
sV2001
p3172
I2
sV\u4e0d\u6210
p3173
I3
sV\u8010\u529b
p3174
I3
sV\u6279
I3
sV2008
p3175
I3
sV\u884c\u4e1a
p3176
I9
sVhello
p3177
I3
sV\u661f\u661f
p3178
I3
sVCPI
p3179
I6
sV\u4e00\u5207
p3180
I15
sV\u4e3a\u4ec0\u4e48
p3181
I6
sV\u5bc6\u6b47\u6839\u5dde
p3182
I3
sV\u6743\u5a01
p3183
I3
sV\u5f8b\u52a8
p3184
I3
sV\u4e00\u4e00
p3185
I9
sV\u65e9\u8d77
p3186
I15
sV2788
p3187
I3
sV\u909b\u5d03
p3188
I6
sV\u8db3\u8ff9
p3189
I3
sV\u4ed6\u5011
p3190
I3
sV\u9a97
I3
sV\u5916
I9
sV50
p3191
I3
sV\u8ffd\u6eaf
p3192
I3
sV\uff1a
I255
sV\u958b\u5fc3
p3193
I3
sV\u4e0d\u5b89
p3194
I3
sV\u987a\u98ce
p3195
I3
sV\u770b\u7740
p3196
I9
sV\u4e24
I3
sV\u72b9\u5b58
p3197
I3
sV\u505a\u68a6
p3198
I3
sV\u6765\u81ea
p3199
I6
sV\u7535\u5f71
p3200
I9
sVyoung
p3201
I3
sV\u7eaf
I3
sV\u5956\u52b1
p3202
I6
sV\u987e\u53ca
p3203
I3
sV\u8d8a\u662f
p3204
I12
sV\u7acb\u5f97
p3205
I6
sV\u6b23\u559c
p3206
I3
sV\u6253\u5f00
p3207
I3
sV\u5c0f\u5956
p3208
I3
sV\u770b\u597d
p3209
I3
sV\u56e2\u961f
p3210
I18
sV\u5f00\u653e
p3211
I15
sV\u5e0c\u671b
p3212
I21
sV\u9ed1\u7ebf
p3213
I3
sV\u653e
I6
sV\u8d70\u5411
p3214
I3
sV\u5fc5
I6
sV\u4e00\u7247
p3215
I3
sV\u5bd2\u6c14
p3216
I3
sV\u56de\u5f52
p3217
I3
sV\u707e\u5bb3
p3218
I6
sV\u8bcd
I3
sV\u5f53\u5e74
p3219
I6
sV\u65e5
I54
sV\u8352
I3
sV\u52e4\u52b3
p3220
I3
sV\u7948\u798f
p3221
I6
sV\u5237\u65b0
p3222
I6
sV\u5e26\u52a8
p3223
I3
sV\u674e\u6b63\u8302
p3224
I6
sV\u4e00\u6c14\u5475\u6210
p3225
I3
sV\u6253\u8f66
p3226
I3
sV\u53d6\u4fe1\u4e8e\u6c11
p3227
I6
sV\u7687\u5bb6
p3228
I3
sV\u524d\u6392
p3229
I3
sV\u4ed6\u4eba
p3230
I3
sV\u597d\u73a9\u513f
p3231
I3
sV\u548b\u6837
p3232
I3
sV\u770b\u770b
p3233
I33
sV\u5fae\u4fe1
p3234
I6
sV\u9632\u707e
p3235
I3
sV\u4e30\u97f5
p3236
I3
sV\u7a7f\u68ad
p3237
I6
sVthis
p3238
I3
sV\u8d85\u8d5e
p3239
I3
sV?
I12
sV\u7ad6\u8d77
p3240
I3
sV\u65b0\u6d6a
p3241
I21
sV\u65f6\u5019
p3242
I9
sV\u5171\u540c\u52aa\u529b
p3243
I3
sV\u5982\u5750\u9488\u6be1
p3244
I3
sV\u5fc3\u5f97
p3245
I12
sV\u8f6c\u4e16
p3246
I3
sV\u5bbd\u5e26
p3247
I6
sV\u4efb\u804c
p3248
I3
sV\u5df4\u585e
p3249
I6
sV\u60c5\u4eba
p3250
I9
sVtoo
p3251
I3
sVRamada
p3252
I3
sV\u535a\u5f08
p3253
I3
sV\u5272\u88c2
p3254
I6
sV\u5207
I3
sV\u5509
I3
sV\u822a\u6d77
p3255
I6
sV\u575a\u6301
p3256
I21
sV\u7279\u70b9
p3257
I3
sV\u54c8\u54c8
p3258
I6
sV\u91ce\u732b
p3259
I3
sV\u4eab\u53d7
p3260
I9
sV\u77a0\u76ee\u7ed3\u820c
p3261
I3
sVgo
p3262
I3
sV\u8bbe\u8ba1
p3263
I6
sV\u957f\u5927
p3264
I3
sV\u901b
I3
sV\u5b66\u4f5b
p3265
I3
sV\u793e\u4f1a\u4e3b\u4e49
p3266
I6
sV\u5b50
I6
sV\u65b9\u6848
p3267
I3
sV\u56fd\u5916
p3268
I3
sV\u4e3b\u7ba1\u90e8\u95e8
p3269
I3
sV\u5e9f\u4eba
p3270
I3
sVNamo
p3271
I6
sV\u59d0\u5b66\u8f66
p3272
I3
sV\u5927\u66b4\u96e8
p3273
I3
sV\u96b1\u5fcd
p3274
I3
sV\u4e30\u5bcc\u591a\u5f69
p3275
I3
sV\u7acb\u5f0f
p3276
I3
sV\u592a\u6851
p3277
I3
sV\u623f\u5b50
p3278
I15
sV\u8349
I3
sV\u7ffb\u8bd1\u6210
p3279
I3
sV\u8001\u5e74
p3280
I3
sV\u4e2d\u56fd
p3281
I54
sV\u603b
I21
sV\u611f\u8c22
p3282
I12
sVcan
p3283
I3
sV\u5927\u5a76
p3284
I3
sV\u6253\u9519\u5b57
p3285
I3
sV\u606d\u8fce
p3286
I3
sV\u5077\u8dd1
p3287
I3
sV\u7247
I3
sV\u51c6
I18
sV\u83b1\u5e03\u5c3c\u8328
p3288
I3
sV\u54c8
I6
sV\u5f81\u6536
p3289
I3
sV\u5927\u70ed\u5929
p3290
I6
sV\u4f60\u4eec
p3291
I42
sV\u811a\u624b\u67b6
p3292
I3
sV\u90c1\u7ed3
p3293
I3
sV\u8bf4\u4e0d
p3294
I3
sV\u60f3\u50cf
p3295
I3
sV\u5c0f\u59b9
p3296
I3
sV\u72ec\u7acb\u601d\u8003
p3297
I3
sV\u4ece\u672a\u6709\u8fc7
p3298
I3
sVsexy
p3299
I3
sV\u56de\u5fc6
p3300
I6
sV\u7535\u95ea\u96f7\u9e23
p3301
I3
sV\u8fdc\u5904
p3302
I3
sV\u54c8\u54c8\u54c8
p3303
I3
sV48
p3304
I3
sV7700
p3305
I3
sV\u76f8\u4e0d
p3306
I3
sV\u707e\u96be\u6027
p3307
I3
sV\u62fd
I3
sV31
p3308
I6
sV30
p3309
I12
sV37
p3310
I3
sV\u6cb9\u753b
p3311
I3
sV\u5dee
I3
sV\u6d77\u5357
p3312
I3
sV\u4e00\u4f1a\u513f
p3313
I6
sV\u590d\u5236
p3314
I3
sV\u5177\u4f53
p3315
I6
sV\u542f\u793a
p3316
I3
sV\u4f17\u661f\u6367\u6708
p3317
I3
sV+
I6
sV\u85cf\u7352
p3318
I3
sV\u660e\u767d
p3319
I3
sV\u5206\u6790
p3320
I6
sV\u5927\u5bb6
p3321
I60
sV\u5192\u7136
p3322
I3
sV\u5341\u4e94\u5339
p3323
I3
sV\u6f14\u793a
p3324
I6
sV\u5e76\u4ee5
p3325
I3
sV\u963f\u5f25\u9640\u4f5b
p3326
I18
sV\u81ea\u5236
p3327
I3
sV\u76f8\u4fe1
p3328
I21
sV\u5f71\u54cd\u529b
p3329
I3
sV\u4fe1\u606f\u65f6\u4ee3
p3330
I3
sV\u9a82
I9
sVprivately
p3331
I3
sV\u4e1d\u6beb
p3332
I9
sVblog
p3333
I3
sV\u9ce5
I3
sVgateway
p3334
I3
sV\u8bfa\u897f\u7f51
p3335
I3
sV\u7ea2\u8c46
p3336
I6
sV\u597d\u7b11
p3337
I12
sV\u5e74\u8f7b
p3338
I18
sV\u9001\u793c\u7269
p3339
I3
sV\u2026
I57
sV\u4f01\u4e1a\u7ba1\u7406\u8005
p3340
I6
sV\u7ecf\u5386
p3341
I15
sV\u5076\u662f
p3342
I3
sV\u5730\u70b9
p3343
I3
sV\u8fdc\u79bb
p3344
I3
sV\u80fd\u529b
p3345
I27
sV\u5728\u624b
p3346
I3
sV\u8001\u5ff5
p3347
I3
sV\u68a6\u60f3
p3348
I6
sV\u5c55\u5385
p3349
I3
sV\u8d70\u8def
p3350
I9
sV\u7b2c\u4e8c\u6b21
p3351
I3
sV\u4e3a
I72
sV\u82bd
I3
sV\u6b63\u5e38\u4eba
p3352
I3
sV\u8ff7\u5012
p3353
I3
sV\u7a0e
I3
sV\u51fa\u5e2d
p3354
I9
sV\u771f\u8bdd
p3355
I3
sV\u8001\u7956\u5b97
p3356
I3
sV\u7ea2\u9152
p3357
I3
sV\u5fc3\u91cc
p3358
I3
sV\u4e00\u534a
p3359
I6
sV\u5168\u5bb6
p3360
I3
sV\u731c\u731c
p3361
I3
sV\u5c55\u53f0
p3362
I9
sV\u5b8c
I9
sV\u8fd8\u8981
p3363
I6
sV\u7529\u6389
p3364
I3
sV\uff0f
I6
sVannounce
p3365
I3
sV\u5e08\u5144
p3366
I3
sV\u4ee5\u9632
p3367
I3
sV\u4e00\u6392
p3368
I6
sV\u4e03\u7a8d\u751f\u70df
p3369
I3
sV\u6b63\u6708
p3370
I3
sV\u4ee5
I33
sVLIKE
p3371
I3
sV\u900f\u8fc7
p3372
I3
sV\u63a2\u9669\u5bb6
p3373
I3
sV\u7b2c\u4e00\u53e5
p3374
I3
sV\u4e24\u8005
p3375
I3
sV\u5143\u6167
p3376
I3
sV\u665a\u971e
p3377
I3
sV\u6e29\u6696\u5982\u6625
p3378
I3
sV\u5f3a\u52bf
p3379
I3
sV\u8bf7
I33
sV\u5426\u5219
p3380
I9
sV\u5371\u9669
p3381
I6
sV\u52a9\u4eba
p3382
I3
sV\u900f\u6c14
p3383
I3
sV\u8f66\u91cc
p3384
I9
sV\u6109\u60a6
p3385
I6
sVpoint
p3386
I3
sVbeijing
p3387
I3
sV\u5403\u996d
p3388
I15
sV\u5e05
I6
sV\u6cf0\u5357
p3389
I3
sV\u8868\u63da
p3390
I3
sV\u5440
I12
sVTOP
p3391
I3
sV\u53d7\u591f\u4e86
p3392
I3
sV\u591a\u6a21
p3393
I3
sV\u751f\u610f
p3394
I3
sV\u732b\u6251
p3395
I3
sV\u81ea\u52a8
p3396
I3
sV\u9999\u751c
p3397
I9
sV\u4eba\u95f4
p3398
I3
sV\u8c8c\u4f3c
p3399
I21
sV\u95ed\u5e55
p3400
I3
sV\u611b
I3
sV\u771f
I51
sV\u50bb
I6
sV\u9876\u5c42
p3401
I3
sV\u7f51\u7edc\u901a\u4fe1
p3402
I3
sV14.
p3403
I3
sV\u672c\u6b21
p3404
I3
sV\u8fc7\u763e
p3405
I3
sV\u6df1\u523b
p3406
I3
sV\u672a\u5f52
p3407
I3
sV\u5b66\u751f
p3408
I9
sV\u4eac\u97f5
p3409
I3
sV\u9876\u793c
p3410
I3
sV\u4f11\u606f
p3411
I3
sV\u723d\u5fc3
p3412
I3
sV\u4eba
I252
sV\u4fc3\u9500
p3413
I3
sV\u5e38\u89c1\u75c5
p3414
I3
sV\u505c
I3
sV\u5730\u9053
p3415
I3
sV\u5347
I3
sV\u7ec3\u5b8c
p3416
I3
sV\u4e94\u5343\u5e74
p3417
I3
sV\u4e00\u8f88\u5b50
p3418
I3
sV\u4e13\u5bb6
p3419
I24
sV\u5192\u51fa
p3420
I6
sV\u7761
I15
sV\u5927\u5b66
p3421
I6
sV\u6655
I6
sVFraueninsel
p3422
I3
sV\u5b57
I12
sV\u592a\u5e05
p3423
I3
sV\u4ebf\u7f8e\u5143
p3424
I12
sV\u676d\u5dde
p3425
I6
sV\u6293\u7d27
p3426
I3
sV\u76f8\u4f34
p3427
I3
sV\u5ba2\u6237\u7aef
p3428
I9
sV\u6d51\u6d51
p3429
I3
sV\u4e00\u53e5
p3430
I3
sV\u4e00\u53ea
p3431
I9
sVsit
p3432
I3
sV\u9886\u5bfc
p3433
I15
sV\u773c\u775b
p3434
I6
sV\u54fc
I3
sV\u66f4\u662f
p3435
I3
sV\u5f52
I3
sV\u5e76\u4e14
p3436
I3
sV\u81ea\u52c9
p3437
I6
sV\u9876\u5c16
p3438
I3
sV\u540c\u5b66\u4eec
p3439
I3
sV\u6696\u6c14
p3440
I3
sV\u817b
I3
sV\u4e60\u8fd1\u5e73
p3441
I6
sV\u771f\u6b63
p3442
I15
sV\u5434\u9759
p3443
I3
sV\u8463\u4e8b\u4f1a
p3444
I3
sV\u7279\u522b
p3445
I3
sV\u56fd\u5bb6
p3446
I12
sV\u4e0d\u4fe1
p3447
I3
sV\u6df7\u4e71
p3448
I3
sV\u4e0a\u5347
p3449
I3
sV\u5b9a\u4f4d
p3450
I3
sV\u81ea\u7136
p3451
I3
sV\u91cd\u6e29
p3452
I3
sV\u773c\u955c\u67b6
p3453
I3
sV\u56db\u5ddd
p3454
I3
sV\u53bb\u4e00\u8d9f
p3455
I6
sV\u644a\u724c
p3456
I3
sV\u6210
I9
sV\u53ef\u601c
p3457
I3
sV\u7279\u723d
p3458
I3
sV\u518d\u5c31\u662f
p3459
I3
sV\u8425\u4e1a\u5385
p3460
I3
sV\u4f53\u4f1a
p3461
I3
sV\u529b
I36
sV\u767d\u5929
p3462
I3
sV\u301c
I27
sV\u6253\u8d25
p3463
I6
sV\u5927\u98a8
p3464
I6
sV\u503c\u5f97
p3465
I6
sV\u4e0d\u8fc7
p3466
I24
sV\u4e86\u4e0b
p3467
I3
sV\u539f\u5219
p3468
I12
sV\u91c7\u8bbf
p3469
I3
sV\u6628
I3
sV\u5e9f\u6c34
p3470
I3
sVHerreninsel
p3471
I3
sV\u5de6\u4e00
p3472
I3
sV\u5230
I117
sV\u8fc2\u56de\u66f2\u6298
p3473
I3
sV\u653e\u4e0b
p3474
I3
sV\u55b5
I6
sV\u5207\u6362
p3475
I3
sV\u8001\u5916
p3476
I6
sV\u8fb9
I18
sV\u9635
I3
sV\u5de6\u4e0b
p3477
I3
sV2011
p3478
I15
sV2013
p3479
I9
sV2012
p3480
I30
sV\u4e0a\u83dc
p3481
I3
sV\u96ea\u767d
p3482
I3
sV\u7ec3
I3
sV\u516b\u5341\u591a\u5c81
p3483
I3
sV\u6251
I3
sV\u7acb\u4ea4\u6865
p3484
I3
sV\u6548\u679c
p3485
I6
sV\u5929\u707e
p3486
I3
sV\u554a
I258
sV\u771f\u68d2
p3487
I9
sV\u60ca
I6
sV\u4e00\u904d
p3488
I6
sV\u89c4\u5f8b
p3489
I3
sV\u4e00\u9053
p3490
I3
sV\u8282\u65e5\u5feb\u4e50
p3491
I6
sV\u559c\u6b22
p3492
I30
sV\u7b2c\u4e8c\u9636\u6bb5
p3493
I3
sV\u5fd9
I12
sV\u82cf\u7acb
p3494
I3
sV\u949f
I3
sV\u6253\u7834
p3495
I3
sV\u89c4\u5212
p3496
I3
sVday
p3497
I6
sV\u54df
I3
sV\u5927\u558a\u5927\u53eb
p3498
I3
sV\u4f18\u8d28
p3499
I3
sV\u770b\u76d8
p3500
I3
sV\u6d3b\u5f97
p3501
I3
sV\u9e3d\u5b50
p3502
I3
sV\u7b2c\u4e00\u90e8
p3503
I3
sV\u771f\u4e0d\u77e5\u9053
p3504
I3
sV\u9e1f\u9e23
p3505
I3
sV\u522e\u9762
p3506
I3
sV\u59cb\u7ec8
p3507
I6
sV\u719f\u5973
p3508
I3
sV\u5b57\u5e55
p3509
I3
sV\u66f4\u65b0
p3510
I12
sV\u5929\u901a\u82d1
p3511
I3
sV\u65e5\u884c
p3512
I3
sV\u5e7f\u7ed3\u5584\u7f18
p3513
I3
sV\u7b97\u6570
p3514
I3
sV\u91cd\u751f
p3515
I3
sV\u5927\u98ce
p3516
I9
sV\u80fd\u91cf
p3517
I9
sVfunny
p3518
I3
sV\u5564\u9152
p3519
I3
sV\u707f\u70c2
p3520
I9
sV\u4e9a\u6d32
p3521
I3
sV\u6295\u7968
p3522
I3
sV\u51fa\u5dee
p3523
I6
sV\u515a\u548c\u56fd\u5bb6
p3524
I6
sV\u4e86\u5e94
p3525
I3
sV\u79c0
I9
sVbump
p3526
I3
sV\u5176\u4e8c
p3527
I3
sV\u5c0f\u65f6\u5019
p3528
I3
sV\u901d\u53bb
p3529
I3
sV\u53d1\u8fbe
p3530
I3
sV\u753b\u9762
p3531
I3
sV\u5c0f\u9ea6
p3532
I6
sV\u5df4\u585e\u7f57\u90a3
p3533
I18
sV\u975e\u540c\u4e00\u822c
p3534
I3
sV\u91d1\u78a7\u8f89\u714c
p3535
I3
sV80
p3536
I3
sVPHD
p3537
I3
sV\u5f00\u6218
p3538
I3
sV\u63ed\u8c1b
p3539
I12
sV\u5947\u5999
p3540
I6
sV\u9891\u53d1
p3541
I3
sV\u76c6\u53cb
p3542
I3
sV\u770b\u75c5
p3543
I3
sV\u5730\u533a
p3544
I3
sV\u73cd\u60dc
p3545
I3
sV\u540c\u978b
p3546
I3
sV\u522b\u626d
p3547
I3
sV\u5fae
I30
sV\u897f\u5f0f
p3548
I3
sV\u8d70\u6b65
p3549
I3
sV\u4eba\u751f
p3550
I27
sV\u6b22\u4e50
p3551
I12
sV\u8f6c\u81f3
p3552
I3
sV\u5404\u65b9
p3553
I3
sVBaby
p3554
I3
sV\u4e00\u70b9
p3555
I3
sV\u7834\u8d22
p3556
I3
sV\u767e\u6746
p3557
I3
sV\u5df2\u5feb
p3558
I3
sV\u7ede\u75db
p3559
I3
sV\u82ac\u5170
p3560
I12
sV\u548c\u5fae\u535a
p3561
I3
sVThis
p3562
I3
sV\u884c
I3
sV\u5982\u4eca
p3563
I12
sV\u8fce
I3
sV\u6240\u8c13
p3564
I9
sV\u6700\u8fd1
p3565
I3
sV\u5c3c\u65af
p3566
I3
sV\u4f4f
I6
sV\u53cc\u65b9
p3567
I3
sV\u5927\u4f19
p3568
I6
sV\u4f5c\u966a
p3569
I3
sV\u725b
I15
sV\u660e\u8273
p3570
I3
sV\u529b\u91cf
p3571
I12
sV\u94fe\u63a5
p3572
I9
sV\u54c8\u6070\u56fe
p3573
I3
sV\u529f\u80fd
p3574
I6
sV\u4eca\u513f
p3575
I6
sV\u62a5\u6848
p3576
I3
sVg
I3
sV\u6709\u628a\u63e1
p3577
I6
sV\u89c4\u5212\u5e08
p3578
I6
sV\u8ffd
I3
sV\u79c1\u81ea
p3579
I3
sV\u996d
I15
sV\u76fc\u671b
p3580
I3
sV\u8fd9\u4e9b
p3581
I21
sV\u53ef\u80fd
p3582
I18
sV\u52d2
I3
sV\u4e0d\u4f11
p3583
I3
sV\u603b\u7406
p3584
I18
sV\u8ffd\u6c42
p3585
I3
sV\u6c61\u67d3\u7269
p3586
I6
sV\u5f97\u51fa
p3587
I3
sV\u4e0d\u4f1a
p3588
I21
sV\u91cd\u4f24
p3589
I3
sV\u5c0f\u9a6c
p3590
I9
sV\u4e0d\u6ee1
p3591
I3
sV\u4e0b\u8f66
p3592
I3
sV\u5929\u513f
p3593
I3
sV\u7206
I9
sV\u51c0\u5229\u6da6
p3594
I6
sV\u5708
I3
sV\u9c9c\u59dc
p3595
I3
sV\u5f7b\u5e95
p3596
I6
sV\u5341\u4e03
p3597
I3
sVowned
p3598
I6
sV\u4e0e
I54
sV\u5927\u7ea2\u4eba
p3599
I3
sV\u626f
I6
sV\u8981\u4e0d\u7136
p3600
I3
sV\u6012
I3
sV\u62bc\u97f5
p3601
I3
sV\u6307\u7740
p3602
I3
sV\u5f69\u4fe1
p3603
I3
sV\u6536\u8d39
p3604
I6
sV\u5954\u8dd1
p3605
I3
sV\u5e74\u9f84
p3606
I3
sV\u4e0d\u4ec5
p3607
I12
sV\u4e0d\u5728\u610f
p3608
I3
sV\u5305
I3
sV\u529e\u597d
p3609
I3
sV\u5f00\u6625
p3610
I3
sV\u7247\u513f
p3611
I3
sV\u6728
I18
sVCMCC
p3612
I3
sV\u6d78\u6f64
p3613
I3
sV\u95e8\u5c97
p3614
I3
sV\u8d4f\u5fc3\u60a6\u76ee
p3615
I3
sV\u5e2e
I6
sV\u597d\u5904
p3616
I3
sV\u4eea\u5f0f
p3617
I3
sV\u91d1\u699c\u9898\u540d
p3618
I3
sV\u5c1d\u9c9c
p3619
I3
sV\u80fd\u6210
p3620
I3
sVreally
p3621
I3
sV\u5927\u5988
p3622
I9
sV\u4e0d\u7d27\u4e0d\u6162
p3623
I3
sV\u6dfb\u4e71
p3624
I3
sV\u96c6\u4e2d
p3625
I6
sV\u770b\u5427
p3626
I3
sV\u597d\u597d
p3627
I18
sV\u4fee\u6301
p3628
I3
sV\u950b\u5229
p3629
I3
sV\u97f3\u4e50
p3630
I18
sV\u6bb5\u65f6\u95f4
p3631
I3
sV\u5171\u4e8b
p3632
I3
sV\u76ee\u6807
p3633
I6
sV\u5982\u4f55
p3634
I21
sV\u63a8\u63a8
p3635
I3
sVRatna
p3636
I6
sV\u770b\u8d77\u6765
p3637
I3
sV\u4e00\u4e8c
p3638
I3
sV\u817e\u8baf
p3639
I18
sV\u7ed9
I93
sV\u6d41\u5165
p3640
I3
sV\u7d27\u95ed
p3641
I3
sV\u68d2
I9
sV\u4eac\u5267
p3642
I6
sV\u4ee5\u540e
p3643
I21
sV\u7406\u5ff5
p3644
I3
sV\u8bb0\u8005\u4f1a
p3645
I6
sV\u5927\u59d0
p3646
I12
sV\u604b\u604b
p3647
I3
sV\u4e45\u800c\u4e45\u4e4b
p3648
I3
sV\u4e2d\u7528
p3649
I3
sV\u6c89\u9189
p3650
I3
sV\u817e\u8fc5
p3651
I3
sV\u6784\u56fe
p3652
I3
sV\u65e0\u804a
p3653
I3
sV\u65e9\u4e0a
p3654
I9
sV\u4e07\u7269
p3655
I9
sV\u987f\u89c9
p3656
I3
sV\u5e94\u4e88\u4ee5
p3657
I3
sV\u679c\u5cad
p3658
I9
sV\u80fd
I114
sV\u5927\u7968
p3659
I3
sV\u56fd\u7acb
p3660
I3
sV\u554a\u554a\u554a
p3661
I3
sV1.5
p3662
I3
sV\u4ece\u6765\u4e0d
p3663
I3
sV\u4e16\u6545
p3664
I3
sV\u5355
I3
sVTraya
p3665
I6
sV\u9f50\u6b65\u8d70
p3666
I3
sV\u8bf7\u6765
p3667
I3
sV\u5934\u8111
p3668
I3
sV\u6211
I438
sV\u4fe1\u4ef0
p3669
I3
sV750
p3670
I6
sV\u6700\u611b
p3671
I3
sV\u8273\u540e
p3672
I3
sV\u5e94\u7528
p3673
I6
sV\u665a\u5341\u70b9
p3674
I3
sVneed
p3675
I3
sV\u88c5
I6
sV164.3
p3676
I6
sV\u5df2\u7ecf
p3677
I33
sV\u673a\u68b0
p3678
I3
sV\u6234
I3
sV\u751f
I9
sV\u5934\u75db
p3679
I3
sV\u4e0d\u4e45
p3680
I3
sV\u4e30\u6536
p3681
I3
sV\u6211\u7231\u4f60
p3682
I3
sV\u590d\u6742
p3683
I6
sV\u65b0\u4eba
p3684
I3
sV\u5b69\u5b50
p3685
I18
sV\u6c34
I9
sV\u516c\u56ed
p3686
I3
sV\u5927\u591a
p3687
I3
sV\u7d2f
I12
sVfor
p3688
I3
sV\u7231
I27
sVmix
p3689
I3
sV\u5934\u6655\u76ee\u7729
p3690
I3
sV\u56db\u5904\u5bfb\u627e
p3691
I3
sV\u68c0\u51fa
p3692
I3
sV\u7fe0\u6e56
p3693
I3
sV\u4e0d\u5229\u56e0\u7d20
p3694
I3
sV\u5de5\u79d1
p3695
I3
sV\u4f20\u7edf
p3696
I3
sV\u51cf\u5c11
p3697
I6
sV\u4e00\u53f7
p3698
I6
sV\u900f\u4eae
p3699
I3
sV\u5efa\u8bae
p3700
I3
sV\u542f\u7a0b
p3701
I3
sV\u745e\u666e
p3702
I3
sV\u614c\u5f20
p3703
I6
sV\u4e0d\u4e2d
p3704
I3
sV\u5927\u597d
p3705
I3
sV\u7f18
I3
sV\u8f7b\u677e
p3706
I6
sV\u4ece
I81
sV\u65b0\u4e00\u4ee3
p3707
I3
sV\u63d0
I6
sV\u5efa\u8bbe
p3708
I6
sVvisa
p3709
I3
sV\u5c3d\u7ba1
p3710
I3
sV\u836f\u54c1
p3711
I3
sV\u624d\u5973
p3712
I3
sV\u7ecf\u5178
p3713
I6
sV\u5171\u52c9
p3714
I3
sV\u6765\u4e34
p3715
I3
sV\u4ece\u5934
p3716
I3
sV\u601d\u8def
p3717
I3
sV\u5938\u5938\u5176\u8c08
p3718
I3
sV\u4e00\u7ea7
p3719
I9
sV\u4ee5\u4e0a
p3720
I6
sV\u7ed3\u5a5a
p3721
I3
sV\u592d\u4ea1
p3722
I3
sV\u4eba\u80fd
p3723
I3
sV\u5341\u516b
p3724
I6
sV\u5f8b\u5e08
p3725
I3
sV\u6454\u5012
p3726
I3
sV\u7977\u544a
p3727
I3
sV\u4e0d\u4e0a
p3728
I3
sV\u8d77\u4f0f
p3729
I3
sV\u907f\u514d
p3730
I6
sV\u5475
I3
sV\u95f4
I6
sV\u6b64\u60c5\u6b64\u666f
p3731
I3
sV\u6253\u626e\u8d77\u6765
p3732
I3
sV\u4e00\u51fa
p3733
I3
sVwounded
p3734
I3
sVBishop
p3735
I3
sV\u66fe
I18
sV\u9e5e\u5b50\u7ffb\u8eab
p3736
I3
sV\u7cbe\u6cb9
p3737
I3
sV\u4f11\u95f2
p3738
I3
sV\u57f9\u8bad
p3739
I3
sV\u5b81\u6ce2
p3740
I3
sV\u4e0d\u89e3
p3741
I3
sV\u6210\u4e3a
p3742
I9
sV\u8fd9\u6837\u7684\u8bdd
p3743
I3
sV\u7537\u4eec
p3744
I3
sV\u5f80\u751f\u5492
p3745
I3
sV\u672c\u4e8b
p3746
I3
sV\u5730\u6b65
p3747
I3
sV\u5927\u8def
p3748
I3
sVfirst
p3749
I6
sV\u6388\u7c89
p3750
I12
sV\u8336\u6c34
p3751
I3
sV\u4e8b\u4ef6
p3752
I15
sV\u5e97
I6
sV\u80cc\u5f71
p3753
I3
sV\u9999
I12
sVsoldiers
p3754
I3
sV\u60ca\u89c1
p3755
I3
sV\u524d\u4eba
p3756
I3
sV\u53ef\u662f
p3757
I12
sV\u5212\u5f97
p3758
I3
sV\u81ea\u4e0d\u5fc5\u8bf4
p3759
I3
sV\u6f84\u6f88
p3760
I3
sV(
I63
sV\u516c\u516c
p3761
I9
sV\u5a92\u4f53
p3762
I3
sV\u9ad8\u5ea6
p3763
I3
sV\u672c\u8eab
p3764
I6
sV\u535a\u5ba2
p3765
I3
sV\u4e0b\u884c
p3766
I3
sV\u5927\u59e8\u5988
p3767
I3
sV\u5c81\u6570
p3768
I3
sV\u8d85\u957f
p3769
I3
sV\u8865\u7ed9
p3770
I3
sV\u4e4b\u5916
p3771
I3
sV\u673a\u4f1a
p3772
I6
sV\u4e00\u9635
p3773
I6
sV\u65e5\u6655
p3774
I3
sV\u5373\u662f
p3775
I3
sVhe
p3776
I3
sV\u672c\u4eba
p3777
I3
sV\u6c76\u5ddd
p3778
I3
sV\u6295\u7a3f
p3779
I3
sV\u723d\u5fc3\u60a6\u76ee
p3780
I3
sV\u53cd\u800c
p3781
I3
sVmember
p3782
I3
sV\u795e\u8ff9
p3783
I3
sV\u51c9
I6
sV\u5546\u4e1a
p3784
I12
sV\u5feb\u901f\u589e\u957f
p3785
I6
sV\u56de\u7b54
p3786
I12
sV\u8fce\u63a5
p3787
I3
sV12.
p3788
I6
sV13.
p3789
I3
sV122
p3790
I3
sV\u827a\u4eba
p3791
I3
sV\u5b8c\u8bfe
p3792
I3
sV\u505a\u6cd5
p3793
I3
sV\u5341\u56db
p3794
I3
sV\u6362\u8863\u670d
p3795
I3
sV\u7537\u4eba
p3796
I15
sV\u6148\u5584
p3797
I3
sV\u7075\u9b42
p3798
I3
sV\u5149\u5929\u5316\u65e5
p3799
I3
sV\u89c1\u9762
p3800
I6
sV\u4e0d\u8981
p3801
I24
sVForget
p3802
I3
sV\u53f3\u4e0b\u89d2
p3803
I3
sV\u2014
I66
sV\u8981\u662f
p3804
I12
sV\u996e
I3
sV\u5973\u58eb
p3805
I6
sV\u58a8\u5b88
p3806
I3
sV\u6267\u884c\u529b
p3807
I9
sV\u5408\u5341
p3808
I3
sV\u5fc5\u987b
p3809
I18
sV\u8d76
I6
sV\u6027\u8da3
p3810
I3
sV\u63a5\u53d7
p3811
I15
sVfixed
p3812
I3
sV\u8001\u5abd
p3813
I3
sV\u51cf\u4e0d\u589e
p3814
I12
sV\u62ff
I12
sV\u6768\u68ee
p3815
I6
sV\u571f
I3
sV\u8d22\u62a5
p3816
I6
sV\u8001\u5a46
p3817
I9
sV\u5b9d\u8d1d
p3818
I3
sV\u6380
I3
sV\u5df4\u5c55
p3819
I3
sV\u5c3d\u91cf\u907f\u514d
p3820
I3
sV\u4e8c
I12
sV\u6807\u8bc6
p3821
I3
sV\u5938\u5938
p3822
I3
sV\u7f13\u6162
p3823
I3
sV\u533b\u5b66
p3824
I3
sV\u5149\u660e
p3825
I3
sV\u5b9a
I3
sV\u5bf9\u51b3
p3826
I3
sV\u4e5d\u5e74
p3827
I3
sV\u56fd\u52a1\u9662
p3828
I3
sV\u4eca\u5929\u4e0b\u5348
p3829
I6
sV\u5316\u5b66
p3830
I3
sV\u7ba1\u7406
p3831
I15
sV\u60a8
I15
sV\u5409\u7c73
p3832
I3
sV\u673a\u9047
p3833
I3
sV\u56de\u5bb6
p3834
I15
sV\u5531
I6
sV\u83b7\u53d6
p3835
I3
sV\u75b2\u5026
p3836
I3
sV\u521b\u9020
p3837
I3
sV\u8d28\u91cf
p3838
I6
sV\u5c81\u65f6
p3839
I6
sV\u53ea\u8981
p3840
I15
sV\u5e7f\u9614
p3841
I3
sV\u5e38\u9a7b
p3842
I3
sV\u9003\u907f
p3843
I3
sV\u4f1a\u4e0a
p3844
I3
sV\u4e0d\u538c\u5176\u70e6
p3845
I3
sV\u5149
I6
sV\u54ea\u4ef6
p3846
I3
sV\u5934\u6655
p3847
I3
sV\u4f4d
I3
sV\u58eb\u6c14
p3848
I3
sV\u6551\u707e
p3849
I15
sV\u6551
I3
sV\u6c38\u9a7b
p3850
I3
sV\u65e0\u6570
p3851
I6
sV\u53ef\u89c1
p3852
I3
sV5.30
p3853
I3
sV\u907f\u9669
p3854
I3
sV\u4e0d\u4e86
p3855
I9
sV\u8001\u5a18
p3856
I12
sV\u6f5c\u8d28
p3857
I3
sV\u4f73\u7247
p3858
I3
sV\u5e72\u51c0\u5229\u7d22
p3859
I3
sV\u8bc9\u8bf8
p3860
I6
sV\u8863
I3
sV\u7eff\u83dc
p3861
I3
sV\u7406\u5de5\u5927\u5b66
p3862
I3
sVGood
p3863
I3
sV\u7ae5\u978b
p3864
I3
sV\u65f6\u8282
p3865
I3
sV\u7cfb\u7edf
p3866
I3
sV\u5fae\u535a
p3867
I9
sV\u4eba\u4f53
p3868
I3
sV\u82b1\u7c89
p3869
I3
sV\u4fdd\u62a4
p3870
I6
sV\u574f\u8bdd
p3871
I3
sV\u70e6\u5fc3
p3872
I3
sV\u4e60\u4fd7
p3873
I3
sV\u4e00\u76f4
p3874
I9
sV\u53d1\u89c9
p3875
I3
sV\u4e8b\u4e1a
p3876
I6
sV\u8bfa
I6
sV\u5938\u5956
p3877
I3
sV\u53ea\u89c1
p3878
I3
sV\u8fd9\u5bb6
p3879
I3
sV\u5c81
I15
sV\u5f00\u6000
p3880
I3
sV\u5e02
I3
sV\u51b3\u975e
p3881
I3
sV\u7559\u7ed9
p3882
I3
sV\u533a\u522b
p3883
I6
sV\u6bdb\u6bdb
p3884
I3
sV\u65e9\u8870
p3885
I3
sV\u4e00\u5708
p3886
I12
sV\u4e2d\u5348
p3887
I3
sV\u9ad8\u9f84
p3888
I3
sV\u559c\u60a6
p3889
I6
sV\u5f97
I60
sV\u671f\u5f85
p3890
I15
sV\u5171\u540c
p3891
I3
sV\u539f
I3
sV\u6ca1
I51
sV\u4e22
I6
sV\u5929\u771f
p3892
I3
sV\u4eae\u70b9
p3893
I3
sV\u767b\u5c9b
p3894
I3
sV\u955c\u67b6
p3895
I3
sV\u5e76\u80a9\u4f5c\u6218
p3896
I3
sV\u95e8\u7a97
p3897
I3
sV\u5482\u5634
p3898
I3
sV\u5065\u5eb7
p3899
I3
sV\u6536\u62fe
p3900
I9
sV\u63a5\u529b
p3901
I6
sV\u4eba\u529b
p3902
I3
sV\u4e00\u573a
p3903
I6
sVSexy
p3904
I3
sV\u4e2d\u4e1c\u90e8
p3905
I3
sV\u5954\u8d74
p3906
I6
sV\u76f8\u6bd4
p3907
I3
sV>
I9
sV\u65e5\u672c
p3908
I18
sV\u589e\u591a
p3909
I3
sV\u4f5b\u8bde
p3910
I3
sV\u97e7\u52b2
p3911
I3
sV\u59da\u660e
p3912
I6
sV\u5148
I18
sV\u53cd\u9a73
p3913
I3
sV\u4ecd
I12
sV\u7eff\u8272
p3914
I3
sV\u6bcf
I12
sV\u953b\u70bc
p3915
I6
sV\u59b9\u59b9
p3916
I9
sV\u6784\u67b6
p3917
I3
sV\u6709\u4e8b
p3918
I3
sV\u770b\u5230
p3919
I48
sV\u4fdd\u6301
p3920
I6
sV\u4e00\u5757
p3921
I6
sV\u611f\u89c9
p3922
I6
sVWorld
p3923
I3
sV\u8f66\u95e8
p3924
I3
sV\u738b\u5bb6\u536b
p3925
I3
sV\u75db
I6
sVisquare
p3926
I3
sV\u8d8b\u52bf
p3927
I3
sV\u5f20
I12
sV\u963f\u82b1
p3928
I3
sV\u540d\u4eba
p3929
I3
sV\u4e2d\u79cb\u8282
p3930
I3
sV\u5929\u575b
p3931
I3
sV\u6709\u4eba
p3932
I18
sV\u77ed\u4fe1
p3933
I15
sV\u601d\u60f3
p3934
I6
sV\u9662\u91cc
p3935
I6
sVAni
p3936
I6
sV\u4ecb\u7ecd
p3937
I3
sV\u96be\u53d7
p3938
I3
sVwill
p3939
I3
sV\u5b9e\u73b0
p3940
I9
sV\u667a\u5b9e
p3941
I3
sV\u6492
I3
sV\u5374
I27
sV\u6d0b\u6c14
p3942
I6
sV\u751f\u65e5
p3943
I6
sV\u973e
I6
sV\u4e2d\u533b
p3944
I3
sV~
I27
sV\u5343\u4e07\u522b
p3945
I3
sV\u51b3\u7b56\u8005
p3946
I3
sV\u97e9\u56fd
p3947
I6
sV\u8d22\u5b63
p3948
I12
sV\u9009
I3
sV\u7ec4\u7ec7
p3949
I6
sV\u6d0b
I3
sV\u53ef\u7231
p3950
I9
sV\u4e0d
I228
sV\u7167\u76f8
p3951
I6
sV\u6c57
I3
sV\u5347\u5230
p3952
I3
sV\u65f6\u95f4
p3953
I33
sV\u526f
I6
sV\u5403\u665a\u996d
p3954
I3
sV\u8f66\u7528
p3955
I3
sV\u7a7a\u6c14\u8d28\u91cf
p3956
I3
sVYou
p3957
I3
sV\u5a9a
I3
sV\u5927\u962a\u5e02
p3958
I3
sV\u996d\u5c40
p3959
I15
sV\u5965\u65af\u5361
p3960
I3
sV\u8d70\u51fa
p3961
I3
sV\u7406\u5934
p3962
I3
sV\u8ba4
I3
sV)
I72
sV\u4e0d\u884c
p3963
I9
sV\u6559\u79d1\u4e66
p3964
I3
sV\u91ca\u8fe6\u725f\u5c3c
p3965
I3
sV\u7c89\u5ae9
p3966
I6
sV\u6539\u8fdb
p3967
I3
sV\u6708\u4eae
p3968
I3
sV\u7b2c\u4e00\u573a
p3969
I6
sV\u65fa\u76db
p3970
I12
sV\u6839
I3
sV\u600e\u4e48\u529e
p3971
I9
sVMBTI
p3972
I15
sV\u4fc4\u7f57\u65af
p3973
I3
sV\U0001f61b
I9
sV\u5341\u5e74
p3974
I6
sV\u8d85\u795e
p3975
I3
sV\u767b\u5c71
p3976
I3
sVball
p3977
I3
sV\u7edd\u5883
p3978
I3
sV\u4eba\u7269
p3979
I3
sV\u5747
I3
sV\u67d0\u4eba
p3980
I6
sV\u6216\u6709
p3981
I3
sV\u8e0f\u5b9e
p3982
I3
sV\u6c6a\u5c0f\u83f2
p3983
I3
sVR9
p3984
I3
sV\u6b4c\u821e
p3985
I3
sV\u5fc3\u6ee1\u610f\u8db3
p3986
I3
sV\u5b9e\u9a8c
p3987
I3
sV\u806a\u660e\u7edd\u9876
p3988
I3
sV\u5947
I3
sV\u5168\u4fe1
p3989
I3
sV\u5e26\u4e0a
p3990
I3
sV\u63a5\u524d
p3991
I3
sV\u76f4\u723d
p3992
I3
sVoff
p3993
I3
sV\u6728\u74dc
p3994
I3
sVi
I3
sV\u53ef\u4e0d\u662f
p3995
I6
sV\u74a7
I3
sVwell
p3996
I3
sV\u8ddd\u79bb
p3997
I6
sV\u9897\u7c92\u7269
p3998
I3
sV\u9003\u79bb
p3999
I3
sV\u5019\u673a
p4000
I3
sV\u5173
I3
sV\u6709\u4e2a
p4001
I6
sV\u5c0f\u5c9b
p4002
I6
sV\u60f3\u95ee
p4003
I3
sV\u6062\u590d
p4004
I3
sV\u505a\u8d77
p4005
I3
sV\u867d
I6
sV2012.2.22
p4006
I3
sViPhone
p4007
I3
sV\u8868\u793a
p4008
I12
sV\u5168\u573a
p4009
I3
sV\u7ffb\u5531
p4010
I3
sV\u9519\u540d
p4011
I3
sV\u8282\u7701
p4012
I3
sV\u4e58\u540e
p4013
I3
sV\u592a\u68d2\u4e86
p4014
I6
sV\u827e\u67f1
p4015
I3
sV\u4e8b
I33
sVhalf
p4016
I3
sV\u591c\u665a
p4017
I3
sV\u81ea\u7531
p4018
I3
sV\u4e24\u6761
p4019
I3
sV\u79bb\u522b
p4020
I6
sV\u6293
I9
sV\u6512
I6
sV\u56de\u590d
p4021
I9
sV\u4e58
I6
sV\u5c24\u5176
p4022
I3
sV\u534e\u5c71
p4023
I3
sV\u591a
I72
sV\u559d
I15
sVto
p4024
I6
sV\u665a\u5b89
p4025
I3
sV\u771f\u7d2f
p4026
I3
sV\u6709\u52a9\u4e8e
p4027
I3
sV\u5565\u75c5
p4028
I3
sV\u6089\u6570
p4029
I3
sV\u70b9\u71c3
p4030
I3
sVNND
p4031
I6
sV\u56de\u5934
p4032
I3
sV\u8d5b\u540e
p4033
I3
sV\u7a97\u6237
p4034
I3
sV\u7262\u5e95
p4035
I3
sV\u5f00\u82b1
p4036
I3
sV\u65e0\u7ebf\u8033\u673a
p4037
I3
sV\u6a21\u677f
p4038
I6
sV\u7cbe\u4e8e
p4039
I3
sV\u94a5\u5319
p4040
I3
sV\u53d8\u73b0
p4041
I3
sV\u6625\u8272
p4042
I3
sVmatch
p4043
I3
sV\u9047\u5230
p4044
I3
sV\u4e00\u5757\u513f
p4045
I3
sV\u6839\u672c
p4046
I6
sV\u54c7
I3
sVgovernment
p4047
I3
sV\u5c81\u6708
p4048
I3
sV\u4ecb
I3
sV\u8e39\u51fa\u53bb
p4049
I3
sV\u4e0d\u8ba9
p4050
I3
sV\u5730\u57df
p4051
I3
sV\u5c0a\u91cd
p4052
I6
sV\u57ce\u9547\u5316
p4053
I6
sVT
I9
sV\u773c\u524d
p4054
I3
sVVilla
p4055
I3
sV\u6069\u5ba0
p4056
I3
sV\u98ce\u66b4
p4057
I3
sV\u545c
I12
sV\u4fe1
I6
sV.9.1
p4058
I3
sV\u8d70\u5230
p4059
I6
sV\u653f\u5e9c
p4060
I24
sV\u9a6c
I12
sV\u540c\u6837
p4061
I3
sV\u7559\u9762\u5b50
p4062
I3
sV\u63a8\u6746
p4063
I3
sV\u4e00\u5468
p4064
I6
sV\u5e73\u65f6
p4065
I6
sV\u5fc3\u5230\u4e1a
p4066
I3
sV\u59d4\u5458\u4f1a
p4067
I3
sV\u51b7\u7b11
p4068
I3
sVjames
p4069
I3
sV\u987a\u5e94
p4070
I3
sV\u9ad8\u5cf0
p4071
I6
sV\u4f24\u6210
p4072
I3
sV\u9694\u58c1
p4073
I3
sV\uff01
I1368
sV\u5927\u6d77
p4074
I3
sV\u5a03
I3
sV\u8fd9\u79cd
p4075
I6
sV\u4e4b\u6240\u4ee5
p4076
I9
sV\u6e90\u5934
p4077
I3
sV\u52a0\u5165
p4078
I3
sVtwitter
p4079
I6
sV\u529f\u6210\u540d\u5c31
p4080
I3
sV\u821e\u8e48
p4081
I3
sV\u751f\u660e
p4082
I3
sV\u5e7c\u7ae5
p4083
I3
sV\u5730\u9707
p4084
I24
sV\u98a0\u8986\u6027
p4085
I3
sVhome
p4086
I3
sV\u8bed\u901f
p4087
I3
sV\u9001\u7cae
p4088
I3
sV\u53d8\u5316
p4089
I3
sV\u5373\u5c06
p4090
I6
sV\u501f
I6
sV\u660e\u660e
p4091
I3
sV\u6700\u4f73
p4092
I3
sV\u884c\u674e
p4093
I12
sV\u53cb\u8c0a
p4094
I3
sV\u6297\u538b
p4095
I3
sV\u6587\u827a
p4096
I3
sV\uff1c
I3
sV\u966a\u540c
p4097
I3
sV\u76f8\u6bd4\u4e4b\u4e0b
p4098
I3
sV\u5fc3\u7075\u624b\u5de7
p4099
I3
sV\u4e13
I3
sV\u660e\u661f
p4100
I6
sV\u6ca1\u7f18
p4101
I3
sV\u89ba
I3
sV\u516d\u70b9
p4102
I3
sV\u516c\u53f8
p4103
I33
sV\u5148\u6765
p4104
I3
sV\u5341\u51e0\u4e2a
p4105
I3
sV\u4eca\u751f
p4106
I3
sV\u52a0\u7126
p4107
I3
sV\u5149\u8bf4\u4e0d\u7ec3
p4108
I3
sV\u6218\u7565\u601d\u7ef4
p4109
I6
sV\u4e4b
I33
sV\u4e00\u5f20
p4110
I3
sV\u4e00\u65cf
p4111
I3
sV\u7eb7\u7eb7
p4112
I3
sV\u6253
I36
sV\u71a8\u8d34
p4113
I3
sV\u70b9\u513f
p4114
I6
sV\u56db\u5904
p4115
I3
sV\u9ad8
I18
sV\u89aa\u7bc0
p4116
I3
sV\u5bfc\u822a
p4117
I9
sV\u6b63\u5411
p4118
I9
sV\u4f84\u5b50
p4119
I3
sV\u7237\u7237
p4120
I3
sV\u4ff1\u4f73
p4121
I3
sV\u5404\u81ea
p4122
I3
sV\u6363\u788e
p4123
I3
sV\u767b\u5f55
p4124
I3
sV\u4ece\u5c0f
p4125
I6
sV\u62e8
I6
sV\u5e6b
I3
sV\u81ea
I3
sV\u8c03\u5ea6
p4126
I3
sV\u82b1\u513f
p4127
I3
sV\u5c4b\u91cc
p4128
I3
sV\u56de\u5230
p4129
I6
sV\u6ca1\u5f53
p4130
I3
sV\u95f2
I6
sV\u4e00\u74f6
p4131
I3
sV\u968f\u7f18
p4132
I3
sV\u4e0a\u6765
p4133
I3
sV\u60c5\u8ff7
p4134
I3
sV\u5de6\u987e\u53f3\u76fc
p4135
I3
sV\u5f00
I30
sV\u5b83
I15
sV\u6e05\u98ce
p4136
I3
sV\u5904
I6
sV\u9756\u5b87
p4137
I3
sV\u4e94\u767e\u91cc
p4138
I3
sV\u5904\u5904
p4139
I3
sV\u300a
I81
sV\u6563\u6b65
p4140
I3
sV\u5f53\u5934
p4141
I3
sV\u5c0f\u9e7f
p4142
I3
sV\u5f53\u5929
p4143
I3
sV\u5982
I9
sV\u6b64\u751f
p4144
I3
sV\u7279\u5730
p4145
I3
sV\u5582
I3
sV\u627f\u8ba4
p4146
I3
sV\u5feb\u901f
p4147
I9
sV\u516c\u725b
p4148
I15
sV\u620f\u5267\u8282
p4149
I3
sV\u8c22
I3
sV\u6709\u70b9\u50cf
p4150
I3
sV\u53e6\u5916
p4151
I6
sV\u80e1\u5b50
p4152
I3
sVGateway
p4153
I3
sV\u6768\u6811\u6797
p4154
I3
sV\u5730
I60
sV\u800c\u4e14
p4155
I6
sVinner
p4156
I3
sV\u4e36
I3
sV\u901f\u5ea6
p4157
I6
sV\u68f1\u89d2
p4158
I3
sV\u82cf\u9192
p4159
I3
sV\u8d39\u7528
p4160
I12
sV\u8fc5\u901f
p4161
I12
sV\u5c42
I3
sV\u7c91
I6
sV\u8361\u6da4
p4162
I3
sV\u4e2a\u4eba
p4163
I6
sV\u8001\u9986
p4164
I3
sV\u9ebb\u7169
p4165
I3
sV\u7eaf\u6d01
p4166
I3
sV\u4eba\u6c11\u4ee3\u8868\u5927\u4f1a
p4167
I3
sV\u70b9\u70b9
p4168
I3
sV\u90ac\u8d3a\u5168
p4169
I3
sV\u8fd0\u8425
p4170
I12
sV\u7ad9
I18
sV\u51bb\u5f97
p4171
I3
sV\u5171\u6e21\u96be\u5173
p4172
I3
sV\u4e58\u98ce\u7834\u6d6a
p4173
I3
sV\u59d0\u662f
p4174
I3
sV\u7b11\u8bdd
p4175
I3
sV\u5982\u6b64
p4176
I6
sV\u4f60
I348
sV\u7cbe\u8fdb
p4177
I15
sV\u56fa\u6709
p4178
I3
sV\u9a8c\u8bc1
p4179
I3
sV\u5feb
I21
sVj
I3
sV\u6b64\u6642
p4180
I3
sV\u5c0f\u9e1f
p4181
I12
sV\u9192
I3
sV\u6df7
I6
sV\u4eba\u6c11\u65e5\u62a5
p4182
I6
sV\u6ca1\u7ed9
p4183
I3
sV\u59d1\u5976\u5976
p4184
I3
sV\u6b47\u9a6c
p4185
I3
sV\u6ca1\u4e8b
p4186
I3
sV\u5904\u5973
p4187
I3
sV\u5947\u8469
p4188
I3
sV\u627e
I36
sV\u6b64\u65f6\u6b64\u523b
p4189
I3
sV\u4e00\u65e9
p4190
I3
sV\u6fc0\u60c5
p4191
I6
sV\u4ed6\u4eec
p4192
I27
sV\u79d1\u5b66\u5bb6
p4193
I6
sVyear
p4194
I3
sV16.
p4195
I3
sV\u79ef\u6781
p4196
I18
sV\u54b1
I9
sV\u76d1\u7ba1
p4197
I3
sV\u6642
I3
sV\u6015
I18
sV\u5730\u5740
p4198
I3
sV\u57f9\u8bad\u5e08
p4199
I3
sV\u51fa\u58f0
p4200
I6
sV\u559c
I3
sV\u8650\u5fc3
p4201
I6
sV\u529e
I6
sVNishimoto
p4202
I3
sV\u5929\u4f7f
p4203
I3
sV\u5730\u4e0b\u6c34
p4204
I3
sVNOW2001
p4205
I1
sV\u591a\u6b65
p4206
I3
sV\u516b\u5929
p4207
I6
sV\u65e0\u58f0
p4208
I3
sV40
p4209
I12
sV\u62db\u547c
p4210
I3
sV4.
p4211
I9
sV\u7814\u7a76
p4212
I3
sV\u6bdb\u75c5
p4213
I3
sVother
p4214
I3
sV\u7edd\u4ee3
p4215
I3
sV\u8eab\u4e0a
p4216
I3
sV\u86d9\u8df3
p4217
I3
sV\u5c45\u7136
p4218
I21
sV\u843d
I3
sV\u613f
I3
sV\u5148\u662f
p4219
I3
sV\u7e41
I3
sV\u6b21
I78
sV\u6253\u6270
p4220
I3
sV\u8d77
I6
sV\u9547
I3
sV\u96c6
I3
sV\u53c8
I90
sV\u8bba\u575b
p4221
I3
sV\u4e92\u76f8
p4222
I3
sV\u8dcc
I3
sV\u6851\u62ff\u5929
p4223
I3
sV\u6625\u68a6
p4224
I3
sV\u5606
I3
sV\u67d0
I9
sV\u91cd\u5e86
p4225
I3
sV\u7acb\u5728
p4226
I3
sV\u9762\u5e26\u7b11\u5bb9
p4227
I3
sV\u62b1\u6028
p4228
I3
sV\u5c5e\u72d7
p4229
I3
sV\u53d6\u51b3\u4e8e
p4230
I3
sV\u9664
I6
sV\u773c\u6cea
p4231
I3
sV\u8d23\u4efb
p4232
I3
sV\u6b63
I15
sV\u6625\u57ce
p4233
I3
sV\u683c\u5f0f\u5316
p4234
I3
sV\u6027
I3
sV\u8001\u5927
p4235
I6
sV\u539f\u5c01\u4e0d\u52a8
p4236
I3
sV\u8001\u5929
p4237
I3
sV\u662f\u5426
p4238
I3
sV\u9e21\u86cb
p4239
I3
sV\u6c14\u6eb6\u80f6
p4240
I3
sV\u4e2d\u836f\u5e97
p4241
I3
sV\u591a\u6b21
p4242
I3
sV\u7b2c\u4e09
p4243
I15
sV\u540c\u52c9
p4244
I3
sV\u73af\u7ed5
p4245
I3
sVCEO
p4246
I6
sV\u5373
I6
sV\u52b3\u52a8
p4247
I3
sV\u67d4\u817b
p4248
I3
sV\u8001\u5934
p4249
I3
sV\u6d77
I3
sV\u4e3a\u4e86
p4250
I9
sV\u8428\u5a46\u8bc3
p4251
I3
sV\u6218\u7ebf
p4252
I3
sV\u5feb\u90fd
p4253
I3
sV\u773c\u5149
p4254
I3
s.