(dp1
V\u4eba\u6587\u835f\u8403
p2
I2
sV\u575a\u5b88
p3
I2
sV\u65af\u8482\u592b
p4
I2
sV\u897f\u65b9
p5
I6
sV\u5305\u88c5
p6
I2
sVPizzaHut
p7
I20
sV\u7b2c\u4e8c
p8
I2
sV\u8fd8\u8981
p9
I16
sV\u6362\u53e5\u8bdd\u8bf4
p10
I2
sVall
p11
I2
sV\u540d\u53eb
p12
I2
sV\u670d\u9970\u5e97
p13
I2
sV\u7b2c\u4e94
p14
I4
sVit
p15
I2
sV\u4e3a\u4e3b
p16
I2
sV\u8ddf\u8fdb
p17
I2
sV\u96c6\u8bad\u8425
p18
I8
sVB2C
p19
I4
sVB2B
p20
I10
sV\u53d1\u552e
p21
I2
sV\u8d60\u9001
p22
I2
sV\u597d\u6218
p23
I2
sV\u53d1\u751f
p24
I2
sV\u6709\u7684
p25
I6
sV\u94f6\u5b50
p26
I2
sV\u6b32
I2
sV\u4e70\u8f66
p27
I22
sV\u66f4\u5feb
p28
I26
sV\u51fa\u6765
p29
I10
sV\u521d\u4e2d
p30
I2
sV\u5965\u8fd0
p31
I2
sV\u96ea\u4e2d\u9001\u70ad
p32
I2
sV\u5206\u4e9b
p33
I2
sV\u5fc5\u505a\u4e8e\u6613
p34
I2
sV\u522b\u5885
p35
I2
sV\u597d\u4e86\u5417
p36
I2
sV\u6c11\u56fd
p37
I2
sV\u54c1\u724c
p38
I46
sV\u6765\u55bd
p39
I2
sV\u9ad8\u62db
p40
I4
sV\u4f9b\u6c42\u4fe1\u606f
p41
I2
sVevery
p42
I2
sV\u4fa7\u9762
p43
I2
sV\u9510\u6b65
p44
I20
sV\u4e2d\u4e1c
p45
I2
sV\u6587\u7269\u4fdd\u62a4
p46
I4
sV\u8bdd
I4
sV\u8d5e
I4
sV\u975e\u5e38\u7b80\u5355
p47
I20
sV\u4f1a\u52a8
p48
I2
sV\u9664
I2
sV\u521b\u4e1a\u8005
p49
I6
sV\u63a5\u8fc7
p50
I2
sV\u4e22\u6389
p51
I4
sV\u53cd\u4e4b
p52
I2
sV\u7ecf\u8fc7
p53
I2
sV\u8f93\u6389
p54
I20
sV\u76c8\u5229
p55
I6
sV\u7ebf\u4e0b
p56
I12
sV\u5176
I6
sV\u67d0\u79cd
p57
I4
sV\u56de\u6765
p58
I2
sV\u4eb2\u81ea
p59
I2
sV\u4e14
I2
sV\u4e1a\u754c
p60
I2
sV\u8110\u6a59
p61
I2
sV\u665a\u4e0a
p62
I4
sV\u6362\u6765
p63
I2
sV\u661f\u671f\u4e8c
p64
I2
sV\u300b
I78
sV\u7b2c\u4e09
p65
I2
sV\u5e38\u89c4
p66
I2
sV\u6d41\u5149\u6ea2\u5f69
p67
I4
sV\u53e3\u5473
p68
I2
sV\u610f\u5473\u7740
p69
I4
sV\u773c\u4e2d
p70
I4
sV\u4f9d\u504e
p71
I2
sV\u7f8e\u5fb7
p72
I2
sV\u5168\u529b
p73
I20
sV\u59d0\u59d0
p74
I2
sV\u4e24\u79cd
p75
I2
sV\u770b\u8fc7
p76
I2
sV\u4e3a\u4e86
p77
I70
sV\u7f8e\u91d1
p78
I6
sV\u6210\u529f
p79
I62
sV\u662f
I554
sV\u540d\u5355
p80
I10
sV\u89c1\u6210\u6548
p81
I2
sV\u8bb2
I4
sV\u4eba\u4f1a
p82
I2
sV\u7f8e\u4e0d\u80dc\u6536
p83
I2
sV\u60c5\u51b5
p84
I10
sV\u4e50\u56ed
p85
I2
sV\u6c99\u7279\u963f\u62c9\u4f2f
p86
I2
sV\u6444\u5f71
p87
I12
sV\u89c1\u8bc1
p88
I12
sV\u9ad8\u624b
p89
I2
sV\u8d77\u6b65
p90
I4
sV\u5728\u751f\u6d3b\u4e2d
p91
I2
sV\u901a\u884c\u8bc1
p92
I2
sV\u660e\u786e
p93
I4
sV\u89c1\u8bc6
p94
I4
sV\u5fc3\u65f7\u795e\u6021
p95
I2
sV\u6237\u5916\u6d3b\u52a8
p96
I20
sV\u5728\u5bb6
p97
I2
sV\u4e0d\u7528
p98
I2
sV\u6e05\u671d
p99
I2
sV\u7834\u574f
p100
I4
sV\u7d20\u6709
p101
I2
sV\u6559
I20
sV100
p102
I26
sV\u90ed\u854a
p103
I6
sV\u4e5f
I184
sV\u6536\u96c6
p104
I8
sV\u6240\u8c13
p105
I18
sV\u901f\u5ea6\u6162
p106
I2
sV\u5546\u52a1
p107
I12
sV\u9881\u5956\u4eea\u5f0f
p108
I2
sV\u70e7\u6389
p109
I2
sV\u4ea7\u54c1
p110
I122
sVTheWashingtonPost
p111
I2
sV\u4e0d\u9519
p112
I14
sV\u5e7f
I4
sV\u53f6\u5361
p113
I2
sV\u5f80\u5f80
p114
I20
sV\u91cc\u9762
p115
I8
sV\u9752\u5c71
p116
I2
sV\u4e0a
I102
sV\u6700\u540e
p117
I10
sV\u4f7f\u52b2
p118
I2
sV\u62ff\u5230
p119
I22
sV\u4eba\u4eba
p120
I6
sV\u5174\u76db
p121
I2
sV\u5bbd\u88d5
p122
I2
sV\u8054\u76df
p123
I50
sV\u4e00\u6b21
p124
I28
sV\u5c0f\u65f6\u5019
p125
I2
sV\u8981\u5b66
p126
I12
sV\u4ea7\u751f
p127
I2
sV\u4e08\u592b
p128
I2
sV\u96be\u4e8b
p129
I4
sV\u8868\u660e
p130
I2
sV\u90bb\u5c45
p131
I2
sV\u5929\u654c
p132
I2
sV\u8d63\u6c5f
p133
I6
sV\u6559\u8bf2
p134
I2
sV\u4f9b\u5e94\u5546
p135
I2
sV\u56f4\u6ee1
p136
I2
sV\u4eba\u4eec
p137
I16
sV\u6f06\u9ed1
p138
I2
sV\u906d\u9047
p139
I4
sV\u8d26\u6237
p140
I4
sV\u4e54\u6cbb
p141
I2
sV\u65b9\u5411\u6027
p142
I2
sV\u5e7f\u544a\u8bed
p143
I2
sV\u4ece\u6765
p144
I2
sV\u5fae\u76d8
p145
I2
sV\u6848\u4f8b
p146
I4
sV\u5feb\u4e50
p147
I2
sV\u8ba1\u65f6\u5668
p148
I2
sV\u524d\u53f0
p149
I4
sV\u4ee5\u4e3a
p150
I2
sV\u521b\u9020\u8d22\u5bcc
p151
I2
sV\u5168\u81ea\u52a8
p152
I6
sV\u5947\u4f73
p153
I2
sV1992
p154
I2
sV\u6559\u8bad
p155
I2
sV\u770b\u6e05
p156
I2
sV\u5ba1\u89c6
p157
I2
sV1999
p158
I22
sV1998
p159
I44
sV\u5e7f\u544a\u8bcd
p160
I2
sV\u4e07\u5e73\u65b9\u516c\u91cc
p161
I2
sV\u4e3b\u8981
p162
I2
sV\u8d85\u5973
p163
I8
sV\u505a\u51fa
p164
I10
sV\u4fdd\u8bc1
p165
I2
sV\u8d81\u673a
p166
I2
sV\u5403\u773c\u524d\u4e8f
p167
I2
sV\u7cbe\u51c6
p168
I2
sV\u8001
I4
sV\u6b27\u6d32
p169
I4
sV@
I4
sV\u53d1\u8fbe
p170
I2
sV\u767e\u7c73
p171
I2
sV\u4f18\u96c5
p172
I2
sV\u7ffb\u8eab
p173
I2
sV\u554a\u54c8
p174
I2
sV\u517b\u732a
p175
I2
sV\u60f3\u8981
p176
I12
sV\u81f3\u5173\u91cd\u8981
p177
I4
sV\u8bd5\u8fd0\u8425
p178
I2
sVLiz
p179
I2
sV\u60ca\u547c
p180
I2
sV\u540d\u7247
p181
I2
sV\u6817\u56ed
p182
I4
sV\u7531\u65f6
p183
I2
sV\u53f0\u6e7e
p184
I2
sV\u63ac
I2
sV\u7b2c\u4e00\u6b21
p185
I2
sV\u6d41\u6d6a\u6c49
p186
I4
sV\u4e00\u8bb0
p187
I2
sV\u5730\u7528
p188
I2
sV\u54c1\u724c\u5316
p189
I2
sV\u5c0a\u4e25
p190
I4
sV\u76ee\u4e0d\u8bc6\u4e01
p191
I2
sV\u6e05\u6670
p192
I2
sV\u7528\u5f97\u7740
p193
I2
sV\u5438\u5f15
p194
I30
sVA
I6
sV\u7279\u8272\u5c0f\u5403
p195
I2
sV\u9053\u5177
p196
I2
sV\u6bd4\u5229\u65f6
p197
I20
sV\u524d
I6
sV\u5f1f\u5b50
p198
I2
sVCNTV
p199
I2
sV\u7b80\u5355
p200
I146
sV\u53f0\u4e0a
p201
I22
sV\u53f0\u4e0b
p202
I20
sV\u9519\u8bef
p203
I4
sV\u4e0d\u540c
p204
I10
sV......
p205
I2
sV\u58a8\u5c14\u672c
p206
I4
sV\u5316\u662f
p207
I2
sV\u5c61\u6210
p208
I2
sV\u9760\u8fd1
p209
I2
sV\u901a\u5e38
p210
I4
sV\u725b\u7caa
p211
I2
sV\u5766\u514b
p212
I4
sV\u6e56\u6e7e
p213
I2
sV\u4e0d\u77e5
p214
I4
sV\u62b1\u61be\u7ec8\u8eab
p215
I2
sV\u867d\u7136
p216
I4
sV\u64c0\u9762\u6756
p217
I2
sV\u83b7\u8d60
p218
I2
sV\u4f9d\u4f9d
p219
I2
sV\u535a\u6587
p220
I6
sV\u518d
I62
sV\u82cd\u832b
p221
I2
sVAAAA
p222
I12
sV\u6316
I2
sV\u6c14\u6124
p223
I4
sV\u81ea\u5b66
p224
I2
sV\u90a3\u4e9b
p225
I14
sV\u5b8c\u5584
p226
I2
sV\u845b\u5170
p227
I2
sV\u624b\u6307
p228
I2
sV\u9047\u5230
p229
I6
sV\u8ba4\u8bc6
p230
I4
sV\u4e1c\u897f
p231
I36
sV\u83ca
I2
sV\u5728\u5b9e\u8df5\u4e2d
p232
I2
sV\u4ec7\u4eba
p233
I2
sV\u6a21\u5f0f
p234
I42
sV\u8fc8\u963f\u5bc6
p235
I2
sV\u5370\u8c61
p236
I4
sV\u4e00\u6837
p237
I12
sV\u660e\u786e\u6307\u51fa
p238
I2
sV\u540e\u6094
p239
I2
sV\u6240
I24
sV\u65c5
I2
sV\u6478\u7d22
p240
I8
sV\u4fdd\u7559
p241
I2
sV\u7d20\u8d28
p242
I4
sV\u5a31\u4e50\u8282\u76ee
p243
I2
sV\u9488\u5bf9
p244
I10
sV\u7b2c\u5341\u56db
p245
I2
sV\u624d\u80fd
p246
I8
sV\u67e5
I2
sV\u900f\u9732
p247
I2
sV\u8fd9\u672c
p248
I2
sV\u6548\u76ca
p249
I2
sV\u5973\u4eba
p250
I4
sV\u5a92\u4f53
p251
I4
sV\u4e00\u9519\u518d\u9519
p252
I4
sV\u6bd4\u5c14
p253
I4
sV\u5ba2\u6237\u540d\u5355
p254
I4
sVl
I2
sV\u5f88\u5927
p255
I14
sV\u9644\u8bbe
p256
I2
sV\u5b9e\u5730
p257
I2
sV\u963f\u8054\u914b
p258
I2
sV\u597d\u591a\u94b1
p259
I2
sVUnitedAirlines
p260
I20
sV\u7a81\u7136
p261
I2
sV\u4ee5\u53ca
p262
I8
sV\u660e\u4fe1\u7247
p263
I4
sV\u6545\u610f
p264
I2
sV\u6a59\u4e61
p265
I4
sV\u60ef\u4f8b
p266
I2
sV\u5f00\u9614
p267
I2
sV\u629b\u5728\u540e\u9762
p268
I2
sV\u6d41\u7a0b
p269
I6
sV\u8d8a
I6
sV\u6602\u8d35
p270
I2
sV\u6bcf\u6b21
p271
I4
sV\u7b11
I2
sV\u6536\u94b1
p272
I2
sV\u5e38\u5e38
p273
I6
sV\u56e0\u4e3a
p274
I34
sV\u96c4\u5fc3\u58ee\u5fd7
p275
I2
sV\u5bf9\u5934
p276
I2
sV\u77ed\u5740
p277
I2
sV\u6cd5\u5b9d
p278
I4
sV\u52a0
I4
sV\u9999\u6e2f
p279
I2
sV\u5e7f\u544a\u680f
p280
I2
sV\u6709\u5173
p281
I4
sV\u4e09\u811a\u732b
p282
I2
sV\u4ecb\u610f
p283
I2
sV\u663e\u5f97
p284
I4
sV\u6c34\u6e56
p285
I6
sV\u4f1a\u5458\u5236
p286
I4
sV\u548c\u8c10
p287
I2
sV\u5e78\u8fd0
p288
I10
sV\u7a81\u51fa
p289
I2
sV\u505a\u5230
p290
I14
sV\u8fd9\u65f6
p291
I6
sV\u5f00\u5fc3
p292
I8
sV\u61c2
I20
sVWord
p293
I2
sV\u62ff\u51fa
p294
I2
sV\u9ad8\u804c
p295
I2
sV\u8840\u53e3
p296
I2
sV\u5b50\u5f39
p297
I2
sV\u79c0\u7f8e
p298
I2
sV\u5f15\u5230
p299
I2
sV\u57ce
I2
sV\u53f8\u673a
p300
I4
sV\u5168\u90e8
p301
I4
sV\u4e4b\u4e00
p302
I44
sV\u5468\u56f4
p303
I4
sVCircuit
p304
I2
sV\u725b\u7f8a
p305
I2
sV\u5e38\u5e74
p306
I2
sV\u8fde
I26
sV\u5361
I4
sV\u6b8b\u75be\u4eba
p307
I2
sV\u4ece\u800c
p308
I4
sV\u5b9e\u65bd
p309
I4
sV\u90a3\u79cd
p310
I2
sV\u827a\u672f\u7167
p311
I2
sV\u5f31\u70b9
p312
I6
sV\u8feb\u4f7f
p313
I2
sV\u7406\u667a
p314
I2
sV\u5206\u7c7b
p315
I2
sV\u6ee1\u8db3
p316
I8
sV\u6570\u767e\u5e74
p317
I2
sV\u5f3a\u70c8\u5efa\u8bae
p318
I2
sVTacoBell
p319
I2
sV\u81ea\u89c9
p320
I2
sV\u9cdd\u9c7c
p321
I10
sV\u4f7f\u7528\u8005
p322
I2
sV\u4e0a\u5b66
p323
I20
sV\u5343\u5e74
p324
I2
sV\u597d
I56
sV\u62a5\u9053
p325
I4
sV\u9752\u5e74
p326
I2
sV\u4e0b\u9762
p327
I2
sV\u98ce\u6f47\u6f47
p328
I2
sV\u8349\u539f
p329
I2
sV\u70ed\u70b9
p330
I2
sV\u5f85\u9047
p331
I2
sVPerfectFitWeek
p332
I2
sV\u73cd\u8d35
p333
I4
sV\u53ef\u591a
p334
I2
sV\u5bc6\u96c6
p335
I2
sV\u6216
I34
sV\u5e2e
I10
sV\u849c
I2
sV\u7eb5\u89c2
p336
I2
sV\u5de7\u514b\u529b
p337
I60
sV\u7b2c\u4e00
p338
I12
sV\u89c2\u5ff5
p339
I4
sV\u6cd5\u56fd\u5df4\u9ece
p340
I2
sV\u597d\u611f
p341
I2
sV\u6279\u53d1\u5546
p342
I2
sV\u8d2d\u7269
p343
I6
sV\u7b2c\u4e8c\u5929
p344
I2
sV\u5927\u697c
p345
I2
sV\u529f\u592b
p346
I2
sV\u5356\u5bb6
p347
I2
sV\u6c88
I2
sVTravelSpecials
p348
I2
sV\u6811\u79cd
p349
I2
sV\u5c0f\u4e8b
p350
I2
sV\u5382\u5546
p351
I2
sVB
I2
sV\u63a2\u7d22
p352
I2
sV\u91d1\u8c79
p353
I12
sV\u6e56\u6cca
p354
I2
sV\u62ac
I2
sV\u61c2\u5f97
p355
I14
sV\u914d\u56fe
p356
I2
sV\u8ddf
I58
sV\u53e4
I6
sV\u4e0d\u7518\u793a\u5f31
p357
I22
sV\u5360
I2
sV\u8fc7\u6cf3
p358
I2
sV\u5927\u5bcc\u7fc1
p359
I20
sV\u673a\u9047
p360
I2
sV\u8bbe\u6cd5
p361
I22
sV\u5efa\u7b51
p362
I2
sV\u5df4\u83f2\u7279
p363
I4
sV\u65e5\u591c
p364
I2
sVWarren
p365
I2
sV\u5bd2\u9178
p366
I2
sV\u5341\u4e8c\u4e94
p367
I4
sV\u731b\u54ac
p368
I2
sV\u6751\u91cc
p369
I2
sV\u5e94
I2
sV\u989d\u5916
p370
I4
sV\u6c64\u53a8
p371
I20
sV\u4e09
I6
sV\u5927\u7ba1\u5bb6
p372
I4
sV\u500d
I4
sV\u5168
I4
sV\u7ebf\u8def
p373
I2
sV\u8d4c\u503a
p374
I4
sV\u5230\u5904
p375
I6
sV\u7fa4\u8d77
p376
I2
sV\u6ca1\u4e8b
p377
I2
sV\u4e60\u60ef\u4e8e
p378
I4
sV\u4e00\u6e05\u4e8c\u695a
p379
I4
sV\u5927
I78
sV\u610f\u8bc6
p380
I2
sV\u5b66\u4f1a
p381
I4
sV\u5ba2\u65cf
p382
I2
sV-
I158
sV\u5de6\u81c2
p383
I4
sV\u5149\u5f69\u593a\u76ee
p384
I2
sV\u53d8\u4e3a
p385
I2
sV\u4e1c\u5357\u897f\u5317
p386
I4
sV\u5173\u952e\u8bcd
p387
I2
sV\u63a8\u9500\u5458
p388
I14
sV\u8ffd\u9500
p389
I2
sV\u770b\u6cd5
p390
I2
sV\u5927\u610f
p391
I2
sV\u6a2a\u5e45
p392
I2
sV\u4f63\u91d1
p393
I2
sV\u4eba\u6c11
p394
I8
sVBank
p395
I20
sV\u8bf4
I70
sV\u5c1d\u8bd5
p396
I2
sV\u730e\u7269
p397
I2
sV\u70e4\u8089
p398
I2
sV\u91ce\u9e2d
p399
I2
sV\u552f\u6709
p400
I2
sV\u751f\u5b58
p401
I2
sV\u4e0d\u5e78
p402
I2
sV\u5ba2\u5bb6\u4eba
p403
I2
sV\u4e00\u89c8
p404
I2
sV\u91cc
I10
sV\u8bc6\u65f6\u52a1
p405
I2
sV\u7eaf\u719f
p406
I2
sV\u4ee3\u4e3a
p407
I2
sV\u5f53
I22
sV\u517b\u6210
p408
I2
sV\u5f88\u5c11
p409
I2
sV\u884c\u52a8
p410
I8
sV\u5357\u660c\u5927\u5b66
p411
I2
sV\u591a\u6570\u636e
p412
I4
sV\u4e13\u5356\u5e97
p413
I22
sV\u6c34\u5357
p414
I2
sV\u4f01\u4e1a
p415
I28
sV\u9020\u8bbf
p416
I2
sV.................
p417
I20
sV\u81ea\u53e4\u4ee5\u6765
p418
I2
sV\u96f6
I2
sV\u5e78\u4e8f
p419
I2
sV\u5c0a
I2
sV\u7adf\u7136
p420
I6
sV\u7231\u56fd
p421
I2
sVm
I2
sV\u5584\u89e3\u4eba\u610f
p422
I6
sV\u86ee
I4
sV\u54ea\u91cc
p423
I2
sV\u8fea\u62c9
p424
I2
sV\u8054\u5408
p425
I20
sV\u9165\u6cb9
p426
I2
sV\u63d0\u9192
p427
I2
sV\u5a92\u4ecb
p428
I2
sV\u518d\u6765
p429
I2
sV\u731b\u6da8
p430
I2
sV\u663e\u793a
p431
I4
sV\u72ec\u81c2
p432
I2
sV\u602a\u73b0\u8c61
p433
I2
sV\u4e00\u4e0b
p434
I16
sV\u6c34\u4e0a
p435
I2
sV\u7f51\u7edc\u5e73\u53f0
p436
I2
sV\u6280\u672f
p437
I12
sV\u6536\u5230
p438
I6
sV\u5468\u672b
p439
I4
sV\u8fc5\u901f
p440
I2
sV\uff12
I4
sV\u51e1\u662f
p441
I2
sV\u601d\u8003
p442
I6
sV\u72ee\u5b50
p443
I2
sV\u2018
I6
sV\u771f\u7684
p444
I22
sV\u90a3
I44
sV\u7f8e\u5473
p445
I2
sV\u7ea7
I6
sV]
I2
sV\u4e00\u4e2a
p446
I310
sV\u767e\u59d3
p447
I4
sV\u6700\u65b0
p448
I8
sV\u8bb8\u591a
p449
I6
sV\u5929\u4e0b
p450
I6
sV\u5bcc\u88d5
p451
I2
sV\u5176\u4ed6
p452
I8
sV\u624b\u673a\u53f7\u7801
p453
I2
sV\u4e0e\u4e16\u957f\u8f9e
p454
I2
sV\u4f9b\u9700\u53cc\u65b9
p455
I2
sV\u79d8\u5bc6
p456
I2
sV\u7f16\u8f91
p457
I2
sV\u5ba2\u6237
p458
I154
sV\u65e5\u5e38
p459
I4
sV15
p460
I6
sV\u5065\u5eb7
p461
I6
sV\u9501\u5b9a
p462
I20
sV\u4f18\u5316
p463
I4
sV\u62a2\u653b
p464
I20
sV\u7406\u60f3
p465
I8
sV\u62e5\u6709
p466
I6
sV\u5b81\u90fd
p467
I4
sV\u5408\u5e76
p468
I20
sV\u6df1\u4fe1
p469
I10
sV\u5348\u89c9
p470
I2
sV\u7b80\u76f4
p471
I2
sV\u793c\u54c1
p472
I22
sV\u5305\u7ed9
p473
I2
sV\u60f3\u8c61
p474
I4
sV\u6811\u6728\u56ed
p475
I2
sV\u89c2\u70b9
p476
I2
sV\u91cd\u505a
p477
I2
sV\u52c7\u6c14
p478
I2
sV\u9ad8\u660e
p479
I6
sV\u9662\u6821
p480
I2
sV\u4e07
I18
sV\u6cb9\u8f6e
p481
I2
sV\u5fc3\u7406
p482
I2
sV\u51e0\u5929
p483
I2
sV\u73b0\u5b9e
p484
I4
sV\u9547\u5b9a
p485
I2
sV\u90a3\u7fa4
p486
I20
sV\u5b66\u6821
p487
I2
sV\u4f9d\u8d56
p488
I4
sV\u60c5\u7eea
p489
I2
sVDMX
p490
I20
sV\u5c0f\u65f6
p491
I8
sV\u4fe1\u51fd
p492
I2
sV\u8ba4\u5f97
p493
I2
sV\u7565\u4f4e
p494
I4
sV\u5929
I4
sV\u98a8
I2
sV\u5341\u4e2a
p495
I2
sV\u70df\u5473
p496
I2
sV\u7b2c\u4e00\u671f
p497
I2
sV\u7b54\u6848
p498
I2
sV\u7f51\u4e0a
p499
I20
sV\u96be\u514d\u4f1a
p500
I4
sV\u4e94\u5e74
p501
I4
sV\u73b0\u4ee3\u4eba
p502
I2
sVC
I2
sV\u8d85\u8d8a
p503
I2
sV\u5f00\u59cb
p504
I54
sV\u6210\u529f\u4eba\u58eb
p505
I4
sV\u5de5\u7a0b\u5e08
p506
I2
sV\u5176\u4e2d
p507
I14
sV\u60f3\u6cd5
p508
I2
sV\u91ce
I2
sV\u5fae\u535a
p509
I8
sV\u6251\u4e0a\u53bb
p510
I2
sV\u7565
I2
sV\u8bb8\u591a\u79cd
p511
I2
sV\u6bcd\u72fc
p512
I2
sV\u7b97\u547d
p513
I2
sV\u5065\u5eb7\u957f\u5bff
p514
I2
sV\u54f2\u5b66\u5bb6
p515
I2
sV\u4e00\u4ee3
p516
I20
sV\u8d60\u54c1
p517
I6
sV\u601d\u60f3
p518
I4
sV\u5de6
I2
sV\u80fd
I42
sV\u6821\u53cb
p519
I2
sV\u611a\u8822
p520
I4
sV\u6c64\u54c1
p521
I20
sV\u8ba9
I122
sV\u4e00\u4ef6
p522
I4
sV\u7ec6\u5fae
p523
I2
sV\u75c5\u6bd2
p524
I8
sV\u76db\u51fa
p525
I2
sV\u65b9\u5411
p526
I2
sV\u7c7b
I2
sV1.
p527
I8
sVcom
p528
I2
sV\u5b66\u5458
p529
I6
sV\u7785
I2
sV\u8d35\u5ba2
p530
I2
sV\u662f\u4ece
p531
I10
sV\u592a
I20
sV\u8bbe\u7f6e
p532
I4
sV\u98de\u7011
p533
I4
sV\u540c\u6837
p534
I34
sV\u6709\u76ca
p535
I2
sV\u4ee4\u4eba
p536
I6
sV\u9e2d\u5b50
p537
I4
sV\u82f1\u6587
p538
I4
sV\u5e2e\u522b\u4eba
p539
I2
sV\u96c7\u4eba
p540
I2
sV\u51fa\u8272
p541
I6
sV2200
p542
I2
sV\u800c\u540e
p543
I2
sV\u5e26\u8fdb
p544
I2
sV\u672c
I2
sV.
I16
sV\u53d1\u9001
p545
I2
sV\u8ba2\u5355
p546
I2
sV\u7d22\u53d6
p547
I2
sV\u652f\u51fa
p548
I2
sV\u51fa\u79df\u8f66
p549
I2
sV\u6781\u5176
p550
I4
sV\u70b9
I34
sV\u62cd\u51fa
p551
I4
sV\u5b9e\u6218
p552
I14
sV\u82e5\u662f
p553
I2
sV\u673a\u5668
p554
I4
sVBankofamerica
p555
I2
sV\u7814\u7a76
p556
I10
sV\u8eab\u4e0a
p557
I2
sV\u6587\u7ae0
p558
I2
sVCD
p559
I2
sV\u59d3
I2
sV\u96c4\u8d77
p560
I2
sV\u5168\u9762
p561
I2
sV\u5d1b\u8d77
p562
I4
sV\u5e94\u8be5
p563
I18
sV\u6d77\u6e7e\u5730\u533a
p564
I4
sV\u62cd\u6444
p565
I2
sV\u5bb6\u55bb\u6237\u6653
p566
I2
sV\u5fe7
I2
sV\u6012\u4e0d\u53ef\u904f
p567
I2
sV\u5e86\u5178
p568
I20
sV\u5546\u573a
p569
I2
sV\u604d\u7136\u5927\u609f
p570
I4
sV\u4ea4\u5f80
p571
I2
sV\u6ca1\u6e38
p572
I2
sV\u4e0d\u53ef\u903e\u8d8a
p573
I2
sV\u6b3e
I2
sV\u5bff
I2
sV4488.44
p574
I2
sV\u4ee3\u8868
p575
I4
sV\u666e\u53ca\u7387
p576
I2
sV\u672c\u7701
p577
I2
sV\u4e00\u4f8b
p578
I2
sV\u5f62\u8c61
p579
I6
sV\u7fc5\u8180
p580
I4
sV\u7ade\u8d5b
p581
I2
sV\u53d6\u5f97
p582
I2
sV\u2019
I8
sV\u95ee
I6
sV\u4fe1\u5fc3\u500d\u589e
p583
I2
sV\u5fd9\u4e0d\u8fc7\u6765
p584
I2
sV\u7eaa\u7f19\u7956
p585
I2
sV\u5927\u7247
p586
I4
sV\u5b98\u7f51
p587
I4
sV\u914d\u9001
p588
I4
sV\u591a\u4e07
p589
I2
sV\u58f0
I2
sV\u5927\u592b
p590
I2
sV\u66f4\u5999
p591
I2
sV\u6d77\u4e0a
p592
I2
sV\u5b63\u65f6
p593
I2
sV\u8c31
I2
sV\u79d8\u5bc6\u6b66\u5668
p594
I2
sV\u8eab\u4ef7
p595
I20
sV\u8bbf\u95ee\u91cf
p596
I8
sV\u8fdb\u6765
p597
I6
sV\u4e00\u8fb9
p598
I4
sV\u56de\u62a5
p599
I2
sV\u8eab\u4efd
p600
I4
sV\u5fd7\u5b58\u9ad8\u8fdc
p601
I2
sV\u7b2c\u4e00\u4f4d
p602
I2
sV\u6ca1\u60f3\u5230
p603
I2
sV\u5728\u7ebf
p604
I24
sV\u524d\u9762
p605
I2
sV\u5bb6\u5ead\u5987\u5973
p606
I2
sV\u4ed8\u94b1
p607
I4
sV\u8fd8\u597d
p608
I2
sV\u76ee\u7684
p609
I2
sV\u540e\u6765
p610
I4
sV\u9519\u8fc7
p611
I10
sVAnswerPlus
p612
I2
sV\u81f3\u4eca
p613
I2
sV\u5484\u5484\u903c\u4eba
p614
I2
sV\u6ca1\u7528\u8fc7
p615
I2
sV\u8513\u5ef6
p616
I4
sV\u4e16\u5916\u6843\u6e90
p617
I2
sV\u6765\u6e90
p618
I2
sV\u8a89\u4e3a
p619
I2
sV\u8fdc
I2
sV\u7b2c\u5341\u516d
p620
I2
sV\u7b56\u7565
p621
I36
sV\u4fc4\u56fd
p622
I2
sVMind
p623
I2
sV\u95e8\u4e0a
p624
I2
sV\u4f18\u52bf
p625
I6
sV\u53d7\u5230
p626
I2
sV\u62fc\u640f
p627
I2
sV800
p628
I2
sV\u6297\u51fb
p629
I2
sV\u6307\u624b\u753b\u811a
p630
I2
sV\u8bfe\u6587
p631
I2
sV\u591c\u5e55
p632
I2
sV\u6b63\u786e
p633
I2
sV\u63a7\u5236
p634
I2
sV\u4e3b\u4efb
p635
I2
sV\u4e0d\u53ef
p636
I4
sV\u5bc6\u7801\u4fdd\u62a4
p637
I2
sV\u4e94\u661f\u7ea7
p638
I2
sV\u8bd5\u95ee
p639
I2
sV\u5e10
I2
sVJustForFeet
p640
I20
sV\u7b49\u4e8e
p641
I2
sV\u624b\u673a
p642
I4
sV\u4e9b
I4
sV\u5de8\u5927\u8d21\u732e
p643
I2
sV\u76ee\u524d
p644
I4
sV1775
p645
I2
sV\u8bfa\u57fa\u4e9a
p646
I2
sV\u610f\u4e49
p647
I20
sV\u7ed3\u679c
p648
I10
sV\u864e\u89c6\u7708\u7708
p649
I2
sV\u6f02\u4eae
p650
I2
sV\u5916\u5feb
p651
I2
sV\u62a5\u540d
p652
I6
sV\u80af
I2
sV\u6469\u5d16
p653
I2
sV\u4e2a\u4eba\u7535\u8111
p654
I2
sV\u770b\u4e66
p655
I6
sVGeneralMotor
p656
I20
sV\u5168\u7403
p657
I16
sV\u9ebb
I2
sV\u6218\u4e71
p658
I2
sV\u6c89\u5165
p659
I2
sV\u5bbe\u9986
p660
I2
sV\u8d76\u5feb
p661
I2
sV\u56fd\u67f1
p662
I2
sV\u4f46
I48
sV\u4e3b\u4eba
p663
I14
sV\u4e2d\u680f
p664
I2
sV\u7a0d\u5fae
p665
I2
sV\u7535\u8111
p666
I8
sV\u50cf
I6
sV\u8001\u5957\u8def
p667
I2
sV\u7ec6\u8282
p668
I4
sV\u7ebd\u7ea6
p669
I4
sV\u8d5a\u8fdb
p670
I4
sV\u4e2d\u6821
p671
I2
sV\u540e
I46
sV\u9e64\u7acb\u9e21\u7fa4
p672
I4
sV\u4e13\u5fc3\u81f4\u5fd7
p673
I2
sV\u6253\u5165
p674
I2
sV\u653e\u7267
p675
I2
sV\u5931\u4e0d\u518d\u6765
p676
I2
sV\u8d5a\u5230
p677
I2
sV\u60e9\u6212
p678
I2
sV\u6234\u5360\u519b
p679
I4
sV50
p680
I2
sV\u635f\u5931
p681
I12
sV\u4e70
I16
sV\u53d1\u884c
p682
I4
sVsell
p683
I2
sV\u76f8\u540c\u4e4b\u5904
p684
I2
sVSteven
p685
I2
sV\u800c\u975e
p686
I2
sV\u96be
I6
sV\u7f51\u7edc\u8425\u9500
p687
I8
sV\u90ae\u4ef6
p688
I12
sV\u7b7e
I2
sV\u53d1\u73b0
p689
I12
sV\u60f3\u4e70
p690
I2
sV\u63a8\u5e7f
p691
I14
sV\u8d85\u8fc7
p692
I4
sV\u548c
I126
sV\u8d85\u7ea7\u5e02\u573a
p693
I20
sV\u5546\u54c1
p694
I30
sV\u4f1a\u5458
p695
I4
sV\u5cb8\u7ebf
p696
I2
sV\u4f7f\u7528
p697
I52
sV\u5f88\u4e45\u5f88\u4e45
p698
I2
sV\u7f51\u6c11
p699
I8
sV\u66f4\u597d
p700
I6
sV\u770b\u89c6
p701
I2
sV\u4e0d\u4e86
p702
I4
sV\u6fb3\u5927\u5229\u4e9a
p703
I4
sV\u6ca1\u6709
p704
I66
sV/
I156
sVEwenChia
p705
I2
sV\u4e0d\u5356
p706
I4
sV\u5ba3\u4f20\u8bed
p707
I2
sV\u8f6c\u5708\u5708
p708
I2
sV\u6700\u7ec8
p709
I14
sV427
p710
I2
sV\u6253\u51fb
p711
I2
sV\u5404\u79cd
p712
I8
sV\u66f4\u591a
p713
I12
sV\u7a0b\u5ea6
p714
I4
sV\u4e3b\u89d2
p715
I2
sV\u5348\u9910
p716
I2
sV\u5356\u4ef7
p717
I2
sV\u4e0a\u7f51
p718
I2
sV\u5b8c\u5168
p719
I6
sV\u592a\u9633
p720
I2
sV\u5c31\u8981
p721
I16
sV\u57f9\u517b
p722
I2
sV\u5bb6\u5883
p723
I2
sV\u7ea2
I2
sV\u8003\u8651\u4e00\u4e0b
p724
I2
sV\u5927\u90fd\u5e02
p725
I2
sV\u5e73\u54e5
p726
I2
sV\u5bfb\u6c42
p727
I2
sV\u7761
I2
sV\u56e0
I2
sV\u4ff1\u4e50\u90e8
p728
I2
sV\u88c5\u4fee
p729
I2
sV\u7ed3\u675f
p730
I2
sV\u70e4
I8
sV\u62a5\u544a
p731
I2
sV\u6240\u77e5
p732
I2
sV\u7a0b\u5e8f
p733
I2
sV\u6709\u7528
p734
I4
sV\u94bb\u8fdb
p735
I2
sV\u51fa
I10
sV\u4eba\u6c11\u5e01
p736
I2
sV\u6700
I84
sV\u521a\u521a
p737
I2
sVTRICONGlobal
p738
I20
sV\u4e1c\u6c5f
p739
I2
sV\u578b
I2
sV\u4e95\u5188\u5c71
p740
I2
sV\u5bb6\u5ead
p741
I2
sV\u4e4b\u540e
p742
I2
sV\uff10
I2
sV\u600e\u4e48\u6837
p743
I2
sV\u6bcf
I16
sV\u751f\u6d3b\u7167
p744
I2
sVDropBox
p745
I2
sV\u73af\u6e56
p746
I2
sV\u6e38\u8bb0
p747
I2
sV\u6253\u9020
p748
I6
sV\u5546\u754c
p749
I2
sV\u8fdf\u65e9\u4f1a
p750
I4
sV\u91d1\u5e01
p751
I2
sV\u8bf4\u51fa
p752
I4
sV\u706b\u9505
p753
I2
sV\u5e26
I10
sV\u5171\u6e38
p754
I2
sV\u6e05\u51c9
p755
I4
sV\u5b89\u5168
p756
I2
sV\u5341\u8db3
p757
I20
sV\u5730\u4ea7
p758
I2
sV\u7ba1\u8f96
p759
I2
sV\u7075\u6027
p760
I2
sV\u9001\u51fa
p761
I2
sV\u8d1d\u5229
p762
I20
sV\u7f3a\u5c11
p763
I8
sV\u7535\u5668
p764
I2
sV\u83f2\u5c14
p765
I4
sV\u89c6\u9891
p766
I38
sV\u5f69\u8272
p767
I2
sV\u6536\u5165
p768
I8
sVcnl0791
p769
I2
sV\u53e4\u6728\u53c2\u5929
p770
I2
sV\u611f\u53d7
p771
I4
sV\u9177\u70ed
p772
I2
sV6
I4
sV\u6210\u957f
p773
I2
sV\u8ffd\u51fb
p774
I2
sV\u4fbf\u662f
p775
I4
sV\u58f0\u54cd
p776
I2
sV\u81ea\u8c6a
p777
I2
sV\u6b8b\u4eba
p778
I2
sV\u8fdb
I6
sV\u5373\u5c06
p779
I6
sV\u9760
I20
sV\u53e3
I2
sV\u5462
I26
sV\u6e90
I4
sV\u53db\u79bb
p780
I2
sV\u540c\u6d4e\u5927\u5b66
p781
I2
sV\u4e1a\u52a1
p782
I26
sV\u8b66\u5bdf
p783
I6
sV\u5723\u5730
p784
I2
sV\u5c0f\u770b
p785
I2
sV\u5e02\u573a\u8c03\u7814
p786
I2
sV\u7ffb
I2
sV\u6731\u5b50\u8bed
p787
I2
sVmtg
p788
I2
sV\u5e9e\u5927
p789
I4
sV\u6587\u5b57
p790
I2
sV\u88ab\u52a8
p791
I4
sV\u6bcf\u4e2a
p792
I16
sV\u4e86
I446
sV\u708e\u708e\u590f\u65e5
p793
I2
sV\u770b
I30
sV\u667a\u6167
p794
I18
sV\u540d
I4
sV\u9762\u4e34
p795
I6
sV\u5982\u5395
p796
I2
sV\u5c3d\u7136
p797
I4
sV\u9ebb\u70e6
p798
I2
sV\u76d1\u63a7
p799
I2
sV\u76f8\u5173
p800
I2
sVOffline
p801
I4
sV\u7f51\u8d2d
p802
I4
sV\u4e0a\u5e02
p803
I4
sV\u5e7f\u544a\u8d39
p804
I2
sV\u4e0b\u4e2a\u661f\u671f
p805
I2
sV\u7bc7
I4
sV\u5ea6
I2
sVnot
p806
I2
sV\u811a\u6b65
p807
I2
sV\u672b
I2
sV\u907f\u514d
p808
I4
sV\u9738\u8005
p809
I4
sV\u8fd8\u4e3a
p810
I2
sV\u5353\u8d8a
p811
I2
sV\u8377\u82b1
p812
I2
sV\u4f1a\u957f
p813
I2
sV\u559d\u5f69
p814
I2
sV3.9
p815
I2
sV\u5c3d
I2
sV\u85cf\u6c11
p816
I2
sV\u957f\u671f
p817
I4
sV\u5927\u76d8\u5546
p818
I2
sV\u5de6\u53f3
p819
I2
sV\u56e0\u6b64
p820
I2
sV\u4e24\u5ea7
p821
I2
sV\u9f13\u52b1
p822
I6
sV\u4e0d\u5229
p823
I4
sV\u5956\u8d4f
p824
I2
sV\u767b\u9ad8\u671b\u8fdc
p825
I2
sV\u8ba4\u4e3a
p826
I12
sV\u4e0d\u5230
p827
I4
sV\u80e1\u5e08
p828
I2
sV\u4e0b\u53bb
p829
I2
sV\u83d8
I6
sV\u65d7\u5e1c
p830
I2
sV\u5e73\u65b9\u516c\u91cc
p831
I2
sV\u9661
I6
sV\u91ca\u653e
p832
I4
sV\u5fc3\u4e2d
p833
I4
sV\u4e0b\u5385
p834
I2
sV\u673a\u4e0d\u53ef\u5931
p835
I2
sV\u8fdb\u653b
p836
I2
sV\u5be8
I4
sV\u7f51\u8d5a
p837
I6
sV\u88c5\u6ee1
p838
I2
sV\u4e00\u8def
p839
I2
sV\u88ab\u8feb
p840
I2
sV\u5e74\u51ac
p841
I2
sV\u6628\u5929
p842
I6
sV\u4e92\u8054\u7f51
p843
I78
sV\u957f
I2
sV\u8d85\u4eba
p844
I2
sV\u7279
I2
sV\u66fe
I4
sV\u6bd4\u5982
p845
I10
sV\u8d1f\u9762
p846
I2
sV\u997f
I2
sV\u8981
I110
sV\u627e\u51fa
p847
I2
sV\u8fd9\u4f4d
p848
I4
sV\u7b2c\u4e00\u628a
p849
I2
sV\u5b9e\u4f53
p850
I8
sV\u3010
I60
sV\u6251\u9f3b
p851
I2
sV\u9001\u7ed9
p852
I2
sV\u4e70\u5356
p853
I2
sV\u4f1a
I98
sV\u9762\u5bf9\u73b0\u5b9e
p854
I2
sV\u6e10\u6e10
p855
I2
sV\u5c0f\u9152\u9986
p856
I2
sV\u5b8c\u7f8e
p857
I8
sV\u5428
I2
sV\u88ab
I28
sV\u62db\u63fd
p858
I20
sV\u5f53\u4e0b
p859
I2
sV\u653b\u51fb
p860
I2
sV\u535a\u8fbe
p861
I4
sV\u8d62\u5f97
p862
I4
sV\u89c1\u4e49\u52c7\u4e3a
p863
I2
sV128
p864
I2
sV\u5356\u70b9
p865
I2
sV\u73b0\u5728
p866
I38
sV\u6253\u5f00
p867
I10
sV\u4fdd\u9669
p868
I2
sVDay
p869
I2
sV\u6f5c\u5728
p870
I4
sV\u89c1
I4
sV\u670d\u52a1
p871
I50
sV\u8bb0\u5f55
p872
I4
sV\u4e00\u624b
p873
I2
sV\u524d\u7aef
p874
I4
sV\u5fc3\u60c5
p875
I6
sV\u4e3e\u8d77
p876
I2
sV\u91d1
I20
sVO2O
p877
I6
sV\u9ed8\u9ed8
p878
I2
sV\u5176\u5b83
p879
I10
sV\u672c\u9886
p880
I2
sV\u6b63\u5f0f
p881
I4
sV\u975e\u540c\u51e1\u54cd
p882
I20
sV\u5171\u548c\u56fd
p883
I2
sV\u5feb\u6765
p884
I2
sVlevel
p885
I2
sV\u5468
I2
sV\u4fc4
I2
sV\u5e73\u53f0
p886
I2
sV\u5bb6\u91cc
p887
I2
sV\u5145\u5206\u53d1\u6325
p888
I2
sV\u4f55\u79cd
p889
I2
sV\u770b\u4e0b
p890
I2
sV\u610f\u601d
p891
I2
sV\u56de\u8f6c
p892
I20
sV\u5ba2\u670d
p893
I6
sV\u7535\u5b50\u90ae\u4ef6
p894
I6
sV\u7f55\u89c1
p895
I2
sV\u534f\u8bae
p896
I2
sV\u5c11\u5e74
p897
I4
sV\u5145\u6ee1
p898
I4
sV\u5fc3\u6001
p899
I2
sV\u68a8\u6811
p900
I2
sV\u7269\u8d85\u6240\u503c
p901
I4
sV\u8f6c\u53d1
p902
I24
sV\u6ca1\u6765
p903
I2
sV\u8ddf\u7740
p904
I6
sV\u80cc\u9760
p905
I2
sV\u5ba2
I24
sV\u4e09\u767e
p906
I2
sV\u94a8
I2
sV\u4e00\u800c\u518d
p907
I2
sV\u9002\u7528
p908
I4
sV\u64cd\u5b88
p909
I2
sV\u597d\u591a\u5e74
p910
I2
sV300
p911
I2
sV\u540d\u5b57
p912
I2
sV\u535a\u52a8
p913
I6
sV\u4e00\u62b9
p914
I2
sV\u897f\u9910\u5385
p915
I2
sVTheClevelandOrchestra
p916
I2
sV\u538b\u7ffb
p917
I2
sV\u8d85\u7ea7\u5973
p918
I2
sV\u7279\u60e0
p919
I4
sV\u53c2\u4e0e
p920
I4
sV\u6469\u5929\u5927\u697c
p921
I2
sV\u540c\u65f6
p922
I40
sV\u786e\u8ba4
p923
I2
sV\u5b9e\u4f8b
p924
I4
sVSunglassHut
p925
I20
sV\u5199\u771f\u96c6
p926
I2
sV\u4e00\u62db
p927
I64
sV[
I2
sV\u5f88\u70ed
p928
I2
sV\u603b\u662f
p929
I4
sV\u591a\u5c11
p930
I16
sV\u5ba2\u4eba
p931
I2
sV\u5c71\u6c34
p932
I6
sV\u767d\u65e5
p933
I2
sV\u8bb2\u7a76
p934
I6
sV\u505c\u4e0b\u6765
p935
I4
sV\u7531\u8877
p936
I2
sV\u60f3\u60f3
p937
I4
sV\u63d0\u4f9b
p938
I48
sV\u673a\u5bc6
p939
I2
sV\u7236\u6bcd
p940
I2
sV\u5f53\u4eca
p941
I2
sV\u8fc7\u6765
p942
I4
sV\u76db\u4f20
p943
I2
sV\u4fee\u70bc
p944
I2
sV\u66f4
I90
sV\u5f02\u54cd
p945
I2
sV\u53d8\u5f97
p946
I2
sV\u72fc
I8
sV\u63a8\u51fa
p947
I100
sV\u8d1d\u5c14
p948
I22
sV\u6b63\u9762
p949
I2
sV\u9886\u519b\u4eba\u7269
p950
I2
sV\u9ad8\u7ea7
p951
I2
sV\u5974\u624d
p952
I2
sV\u5c5e\u4e8e
p953
I6
sV\u6c99
I20
sV\u8fde\u9501
p954
I22
sV\u7f51\u5e97
p955
I4
sV\u641e
I22
sV\u8054\u7edc
p956
I2
sV\u521b\u65b0
p957
I6
sV\u8304\u5b50
p958
I6
sV\u6240\u5fe7
p959
I2
sV\u4ea4\u53c9
p960
I2
sV\u7528
I100
sV\u53ef\u4e0d\u662f
p961
I2
sV\u81ea\u6211
p962
I4
sV\u5999\u65b9
p963
I2
sV\u4e0a\u72b9
p964
I2
sVIngramBookCompany
p965
I2
sV\u5171\u6027
p966
I2
sV\u6e90\u4e8e
p967
I2
sV\u4e4b\u5916
p968
I2
sV\u9700\u6c42
p969
I8
sV\u6559\u6388
p970
I6
sV\u6b63\u5728
p971
I6
sV\u4ec5
I2
sV\u590f\u5929
p972
I2
sV\u56db\u4e94
p973
I2
sV\u516c\u8ba4
p974
I2
sV\u6d41\u91cf
p975
I18
sV\u514d\u8d39\u8d60\u54c1
p976
I2
sV\u610f\u613f
p977
I2
sV\u996e\u6599
p978
I20
sV\u65e2
I2
sV\u51fa\u6e38
p979
I6
sV\u6c5f\u897f\u7701
p980
I4
sV\u56fa\u7136
p981
I2
sV\u7ed9\u51fa
p982
I2
sV\u534e\u76db\u987f\u90ae\u62a5
p983
I2
sV\u901a\u5929
p984
I12
sV\u5730\u60f3
p985
I2
sV\u8fd9\u4e2a
p986
I106
sV\u53d1\u5c55
p987
I16
sV\u5471\u5471\u5760\u5730
p988
I2
sV\u7cbe\u5f69\u7eb7\u5448
p989
I2
sV\u672c\u4eba
p990
I4
sVWebinar
p991
I2
sVDown
p992
I2
sV\u6d77\u62d4
p993
I2
sV\u6574\u4e2a
p994
I4
sV\u6c38\u8fdc
p995
I18
sV\u72e9\u730e
p996
I2
sV\u5356\u51fa
p997
I4
sV\u4e8b\u5b9e
p998
I2
sV\u5c31\u662f
p999
I94
sVJay
p1000
I2
sV\u5728\u573a
p1001
I4
sV\u5e38\u7528
p1002
I2
sV\u4e0d\u9057\u4f59\u529b
p1003
I2
sV\u6307
I4
sV\u53ea\u597d
p1004
I2
sV\u522b\u514b
p1005
I20
sV\u624b\u628a\u624b
p1006
I2
sV\u5168\u5bb6
p1007
I2
sV\u6295\u7a3f
p1008
I2
sV\u5f0f
I8
sV\u5408\u4f5c\u4f19\u4f34
p1009
I2
sV\u3011
I60
sV\u5047\u5982
p1010
I12
sV\u80af\u5fb7\u57fa
p1011
I20
sV\u5b89\u5fc3
p1012
I2
sV\u5bc2\u9759
p1013
I2
sV\u671f
I12
sV\u5821
I2
sV\u591c\u6df1\u4eba\u9759
p1014
I2
sV\u51b2\u51fb\u6027
p1015
I2
sV\u4e8e
I14
sV\u7fa4
I24
sV\u7f51\u6613\u6ce1\u6ce1
p1016
I2
sV\u773c\u524d\u4e8f
p1017
I2
sV\u8d22\u4f4d
p1018
I2
sV1
I28
sV\u8fd9\u4efd
p1019
I2
sV\u5173\u952e
p1020
I14
sV\u535a\u4e3b
p1021
I6
sV\u5185\u5bb9
p1022
I6
sV\u8ddf\u6709
p1023
I2
sV\u8fd9\u4ef6
p1024
I2
sV\u6447\u65d7
p1025
I2
sV\u4e13\u8bbf
p1026
I2
sV\u72ec\u6811\u4e00\u683c
p1027
I2
sV\u4f55\u987b
p1028
I2
sV\u51e0\u5468
p1029
I2
sV\u4e13\u9898\u5b66\u4e60
p1030
I2
sV\u53e4\u4ee3
p1031
I2
sV\u6709\u628a\u63e1
p1032
I2
sV\u8fd9\u4e9b
p1033
I38
sV\u62a2
I40
sV\u7f8e\u56fd
p1034
I24
sV\u6dd8
I2
sV\u8fd0\u52a8
p1035
I20
sV\u8d34\u7740
p1036
I2
sV\u795e\u5947
p1037
I24
sV\u597d\u6bd4
p1038
I6
sV\u9152\u5e97
p1039
I12
sV\u7cbe\u795e
p1040
I20
sV\u57ce\u5e02
p1041
I6
sV\u89e3\u5f00
p1042
I2
sV\u505a\u597d
p1043
I2
sV\u806a\u654f
p1044
I2
sV\u4e0d\u5c11
p1045
I4
sV\u767e\u5206\u4e4b\u4e00
p1046
I10
sV\u5efa
I2
sV\u56de\u4ee5
p1047
I20
sVClickBak
p1048
I2
sV\u89e6\u5230
p1049
I2
sV\u7f8e\u5143
p1050
I4
sV\u8d85
I2
sV\u516c\u5171\u536b\u751f
p1051
I4
sV\u9996\u5148
p1052
I4
sV\u6587\u5b66\u4f5c\u54c1
p1053
I4
sV\u5206\u949f
p1054
I26
sV\u8bbe\u8eab\u5904\u5730
p1055
I2
sV\u90a3\u513f
p1056
I2
sV\u4f4e\u4ef7\u4f4d
p1057
I4
sV\u5408\u9002
p1058
I2
sV\u7ee7\u7eed
p1059
I10
sV\u201c
I208
sV\u5468\u8fdb\u826f
p1060
I2
sV\u5305\u62ec
p1061
I8
sVHua
p1062
I6
sV\u6539\u53d8
p1063
I2
sV\u76d6\u8328
p1064
I4
sV\u4eba\u6587
p1065
I2
sV\u9500\u552e
p1066
I66
sV\u6dcb\u6f13\u5c3d\u81f4
p1067
I22
sV\u6148\u5584
p1068
I2
sV\u8fa3\u6912\u6cb9
p1069
I2
sV\u5e38
I2
sV\u4f5c\u7528
p1070
I2
sV\u8981\u8bf4
p1071
I2
sV\u5361\u8010\u57fa
p1072
I2
sV\u6b22\u5ea6
p1073
I2
sV\u6d45\u91ce
p1074
I2
sV\u673a\u7968
p1075
I2
sV\u4f8b\u5982
p1076
I2
sV\u854a
I2
sV\u79cd
I2
sV\u53d1
I4
sV\u70c8\u65e5
p1077
I2
sV\u8fd9
I122
sV\u8be5
I4
sV\u8fd9\u8f88\u5b50
p1078
I10
sV\u8d5a
I26
sV1958
p1079
I2
sV\u70e7
I2
sV\u4e0d\u5982
p1080
I6
sV\u4e0a\u53f0
p1081
I20
sVAnheuser
p1082
I2
sV\u9020\u6210
p1083
I2
sV25
p1084
I2
sV\u5154\u8089
p1085
I2
sV\u56de\u8d60
p1086
I2
sV\u4e4b\u4f59
p1087
I2
sVpizza
p1088
I4
sV\u77f3\u9f9b
p1089
I2
sV\u98de\u9f99
p1090
I6
sV\u5df7\u964c
p1091
I2
sV\u4e4b\u4fa7
p1092
I4
sV\u7ea2\u8272
p1093
I4
sV\u9886\u8896
p1094
I4
sV\u51b3\u5b9a
p1095
I14
sV\u6709
I212
sV\u4ed8\u6b3e
p1096
I14
sV\u5c0f
I48
sV\u7f8e
I12
sV\u6df1\u5165\u7814\u7a76
p1097
I2
sV\u4efb\u52a1
p1098
I2
sV\u9165
I2
sV\u4e1c\u5c71\u518d\u8d77
p1099
I2
sV\u624b\u6bb5
p1100
I22
sV\u5c9b\u4e0a
p1101
I2
sV\u63a5\u6536
p1102
I2
sV\u6240\u5c5e
p1103
I20
sV\u5bb6\u4eba
p1104
I2
sV\u7a33\u5c45
p1105
I2
sV\u8fdb\u884c
p1106
I10
sV\u4fe1\u5fc3
p1107
I2
sV\u518d\u89c1
p1108
I2
sV\u52a8\u4f5c
p1109
I4
sV\u5168\u989d
p1110
I2
sV\u5fc3\u5f97
p1111
I2
sV\u9ad8\u6821
p1112
I2
sV\u7edd\u5bf9
p1113
I46
sV\u5b9e\u8df5
p1114
I20
sV\u6625\u8282
p1115
I2
sV\u9632\u62a4
p1116
I4
sV\u8bf4\u8d77
p1117
I2
sV\u8ba1\u5212
p1118
I4
sV\u4ed6\u5bb6
p1119
I4
sV\u5bb6
I10
sV\u591a\u5e74
p1120
I2
sV\u7eb8
I2
sV\u67d4\u60c5
p1121
I2
sV\u56fd\u5bb6\u68ee\u6797\u516c\u56ed
p1122
I6
sV\u6c5f\u897f
p1123
I44
sV\u4e43
I6
sV\u8bd5\u56fe
p1124
I2
sV\u6d45
I2
sV\u5916\u5305
p1125
I6
sVG
I4
sV\u73af\u5883
p1126
I4
sV\u4e0a\u5356
p1127
I2
sV\u914d\u7f6e
p1128
I4
sV\u793e\u4f1a
p1129
I4
sV\u5c4f
I2
sV\u552f\u4e00
p1130
I4
sV\u5927\u6865
p1131
I2
sV\u4e09\u540d
p1132
I2
sV\u739b\u66f2\u53bf
p1133
I2
sV\u629a\u5dde
p1134
I2
sV\u53cd\u51fb
p1135
I2
sV\u6ca1\u5403\u8fc7
p1136
I2
sV\u6e05\u6d17
p1137
I2
sV\u4e0a\u5347
p1138
I4
sV\u4f20\u8fbe
p1139
I2
sV\u5c4f\u5e55
p1140
I2
sV\u7531\u4e8e
p1141
I20
sV\u6807\u51c6\u949f
p1142
I2
sV\u540c\u73ed\u540c\u5b66
p1143
I2
sV\u7f57\u6d6e\u5bab
p1144
I2
sV\u5927\u5927\u63d0\u9ad8
p1145
I4
sV\u5355\u4f4d
p1146
I6
sV\u52a0\u70b9\u6cb9
p1147
I2
sV\u516b\u5883
p1148
I2
sV\u8981\u70b9
p1149
I4
sV\u6c14\u52bf\u96c4\u4f1f
p1150
I4
sV18679198521
p1151
I2
sV\u8054\u7cfb
p1152
I2
sV\u9053
I2
sV\u6708
I38
sV\u5b8b
I2
sV\u65e0\u52a9
p1153
I2
sV\u590f\u5b63
p1154
I6
sVHertz
p1155
I2
sV\u7f3a
I2
sV\u9012\u62a5
p1156
I20
sV\u5988\u5988
p1157
I2
sV\u5012
I6
sV\u6e29\u60c5\u8109\u8109
p1158
I2
sV\u7ffb\u4e24\u756a
p1159
I2
sV\u8bd1\u6ce8
p1160
I4
sV\u4e00\u8d2b\u5982\u6d17
p1161
I2
sV\u5343\u767e\u4e07
p1162
I2
sV\u4ebf\u4e07\u5bcc\u7fc1
p1163
I2
sV\u4e1a\u7ee9
p1164
I12
sV\u9a6c\u533b
p1165
I2
sV\u5728
I296
sV\u8bf1\u4eba
p1166
I4
sV\u82b1
I6
sV\u6210\u4eba
p1167
I2
sV\u53d1\u5e03
p1168
I2
sV2
I12
sV\u6295\u8d44
p1169
I2
sV\u53bb
I42
sV\u653e\u5f03
p1170
I4
sV\u54b1\u4eec
p1171
I2
sV\u8ba8\u8bba
p1172
I2
sV\u5bd2\u51b7
p1173
I2
sV\u5ced\u58c1
p1174
I2
sVDocstoc
p1175
I2
sV\u56fe
I8
sV\u542c\u4ece
p1176
I2
sV\u5355\u4ef7
p1177
I2
sV\u67f3\u6e56
p1178
I2
sVAdvantageValues
p1179
I2
sV\u505c\u7559
p1180
I2
sV\u5c31\u5148
p1181
I2
sV\u98d8\u6d6e
p1182
I2
sV\u54c8
I6
sV\u5730\u62c9
p1183
I2
sV\u4e86\u4f4d
p1184
I4
sV\u53e6
I4
sV11
p1185
I2
sV10
p1186
I36
sV\u51b7\u6e05
p1187
I4
sV:
I108
sV\u76d8\u95ee
p1188
I2
sV\u4e0d\u5403
p1189
I4
sV16
p1190
I2
sV\u8fd0\u901a
p1191
I4
sV\u6570\u636e
p1192
I18
sV\u8def
I4
sV\u6fc0\u53d1
p1193
I6
sV\u7a81\u7834
p1194
I6
sV\u6309\u94ae
p1195
I2
sV\u5c0f\u670b\u53cb
p1196
I2
sV\u6781\u5f3a
p1197
I2
sV\u90fd
I194
sV\u7ade\u4e89\u8005
p1198
I4
sV\u77ed\u5904
p1199
I2
sV\u4e16\u754c
p1200
I50
sV\u7248\u5757
p1201
I6
sV\u5851\u9020
p1202
I2
sV\u7092
I4
sV\u5206\u4e0d\u6e05\u695a
p1203
I4
sV\u65e5\u51fa
p1204
I4
sV\u79fb\u52a8
p1205
I6
sV\u201d
I210
sV\u53ea\u4e0d\u8fc7
p1206
I10
sV\u5e2e\u52a9
p1207
I16
sV\u591a\u5f69
p1208
I2
sV\u6298\u6263
p1209
I2
sV\u4eae
I2
sV\u4ed8\u8d39
p1210
I4
sV\u6293\u4f4f
p1211
I20
sV\u771f\u5927
p1212
I4
sV\u524d\u591c
p1213
I2
sV\u7528\u5230
p1214
I2
sV\u9738\u6c14
p1215
I6
sV\u8303\u56f4
p1216
I8
sV\u975e\u5e38
p1217
I6
sV\u7528\u7ebf
p1218
I4
sV\u627e\u5230
p1219
I8
sV\u7ef4\u5c14
p1220
I2
sV\u6210\u529f\u8005
p1221
I10
sV\u5c71\u6cb3
p1222
I2
sV\u5076\u662f
p1223
I2
sV\u4ed8\u8bf8\u884c\u52a8
p1224
I2
sV\u56fd\u52a1\u9662
p1225
I2
sV\u8bbf\u95ee\u8005
p1226
I4
sV\u52a0\u901f\u5668
p1227
I4
sV\u4f5c\u54c1
p1228
I6
sV\u8fd8
I70
sV\u5148\u5206
p1229
I2
sV\u901a\u5411
p1230
I2
sV\u5fc3\u601d
p1231
I2
sV\u5f3a\u70c8
p1232
I8
sV\u7167
I2
sV\u65b0\u5efa
p1233
I2
sV\u54ea
I8
sV\u9887\u4e3a
p1234
I2
sV\u4e3b\u9898\u4e50\u56ed
p1235
I4
sV\u52a9\u624b
p1236
I2
sV\u4e13\u7528
p1237
I2
sV\u62b5\u7528
p1238
I2
sV\u9ad8\u697c
p1239
I2
sV\u5317\u5361\u7f57
p1240
I20
sV\u8d6b\u5179
p1241
I2
sV\u771f\u4e0d\u9519
p1242
I2
sV\u8857\u8fb9
p1243
I4
sV\u539f\u56e0
p1244
I2
sV\u4eba\u58f0\u9f0e\u6cb8
p1245
I2
sV\u638c\u63a7
p1246
I2
sV\u7279\u8272
p1247
I6
sV\u6f02
I2
sV\u6beb\u4e0d\u8d39\u529b
p1248
I2
sV\uff2d
I2
sV\u79d1\u5b66\u4f9d\u636e
p1249
I4
sV\u540e\u4eba
p1250
I2
sV\u6700\u591a
p1251
I2
sV\u51cc\u7a7a
p1252
I2
sV\u98df\u54c1
p1253
I2
sV\u5927\u4ea8
p1254
I2
sV\u8ba4\u6e05\u5f62\u52bf
p1255
I2
sV\u78b0\u5230
p1256
I2
sV\u6d3b\u52a8
p1257
I78
sV\u6700\u5927
p1258
I28
sV\u50ac\u7720
p1259
I2
sV\u4f7f\u5f97
p1260
I22
sV\u6807\u7b7e
p1261
I2
sV\u5730\u65b9
p1262
I4
sV\u53cd\u6297
p1263
I4
sV\u5510\u671d
p1264
I4
sV\u591a\u5f69\u7684
p1265
I2
sV\u5267\u7ec4
p1266
I2
sV\u65c5\u6e38
p1267
I34
sV\u597d\u51e0
p1268
I2
sV\u7838
I2
sV\u5927\u4e8b
p1269
I2
sV\u514b\u6263
p1270
I2
sV\u6c34\u57df
p1271
I2
sV\u5f3a\u5927
p1272
I2
sV\u7784\u51c6
p1273
I2
sVBurgerKingInternational
p1274
I2
sV\u8457\u540d
p1275
I6
sV\u949f\u5854
p1276
I2
sV\u4e0d\u59a8
p1277
I2
sV\u5634\u91cc
p1278
I4
sV\u865a\u62df
p1279
I8
sV\u65b0\u5947
p1280
I2
sV\u8d56
I2
sV\u969c\u788d
p1281
I4
sV\u67d0\u79cd\u539f\u56e0
p1282
I4
sV\u6807\u8bed
p1283
I2
sV\u8c61\u5f81
p1284
I4
sV\u4e13\u4e1a
p1285
I4
sV\u72ec\u597d
p1286
I8
sV\u6beb\u65e0\u6839\u636e
p1287
I2
sV\u6bd4\u5c14\u76d6\u8328
p1288
I4
sV\u5566
I6
sV\u8fd9\u6b21
p1289
I4
sV\u65e9\u9910
p1290
I4
sV\u5bb6\u5ead\u6210\u5458
p1291
I2
sV\u6253\u5b57
p1292
I2
sV\u60f3
I72
sV\u4e0a\u95e8
p1293
I2
sV\u751f\u65e5\u86cb\u7cd5
p1294
I4
sV\u53e3\u7891
p1295
I2
sV\u76f4\u63a5
p1296
I22
sV\u5236\u4f5c
p1297
I2
sV\u6c7d\u8f66\u96f6\u4ef6
p1298
I2
sV\u6700\u597d
p1299
I8
sV\u7535\u8bdd
p1300
I6
sV\u9700\u8981
p1301
I24
sV\u5706\u6ee1\u7ed3\u675f
p1302
I2
sV\u5409\u5a03\u5a03
p1303
I2
sV\u7c7b\u4f3c
p1304
I6
sV\u4eba\u7528
p1305
I4
sV\u72b9\u592a
p1306
I4
sV\u7b2c\u56db\u5341\u4e5d\u5c4a
p1307
I2
sV\u540a\u4e0b\u6765
p1308
I2
sV\u8bb2\u5e08
p1309
I2
sV\u6ca1\u53bb
p1310
I2
sV\u620f\u53f0
p1311
I2
sV\u5206\u5230
p1312
I2
sV\u914d\u5907
p1313
I2
sV\u56de\u8bbf
p1314
I2
sV\u9664\u4e86
p1315
I2
sV\u6d41\u9732\u51fa
p1316
I2
sV\u5927\u4e1a
p1317
I2
sV\u8a93\u4e0d\u7f62\u4f11
p1318
I2
sV3
I14
sV\u65c5\u884c\u793e
p1319
I6
sV\u6d51\u8eab\u89e3\u6570
p1320
I2
sV\u4f53\u9a8c
p1321
I8
sV\u8d8a\u6765\u8d8a
p1322
I2
sV\u76f2\u76ee
p1323
I2
sV\u5e02\u573a
p1324
I62
sV\u4e00\u8d77
p1325
I14
sV\u8d77\u6765
p1326
I16
sV\u4f4d\u7f6e
p1327
I4
sV\u9650\u5236
p1328
I4
sV\u7537\u5b50
p1329
I2
sV\u9879\u76ee
p1330
I14
sVTavern
p1331
I2
sV\u7eff\u53f6
p1332
I2
sV\u5c4b
I6
sV\u72ac\u79cd
p1333
I2
sV\u65e0\u9650\u671f
p1334
I2
sV26
p1335
I2
sV\u534e\u4eba
p1336
I6
sV\u5355
I4
sV\u5c71\u6cc9
p1337
I2
sV\u86af\u8693
p1338
I2
sV\u91cd\u78c5
p1339
I6
sV\u8282\u65e5
p1340
I20
sV\u751f\u547d
p1341
I4
sV\u6240\u5728\u57ce\u5e02
p1342
I2
sV\u706b\u8f66
p1343
I2
sV\u884c\u9500
p1344
I2
sV\u6d4f\u89c8
p1345
I4
sV\u6807\u8bc6
p1346
I6
sV\u5b63\u8282
p1347
I2
sV\u514b\u62c9
p1348
I22
sV\u53ea
I16
sV\u4eec
I18
sV\u4e00\u5219
p1349
I2
sVs
I4
sV\u53ef\u80fd\u6027
p1350
I6
sV\u4f8b\u5916
p1351
I2
sV\u5979
I10
sV\u9053\u8def
p1352
I2
sV\u5bb9\u6613
p1353
I20
sV\u7eb5\u8eab
p1354
I2
sV\u63d2\u4e0a
p1355
I4
sV\u52c7\u6597
p1356
I2
sV\u591a\u79cd
p1357
I2
sV\u8feb\u5207
p1358
I2
sV\u6545\u4e8b
p1359
I14
sV\u4e30\u539a
p1360
I2
sV\uff0c
I2308
sV,
I44
sV\u6697\u5730\u91cc
p1361
I2
sV\u76f8\u5bf9
p1362
I6
sV\u56fd\u5bb6\u94f6\u884c
p1363
I20
sV\u5f00\u901a
p1364
I2
sV\u516c\u5171\u5395\u6240
p1365
I2
sV\u6253\u5e7f\u544a
p1366
I2
sV\u869d
I2
sV\u606c\u9759
p1367
I2
sV\u5b83\u4eec
p1368
I46
sV\u91cd\u590d
p1369
I6
sV\u4f4d\u4e8e
p1370
I4
sV\u57fa\u7840
p1371
I22
sV\u6025\u9700
p1372
I2
sV\u4e00\u672c
p1373
I8
sV\u5de5\u4f5c
p1374
I30
sV\u4e01\u5df3
p1375
I2
sV\u5b8c\u5168\u540c\u610f
p1376
I2
sV\u5fb7
I2
sV500
p1377
I4
sV\u56fe\u7247
p1378
I12
sV\u5a46\u5a11
p1379
I2
sV\u65b9\u9762
p1380
I4
sV\u793e\u4f1a\u6027
p1381
I2
sV\u6301\u4e4b\u4ee5\u6052
p1382
I2
sV\u540d\u80dc\u533a
p1383
I6
sV\u7ad9
I2
sV\u67aa\u652f
p1384
I2
sV\u81ea\u52a8\u5316
p1385
I6
sV\u6bcd\u516c\u53f8
p1386
I20
sV2.
p1387
I8
sV\u4ece\u4e0d
p1388
I4
sV15679760605
p1389
I2
sV\u4e00\u6761
p1390
I6
sV\u6781\u5927
p1391
I2
sV\u70e9
I6
sV\u6838\u5fc3
p1392
I14
sV\u8d1d\u5b9d
p1393
I2
sV\u5145\u5176\u91cf
p1394
I2
sV\u4f6c
I2
sV\u8bef
I2
sV\u4e4b\u884c
p1395
I2
sV\u6570
I2
sV\u81f3
I10
sV\u770b\u6210
p1396
I2
sV\u5931\u8d25
p1397
I6
sV\u804a\u5929
p1398
I4
sV\u90e8
I4
sV\u8046\u542c
p1399
I2
sV\u66f4\u52a0
p1400
I4
sV\u707e
I2
sV\u8c01
I24
sV\u51e0\u5341\u6b65
p1401
I2
sV\u91c7\u53d6
p1402
I2
sV\u8fd9\u6bb5\u8bdd
p1403
I2
sV\u628a
I76
sV\u5de5\u4fe1
p1404
I4
sV\u6f5c\u529b
p1405
I4
sV\u5411
I22
sV\u7236\u4eb2
p1406
I2
sV\u5e26\u6765
p1407
I18
sV\u6c11\u8b66
p1408
I2
sV\u521b\u610f
p1409
I32
sV\u5927\u4f17
p1410
I2
sV\u62bd\u5956
p1411
I20
sV\u73ed\u6b21
p1412
I2
sV\u6ca1\u8c08
p1413
I2
sV\u4e2d
I76
sV\u97f3\u4e50\u5bb6
p1414
I2
sV\u65b0
I24
sV\u5168\u7f8e
p1415
I6
sV\u9002\u5408
p1416
I6
sV\u89e3\u7b54
p1417
I2
sV\u626b\u63cf
p1418
I4
sV\u65e0\u6d4e\u4e8e\u4e8b
p1419
I2
sV\u5e10\u7bf7
p1420
I4
sV\u8d62\u8005
p1421
I2
sVI
I4
sV\u767e\u8d27\u4e1a
p1422
I2
sV\u98ce
I2
sV\u63a5\u5355
p1423
I2
sVMcFal
p1424
I2
sV\u7279\u60e0\u4ef7
p1425
I2
sV\u591a\u591a
p1426
I20
sV\u7b2c\u4e5d\u671f
p1427
I2
sV\u5fae\u535a\u503c
p1428
I4
sV\u5c0f\u6cb3
p1429
I2
sV\u4e0d\u591f
p1430
I2
sV\u51e0\u5341\u6b3e
p1431
I2
sV\u51fa\u4e8b\u5730\u70b9
p1432
I2
sV\u6d17\u8f66
p1433
I2
sV\u5373\u4f7f
p1434
I4
sV\u54e6
I30
sV\u4ea6
I2
sV\u8270\u96be
p1435
I2
sV\u4ea4\u6613
p1436
I24
sV\u613f\u610f
p1437
I8
sV\u6fc0\u52b1
p1438
I20
sV\u6613
I2
sV\u8d2d\u4e70\u6b32
p1439
I4
sV\u63a8\u9500
p1440
I14
sV\u5f3a\u76d7
p1441
I2
sV\u849c\u672b
p1442
I2
sV\u822a\u8fd0
p1443
I2
sV\u7f8e\u8f6e\u7f8e\u5942
p1444
I2
sV\u4e00
I40
sV\u89e6\u624b\u53ef\u53ca
p1445
I2
sV\u88c5\u6709
p1446
I2
sV\u6328\u997f
p1447
I2
sV\u6d77\u65af
p1448
I2
sV\u91d1\u989d
p1449
I20
sV\u4f18\u60e0\u4ef7
p1450
I2
sV\u53cd\u9988
p1451
I2
sV\u8d70\u4e0a
p1452
I2
sV\u8bf4\u8bdd
p1453
I2
sV\u4e07\u5343
p1454
I2
sV\u3014
I2
sV\u653e\u5165
p1455
I10
sV\u54bf\u5440\u5b66\u8bed
p1456
I2
sV\u5f53\u521d
p1457
I4
sV\u5408\u7406
p1458
I2
sV\u89c6\u91ce
p1459
I2
sV\u70e4\u7bb1
p1460
I4
sV\u7fa1
I2
sV\u73a9
I4
sV\u5174\u8d77
p1461
I2
sV\u7edd\u5927\u591a\u6570
p1462
I6
sV\u76f4\u81f3
p1463
I2
sV\u7136\u540e
p1464
I28
sV\u5df2\u6709
p1465
I4
sV\u9009\u62e9
p1466
I8
sV\u7814\u5236
p1467
I6
sV\u76d8\u70b9
p1468
I2
sV4
I28
sV\u9a84\u50b2
p1469
I2
sV\u6587\u575b
p1470
I2
sV\u4e0d\u7ba1
p1471
I4
sV\u4eb2\u8fd1
p1472
I2
sV\u51e0\u53ea
p1473
I2
sV\u89c1\u6548
p1474
I2
sV\u547d\u540d
p1475
I2
sV\u6768\u4ed9\u5cad
p1476
I2
sV\u968f\u4fbf
p1477
I2
sV\u7b2c\u4e8c\u5c4a
p1478
I2
sV\u89d2\u5ea6
p1479
I2
sV\u6c7d\u8f66
p1480
I8
sV\u8fd0\u7528
p1481
I8
sV\u60f3\u4e0d\u5230
p1482
I2
sV\u6548\u7387
p1483
I8
sV\u5f31\u5c0f
p1484
I2
sV\u505a\u8d77
p1485
I2
sV\u85cf\u65cf
p1486
I4
sV\u6b4c\u9882
p1487
I20
sV\u7267\u6c11
p1488
I2
sV\u5668\u6750
p1489
I20
sV\u5b66
I28
sV\u771f\u5b9e
p1490
I2
sV\u575a\u4fe1
p1491
I10
sV\u6797\u6d77
p1492
I2
sV\u9c9c\u5ae9
p1493
I2
sV\u5f55\u50cf\u5e26
p1494
I20
sV\u98ce\u96e8
p1495
I2
sV\u5bf9
I58
sV\u80cc\u8d1f
p1496
I2
sV\u8fd8\u6709
p1497
I28
sV\u5237\u5361
p1498
I2
sVAuckland
p1499
I2
sV\u6309
I2
sV\u4f18\u79c0
p1500
I12
sV\u53bf
I2
sV\u529e\u6cd5
p1501
I34
sV\u89c9\u5f97
p1502
I28
sV\u4e89\u53d6
p1503
I24
sV\u6e29\u99a8
p1504
I2
sV\u96be\u602a
p1505
I8
sV\u4e13\u6ce8
p1506
I4
sV\u4e0d\u53ef\u6216\u7f3a
p1507
I6
sV\u5229\u65af
p1508
I20
sV\u6e05\u695a
p1509
I6
sV\u6269\u6563
p1510
I4
sV\u7535\u89c6
p1511
I4
sV\u76c8\u5229\u6a21\u5f0f
p1512
I16
sV\u4ee5\u81f3
p1513
I2
sV\uff21
I2
sV\u5e7f\u4e1c
p1514
I4
sV\u6e38\u620f
p1515
I22
sV\u5427
I30
sV\u6587
I2
sV\u8001\u8868
p1516
I2
sV\u4e00\u65e0\u6240\u6709
p1517
I2
sV\u52e4\u52b3
p1518
I2
sV\u641c\u67e5
p1519
I2
sV\u6536\u6b3e
p1520
I2
sV\u652f\u4ed8\u5b9d
p1521
I4
sV\u6309\u7167
p1522
I4
sV\u4ee5\u524d
p1523
I4
sV\u5927\u6392\u957f\u9f99
p1524
I2
sV\u9762\u6761
p1525
I2
sVbusiness
p1526
I2
sV\u6587\u660c\u9601
p1527
I6
sV\u6350\u6b3e
p1528
I2
sV\u4e00\u53e3
p1529
I2
sV\u5783\u573e\u6876
p1530
I2
sV\u5f00\u53d1
p1531
I6
sV\u660e\u767d
p1532
I18
sV\u9996\u6279
p1533
I2
sV\u7adf\u5c06
p1534
I2
sV\u65e0\u5904\u4e0d\u5728
p1535
I2
sV\u4e2a\u6027\u5316
p1536
I2
sV\u9000\u8d27
p1537
I4
sV\u5c3d\u7ba1\u5982\u6b64
p1538
I2
sV\u5386\u53f2
p1539
I6
sV\u7ba1\u5f26\u4e50\u56e2
p1540
I2
sVHTC
p1541
I2
sV842
p1542
I2
sV\u56fd\u5bb6\u7ea7
p1543
I2
sV\u53d8\u6362
p1544
I2
sV\u5426\u5219
p1545
I8
sV\u4f5c\u51fa
p1546
I4
sVHechts
p1547
I2
sV\u6025\u5267
p1548
I4
sV\u5bfb\u627e
p1549
I2
sV\u7b7e\u53d1
p1550
I2
sV\u7ed9\u94b1
p1551
I14
sV\u73cd\u60dc
p1552
I4
sV\u767b
I2
sV\u5174\u8da3
p1553
I2
sV\u4e0a\u9762
p1554
I2
sV\u80af\u5b9a
p1555
I4
sV\u6d6e\u6865
p1556
I4
sV\u539f\u5219
p1557
I2
sVNo
p1558
I2
sV\u5357\u5e90
p1559
I4
sV\u8ba2\u7968
p1560
I2
sV\u767e\u8d27\u516c\u53f8
p1561
I2
sV\u798f
I6
sV\u56fd\u4eba
p1562
I6
sV\u80a1\u4e1c\u5927\u4f1a
p1563
I2
sV\u91ce\u72fc
p1564
I8
sVBut
p1565
I2
sV\u7a7a\u95f4
p1566
I6
sV\u9505
I2
sV\uff11
I2
sV\u76c6\u53cb
p1567
I26
sV\u67b6\u52bf
p1568
I2
sV\u7279\u6709
p1569
I20
sV\u54b1
I2
sV\u7f8e\u666f
p1570
I4
sV\u5176\u4ed6\u4eba
p1571
I2
sV\u627e\u56de
p1572
I4
sV\u6ca1\u4e86
p1573
I2
sV\u8981\u662f
p1574
I6
sV\u7406\u8bba
p1575
I4
sV\u6765\u5230
p1576
I2
sV\u5b9d\u5ea7
p1577
I4
sV\u521b\u4e1a
p1578
I10
sV\u5141\u8bb8
p1579
I2
sV\u641e\u4e0d\u597d
p1580
I2
sV\u4ebf\u5143
p1581
I4
sV\u63a5\u4e0b\u6765
p1582
I2
sV\u91ce\u72d7
p1583
I2
sV\u70ed\u60c5
p1584
I2
sV\u6c42
I2
sV\u88c5
I6
sV\u5343\u5143
p1585
I2
sV\u597d\u51e0\u500d
p1586
I4
sV\u7ccd
I4
sV\u5bb6\u56ed
p1587
I2
sV\u4e2d\u5c0f\u578b
p1588
I4
sVTandy
p1589
I2
sV\u770b\u7b11\u8bdd
p1590
I2
sV\u8d22\u653f\u6536\u5165
p1591
I2
sV\u8f6c\u5411
p1592
I2
sV\u4eba\u5b66
p1593
I4
sV\u51fa\u7089
p1594
I4
sV\u987e\u540d\u601d\u4e49
p1595
I4
sV\u5475\u5475
p1596
I62
sV\u8981\u7528
p1597
I2
sV\u53ea\u80fd\u9760
p1598
I2
sV\u56de\u590d
p1599
I8
sV\u5229\u5668
p1600
I2
sV\u6025\u5267\u4e0b\u964d
p1601
I2
sV\u57ce\u5899
p1602
I2
sV\u592a\u7f8e
p1603
I2
sVClaiborne
p1604
I2
sV\u5e76
I38
sV\u6beb\u4e0d\u72b9\u8c6b
p1605
I2
sVGoldCrown
p1606
I20
sV\u60ca\u614c\u5931\u63aa
p1607
I2
sV\u76f8\u5f53\u4e8e
p1608
I2
sVBentonville
p1609
I2
sV31.8
p1610
I2
sV\u4e00\u7897
p1611
I2
sV\u89c4\u6a21
p1612
I4
sV\u6d3e\u53bb
p1613
I2
sV\u77f3\u7a9f
p1614
I6
sV\u822a\u7a7a
p1615
I24
sV\u522b
I24
sVNorthwestAirlines
p1616
I2
sV\u4eba\u6027
p1617
I2
sV\u79cd\u7c7b
p1618
I2
sV\u51b0\u6dc7\u6dcb
p1619
I2
sV\u701f\u701f
p1620
I2
sV\u5b9c\u5c45
p1621
I2
sV\u3015
I2
sVat
p1622
I2
sV\u51b2\u660f\u5934\u8111
p1623
I2
sV\u53d8\u6210
p1624
I10
sV\u53f0
I2
sV\u53ec\u6765
p1625
I2
sV\u8fd8\u662f
p1626
I22
sV4.2
p1627
I2
sV\u505a\u6210
p1628
I6
sV\u77e5\u8bc6
p1629
I10
sV\u4fca\u6770
p1630
I6
sV\u5f00\u8f9f
p1631
I2
sV\u6bd4\u91cd
p1632
I2
sV5
I8
sV\u666f\u533a
p1633
I14
sV\u81ea\u52a8\u64ad\u653e
p1634
I4
sV\u767b\u4e0a
p1635
I2
sV\u53e3\u5b50
p1636
I2
sV\u75bc
I2
sV\u6d59\u6c5f\u7701
p1637
I2
sV\u6587\u5316
p1638
I4
sVOmaha
p1639
I4
sV\u672c\u6027
p1640
I2
sV\u7f8e\u98df
p1641
I10
sV\u516c\u72fc
p1642
I2
sV\u7237\u7237
p1643
I2
sV\u7cbe\u5f69
p1644
I4
sV\u7d20\u6750
p1645
I2
sV\u5468\u5e74
p1646
I22
sV\u4ed6
I118
sV\u6700\u9ad8
p1647
I4
sV\u5927\u6d6a
p1648
I2
sV170
p1649
I2
sV\u5b63
I22
sV\u4e00\u65e6
p1650
I2
sV\u65b9\u5f0f
p1651
I30
sV\u559c\u7231
p1652
I6
sV\u5927\u8d5e
p1653
I2
sV\u5b9e\u5b9e\u5728\u5728
p1654
I2
sV\u52a8
I2
sV\u610f\u60f3\u4e0d\u5230
p1655
I2
sV\u6652
I2
sV\u4e00\u65f6
p1656
I2
sV\u4e09\u5927
p1657
I2
sV\u8bba\u575b
p1658
I2
sV\u6dd8\u6c70
p1659
I4
sV\u804c\u4e1a
p1660
I2
sV\u4e94\u5143
p1661
I2
sV\u767e\u5206
p1662
I4
sV\u4e00\u5757
p1663
I2
sVChristophers
p1664
I2
sV\u4fee\u884c
p1665
I2
sV7.11
p1666
I2
sV\u7960
I2
sV\u4eba\u7fa4
p1667
I4
sV\u901a\u8fc7
p1668
I26
sV\u5343\u4e07
p1669
I28
sV\u6c83
I4
sV\u6570\u767e\u4e07
p1670
I20
sV\u53ef\u8a00
p1671
I6
sV\u8d77\u5bb6
p1672
I2
sV\u77f3\u57ce
p1673
I4
sV.....
p1674
I2
sV\u6559\u80b2\u5b66\u5bb6
p1675
I2
sV\u6761\u4ef6
p1676
I2
sV\u5e26\u67aa
p1677
I2
sV\u9762\u9986
p1678
I2
sV\u5de6\u624b
p1679
I2
sV\u7cfb\u5217
p1680
I60
sV\u667a\u56ca
p1681
I2
sV\u70b9\u5fc3
p1682
I20
sV\u7406\u5de5\u5927
p1683
I2
sV\u72ec\u95e8
p1684
I2
sV\u56fd\u5185
p1685
I10
sVto
p1686
I2
sV\u8d34\u8eab
p1687
I2
sV\u5c3d\u53ef\u80fd
p1688
I18
sV\u8273\u7fa1
p1689
I2
sV\u5206\u4eab
p1690
I18
sV\u4ebf
I8
sV\u6d3e
I4
sV\u5404\u4f4d
p1691
I2
sV\u4e0d\u65ad
p1692
I14
sV\u7fe0\u5fae
p1693
I2
sV\u9762\u79ef
p1694
I4
sV\u9526\u4e0a\u6dfb\u82b1
p1695
I2
sV\u56db\u91ce\u832b\u832b
p1696
I2
sV\u72d7
I4
sV\u897f\u95e8
p1697
I2
sV\u987e\u5ba2
p1698
I48
sV\u53ea\u6562
p1699
I2
sV`
I2
sV\u4f20\u9500
p1700
I6
sV\u6362
I4
sV\u7535\u5b50\u5546\u52a1
p1701
I72
sV\u7f51\u7ad9
p1702
I68
sV\u90e8\u5206
p1703
I8
sV\u4e3b\u9898
p1704
I2
sV\u4eba\u5fc3
p1705
I2
sV\u64c5\u957f
p1706
I10
sV\u70ed\u5ff1
p1707
I2
sV\u5e74
I114
sV\u5178\u8303
p1708
I2
sV\u4ebf\u4e07
p1709
I4
sV\u4e16\u4eba
p1710
I2
sV\u4e94\u516c\u91cc
p1711
I2
sV\u52c7\u58eb
p1712
I2
sV\u75be\u75c5
p1713
I2
sV\u5403
I22
sV\u5730\u5916
p1714
I4
sV\u7684
I2538
sV\u6bcf\u5929
p1715
I12
sV\u4e0d\u6562
p1716
I2
sV\u5b57\u773c
p1717
I2
sV\u6dd8\u5b9d
p1718
I4
sV\u51b7\u95e8
p1719
I2
sV\u98df\u8089\u52a8\u7269
p1720
I2
sV\u5c1a\u5b58
p1721
I2
sV\u4e94
I2
sV\u6731\u8679
p1722
I2
sV\u7acb\u573a
p1723
I2
sVAffiliate
p1724
I2
sV\u7a9c
I2
sV\u4f4e\u4ef7
p1725
I2
sV\u73b0\u6709
p1726
I8
sV\u5361\u7247
p1727
I40
sV\u6e21\u8fc7\u96be\u5173
p1728
I2
sV\u8001\u677f
p1729
I4
sV\u5177\u6709
p1730
I8
sV18
p1731
I2
sV\u9986
I2
sV\u65b0\u6cfd\u897f\u5dde
p1732
I2
sV\u7ea2\u65d7
p1733
I2
sV\u6765\u6559
p1734
I2
sV\u6837\u5b50
p1735
I2
sV\u6539
I4
sV\u4e3e\u884c
p1736
I4
sV\u6392\u540d
p1737
I2
sV\u624d\u521a
p1738
I20
sV\u56db\u767e\u4e07
p1739
I2
sV\u7011\u5e03\u7fa4
p1740
I2
sV\u6d41\u884c
p1741
I2
sV\u8bf4\u660e
p1742
I4
sV\u957f\u4e45
p1743
I2
sV\u4f59\u4e2b\u5c71
p1744
I4
sV\u963f\u80af\u8272\u5dde
p1745
I2
sV\u4e4b\u95f4
p1746
I2
sV\u6068\u4e4b\u5165\u9aa8
p1747
I2
sV\u4f59\u70ed
p1748
I2
sV\u767e\u8d27
p1749
I2
sV\u600e\u4e48
p1750
I16
sV\u5b66\u4e60
p1751
I70
sV\u6765
I78
sV\u5f62\u5982
p1752
I2
sV\u6570\u4e0d\u80dc\u6570
p1753
I2
sV\u706b
I4
sV\u6700\u65e9
p1754
I2
sV\u72ec
I2
sV\u624b\u91cc
p1755
I2
sV\u83b7\u5f97
p1756
I16
sV\u73b0\u573a
p1757
I4
sV\u7c73
I2
sV\u4e09\u4e2a
p1758
I2
sV\u5546\u62a5
p1759
I2
sV\u901a\u77e5
p1760
I2
sV\u6b4c\u661f
p1761
I2
sVDan
p1762
I2
sV\u5173\u4e4e
p1763
I4
sV\u5f53\u573a
p1764
I2
sVvia
p1765
I2
sV\u957f\u5c3e
p1766
I4
sV\u5f53\u5730
p1767
I6
sV\u9ea6\u5f53\u52b3
p1768
I26
sV\u4e00\u822c
p1769
I6
sV\u4e00\u7b14
p1770
I2
sVTom
p1771
I6
sV\u4fdd\u4f4f
p1772
I2
sV\u4ef7\u503c
p1773
I24
sV\u7ecf\u6d4e\u7e41\u8363
p1774
I2
sVshareholders
p1775
I2
sV\u5404\u4e2a
p1776
I2
sV0
I2
sV\u6562\u4e8e
p1777
I6
sV\u4e2a
I18
sV\u4f5c\u4e3a
p1778
I12
sV\u4e13\u5356
p1779
I2
sV\u96be\u5f97
p1780
I2
sV\u5468\u520a
p1781
I24
sV\u65e5\u5e38\u751f\u6d3b
p1782
I2
sV\u5a01\u5ec9\u65af
p1783
I2
sV\u82f9\u679c
p1784
I4
sV\u83b7
I2
sV\u524d\u6392
p1785
I40
sV\u6210\u4ea4\u7387
p1786
I16
sV\u793c\u7269
p1787
I2
sV\u5395\u6240
p1788
I8
sV\u4fbf
I4
sV\u751a\u81f3
p1789
I6
sV\u63d0\u9632
p1790
I2
sV\u7684\u786e
p1791
I8
sV\u4fc3\u9500
p1792
I50
sV\u6298\u4ef7\u5238
p1793
I4
sV\u7b2c\u4e94\u671f
p1794
I2
sV\u4e0d\u8d1f\u8d23\u4efb
p1795
I2
sV\u62cd
I2
sV\u7684\u8bdd
p1796
I36
sV\u9999\u98d8
p1797
I2
sV\u5f71\u7247
p1798
I4
sV\u5f53\u9762
p1799
I2
sV\u96e8\u540e\u6625\u7b0b
p1800
I2
sV\u8e0f\u7a33
p1801
I2
sV\u53d8\u8f6f
p1802
I2
sV\u8d44\u8baf
p1803
I6
sV\u62b5\u8fbe
p1804
I2
sV\u80fd\u7ad9
p1805
I2
sV\u5411\u5f80
p1806
I2
sV\u5b98\u65b9
p1807
I2
sV\u5373\u53ef
p1808
I6
sV\u5e74\u9f84\u6bb5
p1809
I2
sVlearn
p1810
I2
sV\u5c0f\u628a\u620f
p1811
I20
sV\u89e3\u6790
p1812
I2
sV\u5176\u5b9e
p1813
I20
sV\u3001
I368
sV\u6c14\u52bf
p1814
I2
sV\u5316\u9669\u4e3a\u5937
p1815
I2
sV\u706b\u7206
p1816
I2
sV\u8fbe\u5230
p1817
I2
sV\u75af\u72c2
p1818
I4
sV\u6811
I2
sV\u822c
I2
sV\u5f39\u51fa
p1819
I2
sV\u4e5d\u5341
p1820
I2
sV\u7d27\u5f20
p1821
I20
sV\u4e00\u5b9a
p1822
I56
sV\u5fc5
I2
sV\u8eab\u9ad8
p1823
I2
sV\u5162\u5162\u4e1a\u4e1a
p1824
I2
sV\uff1f
I166
sV!
I22
sV\u7f8e\u4e8b
p1825
I4
sV\u59d3\u540d
p1826
I4
sV\u82f1\u56fd\u4f26\u6566
p1827
I2
sV\u542c\u542c
p1828
I6
sV\u540e\u7aef
p1829
I12
sV\u5f17\u5409\u5c3c\u4e9a\u5dde
p1830
I2
sV\u6e29\u6696
p1831
I2
sV\u534f\u529e
p1832
I2
sV\u4e00\u5bb6
p1833
I8
sV\u8d63\u5dde
p1834
I108
sV\u63a8\u8350\u4eba
p1835
I4
sV\u6c49\u5821
p1836
I2
sV"
I16
sV\u5c3d\u91cf
p1837
I4
sV\u591a\u6570
p1838
I4
sV\u5ca9\u77f3
p1839
I4
sV\u56f4
I2
sV\u906e\u853d
p1840
I2
sV\u63aa\u65bd
p1841
I2
sV\u670d\u52a1\u4e1a
p1842
I2
sV\u6587\u5316\u57ce
p1843
I2
sV\u8f66\u7978
p1844
I2
sV\u6240\u6709
p1845
I22
sV\u624d
I42
sV\u591a\u5bb6
p1846
I2
sV\u4eba\u6027\u5316
p1847
I2
sV\u5982\u864e\u6dfb\u7ffc
p1848
I2
sV\u666e\u901a
p1849
I4
sVNebraska
p1850
I2
sV\u4e22\u5230
p1851
I2
sV\u6781\u5c0f
p1852
I2
sV\u5357
I2
sV\u590d\u8d5b
p1853
I2
sV\u4e2a\u6027
p1854
I4
sV\u5206\u6c34\u5cad
p1855
I2
sV\u7b2c\u4e00\u9875
p1856
I2
sV\u96ea
I4
sV\u66f4\u4e3a
p1857
I2
sV\u8d35\u4eba
p1858
I6
sV\u654c\u610f
p1859
I2
sV\u516b
I2
sV\u5e7f\u660c\u53bf
p1860
I2
sV\u98a0\u5012
p1861
I2
sV\u73b0\u4ee3
p1862
I2
sV\u826f\u597d
p1863
I2
sV\u7352
I2
sV\u8ddf\u8e2a
p1864
I8
sV\u81ea\u7acb
p1865
I8
sV\u957f\u5047
p1866
I2
sV\u582a\u8206
p1867
I2
sV\u53ef\u8bf4
p1868
I20
sV\u6bd4\u8f83
p1869
I26
sV\u4f7f
I20
sV\u7136\u800c
p1870
I4
sV\u5404
I4
sV\u524d\u80a2
p1871
I2
sV\u5904\u7406
p1872
I2
sV\u4ec0\u4e48
p1873
I56
sV\u6708\u4eae
p1874
I2
sV\u6e05\u6d01\u5de5
p1875
I2
sV\u800c
I88
sV\u4f20\u8bf4
p1876
I2
sV\u77e5\u540d\u5ea6
p1877
I8
sV\u5316
I6
sV\u65e0\u8bba
p1878
I2
sV\u5e95\u7279\u5f8b
p1879
I2
sV\u7535\u5546
p1880
I46
sV\u642d\u4e58
p1881
I2
sV\u542f\u53d1
p1882
I4
sV\u6587\u4ef6
p1883
I4
sV\u7bee\u7403\u573a
p1884
I20
sV20
p1885
I24
sV\u4e8b\u60c5
p1886
I4
sV\u6bd5\u4e1a
p1887
I6
sV\u54ea\u6015
p1888
I2
sV\u5982\u662f
p1889
I2
sV\u5b66\u5e9c
p1890
I2
sV\u53cc\u624b
p1891
I2
sV\u54af
I4
sV\u8de8\u8d8a
p1892
I2
sV\u6e20\u9053
p1893
I8
sV\u529b\u5927
p1894
I2
sV\u53ea\u6709
p1895
I20
sV
I8
sV\u6295\u8bc9
p1896
I4
sV\u5fd8\u8bb0
p1897
I2
sV\u5929\u5802
p1898
I8
sV\u738b
I4
sV\u5185\u5fc3
p1899
I4
sV\u529b\u5b66
p1900
I2
sV\u8fde\u63a5\u7ebf
p1901
I2
sV\u51fa\u552e
p1902
I4
sV\u53ef\u884c
p1903
I2
sV\u70e7\u94b1
p1904
I2
sV\u6ee1\u6000
p1905
I2
sV\u4eba\u5de5
p1906
I4
sV\u516c\u76ca
p1907
I2
sV\u9a6c\u4e0a
p1908
I8
sVL
I2
sV\u674e
I2
sV\u4e2d\u6587\u5b57\u5e55
p1909
I2
sV\u522b\u5fd8\u4e86
p1910
I22
sV\u5356
I20
sV\u9762\u5bf9
p1911
I4
sV\uff5e
I2
sV\u9547\u6d77
p1912
I2
sV\u653e\u5728
p1913
I2
sV\u6a44\u6984\u6cb9
p1914
I2
sV\u65e5
I14
sV\u9003\u907f\u8d23\u4efb
p1915
I2
sV\u6001\u5ea6
p1916
I2
sV\u8bc1\u636e
p1917
I2
sV\u5b9e\u7528
p1918
I4
sV\u65e9
I2
sV\u65e0\u6bd4
p1919
I2
sV\u7687\u51a0
p1920
I20
sV\u5b9e\u8df5\u5bb6
p1921
I6
sVBusch
p1922
I2
sV\u4e00\u9879
p1923
I14
sV\u4e0d\u6765
p1924
I2
sV\u4e8b\u52a1\u6240
p1925
I2
sV\u51fa\u95e8
p1926
I2
sV\u6e34\u671b
p1927
I8
sV\u4e09\u6c5f
p1928
I2
sV\uff09
I292
sV\u7edd\u5904\u9022\u751f
p1929
I2
sV\u706d\u6389
p1930
I2
sV\u4e0e\u65e5\u4ff1\u589e
p1931
I6
sV\u9a6c
I6
sV\u5e08\u5085\u9886\u8fdb\u95e8
p1932
I2
sV\u4f26\u6566
p1933
I12
sV\u5fc5\u80dc\u5ba2
p1934
I20
sV\u968f\u5373
p1935
I20
sVevent
p1936
I2
sV\u8f93\u5165
p1937
I2
sV\u9ec4\u91d1
p1938
I2
sV\u96f6\u552e\u5546
p1939
I22
sV\u4f18\u60e0\u6d3b\u52a8
p1940
I2
sV\u80fd\u591f
p1941
I16
sV\u519c\u6c11
p1942
I4
sV\u7092\u9999
p1943
I2
sV7
I6
sV\u592a\u8d35
p1944
I4
sV\u6bcf\u7b14
p1945
I2
sV\u4e0a\u6b21
p1946
I2
sV\u8fbe
I6
sV\u4eca\u591c
p1947
I2
sV\u9996\u8981
p1948
I2
sV\u7f51\u9875
p1949
I8
sV\u6709\u8fb9
p1950
I2
sV\u6162\u6162
p1951
I6
sV\u81ea\u79f0
p1952
I2
sV\u5237\u4e0a
p1953
I2
sV\u5b9e\u4f53\u5e97
p1954
I2
sV\u95ee\u9898
p1955
I26
sV\u65e5\u79ef\u6708\u7d2f
p1956
I2
sV\u5947\u89c2
p1957
I4
sV\u6709\u610f
p1958
I20
sV\u5b8c
I2
sV\u7acb\u9a6c
p1959
I2
sV\u795d
I2
sV\u6269\u5927
p1960
I2
sV\u4e00\u5927
p1961
I2
sV\u82cf\u6cca\u5c14
p1962
I2
sV\u5927\u9053
p1963
I2
sV\u552e\u540e\u670d\u52a1
p1964
I4
sV\u6f14\u8bb2
p1965
I2
sV\u53cd\u8d25\u4e3a\u80dc
p1966
I2
sV\u9500\u8def
p1967
I2
sV\u5efa\u6811
p1968
I2
sV\u8d44\u683c
p1969
I4
sV\u9762\u5b50
p1970
I2
sV\u4eca\u5929
p1971
I22
sVw
I2
sV\u89e3\u51b3\u65b9\u6848
p1972
I6
sV\u5148\u540e
p1973
I2
sV\u597d\u50cf
p1974
I2
sV\u65fa
I2
sV\u96c6\u4e2d
p1975
I2
sV\u72ec\u9738
p1976
I2
sV\u3002
I1752
sV\u501f\u529b
p1977
I2
sV\u4e0b\u6765
p1978
I2
sV\u964c\u751f\u4eba
p1979
I2
sV\uff08
I292
sV\u5ba3\u4f20
p1980
I14
sV\u5317\u5b8b
p1981
I2
sV\u5fc5\u9700
p1982
I4
sV\u8d21\u732e
p1983
I4
sV\u5929\u5929
p1984
I2
sV\u65e9\u6668
p1985
I2
sV\u5f62\u72b6
p1986
I2
sV\u53ea\u662f
p1987
I8
sV\u5f88\u7f8e
p1988
I2
sV\u6b63\u5e38
p1989
I2
sV\u5de5\u5177
p1990
I8
sV\u90a3\u6837
p1991
I18
sV\u9ebb\u7701\u7406\u5de5\u5b66\u9662
p1992
I2
sV\u4e00\u591c
p1993
I2
sV\u4e0d\u4ec5\u4ec5
p1994
I6
sV\u2022
I6
sV\u6bd4\u8d5b
p1995
I22
sV\u6c14\u5019
p1996
I2
sV\u4e00\u5929
p1997
I2
sV\u94f6\u884c
p1998
I4
sV\u501f\u52a9
p1999
I2
sV\u90ae\u7bb1
p2000
I2
sV\u8fd0\u884c
p2001
I2
sV\u53d1\u660e
p2002
I2
sV\u51e0\u4ee3
p2003
I20
sV\u8ba1\u7b97
p2004
I2
sV\u8bda\u5b9e
p2005
I4
sV\u8783\u87f9
p2006
I2
sV\u653e
I2
sV\u4fe1\u662f
p2007
I8
sV\u60e8\u53eb
p2008
I2
sVXX
p2009
I2
sV\u76ee\u4e0d\u6687\u63a5
p2010
I2
sV\u4e0d\u5168\u662f
p2011
I2
sV\u575a\u5fcd\u4e0d\u62d4
p2012
I4
sV\u80fd\u7528
p2013
I2
sV\u8111
I2
sV\u6325\u624b
p2014
I2
sV\u8fdb\u58eb
p2015
I2
sV\u53eb
I12
sV\u98d8\u9999
p2016
I2
sV\u8d28\u91cf\u4fdd\u8bc1
p2017
I4
sV\u5e76\u65e0\u4e8c\u81f4
p2018
I2
sV\u6253\u7406
p2019
I2
sV\u6545\u90fd
p2020
I4
sV\u5f88\u5feb
p2021
I4
sV\u590f\u6d1b\u7279
p2022
I20
sV\u767e\u4e8b
p2023
I20
sV\u5f00\u51ff
p2024
I2
sV\u538b\u529b
p2025
I4
sV\u8bfb
I2
sV\u697c
I4
sV\u4ffa\u4eec
p2026
I6
sV\u4ea4\u6613\u989d
p2027
I6
sV311.68
p2028
I2
sV\u5c55\u793a
p2029
I6
sV\u51e0\u4e2a
p2030
I8
sV\u5f88
I102
sVPeace
p2031
I2
sV\u7edd\u62db
p2032
I4
sV\u5750\u7262
p2033
I2
sV\u544a\u8bc9
p2034
I2
sVEssa
p2035
I2
sV\u5982\u679c
p2036
I70
sV\u5185\u5e03\u62c9\u65af\u52a0
p2037
I2
sV\u5f88\u5f3a
p2038
I2
sV\u8471
I4
sV\u5341\u5927
p2039
I2
sVsomething
p2040
I2
sV\u51fa\u54c1
p2041
I2
sV\u5347\u7ea7
p2042
I2
sV\u8fc7\u591c
p2043
I2
sV\u5e72\u8d27
p2044
I2
sV\u8d2b\u7a77
p2045
I2
sV\u8fdb\u5165
p2046
I4
sV\u544a\u8beb
p2047
I2
sV\u5c0f\u72d7
p2048
I4
sV\u56db\u5468
p2049
I2
sV\u8282\u76ee
p2050
I2
sV\u7cfb\u7edf\u914d\u7f6e
p2051
I2
sV\u5077\u6765
p2052
I2
sV\u70c2
I2
sV\u6316\u4e95
p2053
I2
sV\u5df4\u987f
p2054
I4
sV\u8def\u8fc7
p2055
I2
sV\u4e0d\u662f
p2056
I36
sV\u554f\u984c
p2057
I2
sV\u4e60\u60ef
p2058
I4
sV\u81ea\u8eab
p2059
I6
sV\u7ade\u4e89\u5bf9\u624b
p2060
I12
sV\u7b49\u7b49
p2061
I18
sV76
p2062
I2
sVFoodLion
p2063
I20
sV\u68d2
I36
sV\u85cf
I4
sV70
p2064
I2
sV\u6a21\u4eff
p2065
I20
sVGoogle
p2066
I2
sV\u4e5f\u8bb8
p2067
I8
sV\u5fe0\u544a
p2068
I2
sV\u5931\u53bb
p2069
I12
sV\u4ea4\u6905
p2070
I2
sV\u51e0\u4e4e
p2071
I4
sV\u8d70\u5f00
p2072
I2
sV\u95f2\u4eba
p2073
I2
sV\u6536\u85cf
p2074
I4
sV\u55d3\u95e8
p2075
I2
sV\u90fd\u884c
p2076
I2
sV\u6b7b
I2
sV\u4e07\u4ea9
p2077
I2
sV\u767e\u4e07
p2078
I10
sV\u8fd0\u52a8\u978b
p2079
I40
sV\u4e3a\u4ec0\u4e48
p2080
I4
sV\u53ef\u4e0d
p2081
I2
sV\u81ea\u5f3a
p2082
I8
sV\u4e8e\u662f
p2083
I2
sV\u65cf\u7fa4
p2084
I20
sV\u4ea4\u4ee3
p2085
I6
sV\u622a\u81f3
p2086
I2
sV\u6559\u7ed9
p2087
I2
sV\u7535\u8bdd\u53f7\u7801
p2088
I2
sV\u9881\u5956
p2089
I2
sV\u5199
I12
sV\u4eba\u5bb6
p2090
I4
sV\u7a9f
I2
sV\u8eab\u6b8b\u5fd7\u575a
p2091
I2
sV\u8bbe\u5b9a
p2092
I2
sV\u63a5
I2
sVHalbert
p2093
I2
sV\u642d\u6863
p2094
I22
sV\u8d26
I2
sV\u666e\u904d
p2095
I6
sV\u5e26\u7ed9
p2096
I10
sV\u8df3\u4e0b\u53bb
p2097
I2
sV\u85af\u6761
p2098
I2
sV\u9a6c\u6876
p2099
I2
sVC2C
p2100
I4
sV\u78b3
I2
sV\u4e8b\u5b9e\u4e0a
p2101
I2
sV\u767e\u5ea6
p2102
I2
sV\u7c7b\u578b
p2103
I2
sV8
I2
sV\u767e\u89c6
p2104
I2
sV\u8d21\u732e\u529b\u91cf
p2105
I2
sV\u6709\u70b9
p2106
I6
sV\u79fb\u8d70
p2107
I2
sV\u5927\u53d7\u6b22\u8fce
p2108
I2
sV\u88ab\u8a89\u4e3a
p2109
I2
sV\u6211\u56fd
p2110
I4
sV\u79d8\u8bc0
p2111
I40
sV\u4f55\u65f6
p2112
I4
sV\u96f6\u552e
p2113
I8
sV\u4e00\u6b65
p2114
I4
sV\u8dd1
I2
sV\u4e2d\u56fd
p2115
I30
sV\u786e\u5b9a
p2116
I4
sV\u9020\u5c31
p2117
I4
sV\u5408\u4e4e
p2118
I2
sV\u6355\u6349
p2119
I4
sV\u786e\u5b9e
p2120
I4
sV\u4e00\u5e55
p2121
I4
sV\u6316\u6398
p2122
I2
sV\u95e8\u53e3
p2123
I2
sV\u5b9d\u85cf
p2124
I2
sV\u8ba2\u623f
p2125
I2
sV\u8d44\u6e90
p2126
I4
sV\u795e
I2
sV\u9884\u70ed
p2127
I2
sV\u53c2\u52a0
p2128
I30
sV\u7edf\u8ba1\u6570\u636e
p2129
I2
sV\u5e72\u5df4\u5df4
p2130
I2
sV\u8d44\u4ea7
p2131
I2
sV\u65f6\u65f6\u523b\u523b
p2132
I2
sV\u542f\u52a8
p2133
I2
sV\u77ed
I6
sV\u7f51\u7edc
p2134
I52
sV\u6570\u503c
p2135
I2
sV\u6512
I2
sV\u641c\u7d22
p2136
I2
sV\u4e00\u5e74
p2137
I4
sV\u8d60\u9001\u7ed9
p2138
I2
sV\u8981\u4e3a
p2139
I4
sV\u65e5\u6e10
p2140
I2
sV\u7a81\u5982\u5176\u6765
p2141
I2
sV\u54c1\u724c\u6548\u5e94
p2142
I2
sV\u3003
I8
sV\u8c22\u5c14\u76d6
p2143
I2
sV\u5305
I8
sV\u7eb3\u5dde
p2144
I20
sV\u517b\u8fc7
p2145
I2
sV\u751f\u6c14
p2146
I2
sV\u8001\u724c
p2147
I2
sV\u7b80\u6613
p2148
I2
sV\u5934\u4e0a
p2149
I2
sV\u706b\u70ed
p2150
I4
sV\u7ecf\u5e38
p2151
I4
sVseo
p2152
I4
sV\u8981\u4ed8
p2153
I2
sV\u539a
I2
sV\u5e9c
I2
sV\u6587\u6848
p2154
I2
sV\u9887\u5177
p2155
I20
sV\u56de\u53bb
p2156
I2
sV\u989c\u8272
p2157
I20
sV\u6587\u5316\u540d\u57ce
p2158
I2
sV\u82cf\u5dde
p2159
I6
sV\u7968\u6e90
p2160
I20
sV\u98de\u6e85
p2161
I2
sV\u771f\u662f
p2162
I4
sV\u88c5\u6a21\u4f5c\u6837
p2163
I2
sV\u6587\u6863
p2164
I8
sV\u609f
I2
sV\u4fdd\u969c
p2165
I2
sV\u70b9\u5b50
p2166
I42
sV\u51fa\u53d1
p2167
I2
sV\u4f18\u70b9
p2168
I4
sV\u4f5c\u8bd7
p2169
I2
sV\u5e74\u5e95
p2170
I2
sV\u4e00\u7ec4
p2171
I2
sV\u524d\u666f
p2172
I2
sV\u7acb\u5373
p2173
I4
sV\u66b4\u5bcc
p2174
I2
sV\u7ec8\u4e8e
p2175
I2
sV\u4f60\u4eec
p2176
I6
sV\u51fa\u53bb
p2177
I30
sV\u6269\u5f20
p2178
I2
sV\u62db\u5f0f
p2179
I20
sV\u6bcb\u5eb8\u7f6e\u7591
p2180
I2
sV\u60c5\u4eba\u8282
p2181
I20
sV\u57fa\u91d1\u4f1a
p2182
I2
sV\u5e78\u798f
p2183
I8
sV\u5b9e\u73b0
p2184
I6
sV\u53ef\u4ee5
p2185
I128
sV\u4e0a\u6d77
p2186
I22
sV\u5947\u8ff9
p2187
I2
sV\u4e86\u89e3
p2188
I14
sV\u5b8c\u6210\u5b66\u4e1a
p2189
I2
sV\u7ec8\u8eab
p2190
I2
sVFarms
p2191
I2
sV\u4e00\u4e3e\u591a\u5f97
p2192
I2
sV\u5e7f\u544a
p2193
I12
sV\u611f\u6069
p2194
I4
sV\u65f6
I42
sV\u8179
I2
sV\u6280\u672f\u542b\u91cf
p2195
I4
sV\u5238
I2
sV\u4e95\u4e95\u6709\u6761
p2196
I2
sV\u90a3\u4e2a
p2197
I2
sV\u4e00\u5f00
p2198
I2
sV\u7b2c\u4e8c\u671f
p2199
I4
sV\u7cbe\u786e
p2200
I4
sV\u897f\u70b9
p2201
I2
sV\u5c06
I46
sV\u6df9\u6ca1
p2202
I2
sV\u518d\u800c\u4e09
p2203
I2
sV\u4fe1\u606f
p2204
I8
sV\u5b8b\u57ce
p2205
I6
sV\u638f\u8170\u5305
p2206
I2
sV\u72b6\u51b5
p2207
I2
sV\u4e0d\u60f3
p2208
I24
sVOnline
p2209
I4
sV\u4e0d\u80fd
p2210
I12
sV\u767d\u70ed\u5316
p2211
I2
sV\u9886\u609f\u51fa
p2212
I2
sV\u53d7\u82e6
p2213
I2
sV\u878d\u6c47
p2214
I4
sV\u4e2d\u5b66
p2215
I2
sV\u62a5
I4
sV\u5bf9\u4e8e
p2216
I8
sV\u56de\u5230
p2217
I4
sV\u53ea\u6015
p2218
I4
sV\u62dc
I2
sV\u9065\u8fdc
p2219
I2
sV\u6cbf\u9014
p2220
I2
sV\u5728\u4e4e
p2221
I2
sV\u672a\u53ca
p2222
I2
sV\u8d70\u8fdb
p2223
I2
sV\u4e00\u5c42
p2224
I4
sV\u53e3\u6c34
p2225
I2
sV\u5927\u578b
p2226
I2
sV\u9053\u7406
p2227
I2
sV\u597d\u770b
p2228
I2
sV\u4eca\u65e9
p2229
I2
sV\u54c1
I2
sV\u5ac9\u5992
p2230
I2
sV\u5408\u4f5c
p2231
I6
sV\u852c\u83dc\u7c7b
p2232
I2
sV\u8d23\u4efb
p2233
I2
sV\u4e00\u9f50
p2234
I2
sV\u673a\u667a
p2235
I4
sV\u5c11\u8d70\u5f2f\u8def
p2236
I4
sV\u7edd
I20
sV\u9875
I8
sV\u585e
I2
sV\u7b7e\u5b9a
p2237
I2
sV\u90a3\u4e48
p2238
I30
sV\u82e5
I4
sVQQ
p2239
I8
sV\u55bd
I2
sV\u5546\u673a
p2240
I10
sV\u5c0f\u5403
p2241
I2
sV\u7ecf\u6d4e\u6548\u76ca
p2242
I4
sV\u53ef
I36
sV\u90a3\u91cc
p2243
I6
sV\u8868\u73b0\u624b\u6cd5
p2244
I2
sV\u5e72
I6
sV>
I2
sV\u5f88\u4e45\u6ca1
p2245
I2
sV\u534a\u4e2a
p2246
I2
sV\u65e0\u6cd5
p2247
I16
sV\u60f9
I2
sV\u541d\u556c
p2248
I2
sV\u6c60\u5858
p2249
I2
sV\u6444\u5f71\u5e08
p2250
I2
sV\u56f4\u5c4b
p2251
I2
sV\u5f88\u591a
p2252
I60
sVCity
p2253
I2
sV\u8fdc\u8fdc\u5730
p2254
I4
sV10000
p2255
I2
sV\u7528\u6237\u754c\u9762
p2256
I2
sV\u5927\u5730
p2257
I2
sV\u65f6\u5dee
p2258
I2
sV\u5e16\u5b50
p2259
I2
sV\u7ade\u4e89
p2260
I16
sV\u5904
I8
sV\u9891\u7e41
p2261
I2
sV\u6536\u83b7
p2262
I4
sV\u7acb\u523b
p2263
I2
sV\u77ed\u671f
p2264
I4
sV\u843d\u5dee
p2265
I2
sV\u8fc7\u7a0b
p2266
I22
sV\u73af\u8282
p2267
I4
sV\u6839\u672c
p2268
I6
sV\u7f8e\u8a89
p2269
I2
sV\u5174\u56fd
p2270
I2
sV\u751f\u6d3b
p2271
I12
sV\u4e00\u7fa4
p2272
I4
sV\u4eca\u5e74
p2273
I4
sV\u53d4\u53d4
p2274
I2
sV\u5c31
I242
sV\u7ed3\u5408
p2275
I10
sV\u6781\u81f4
p2276
I2
sV\u5b8c\u6210
p2277
I12
sV\u745e\u91d1
p2278
I6
sV9
I6
sV\u6df1\u8c19\u6b64\u9053
p2279
I2
sV\u6d3b
I2
sV\u4e0d\u53ef\u907f\u514d
p2280
I6
sV\u5c55\u5f00
p2281
I4
sV\u5783\u573e
p2282
I4
sV\u82f1\u9551
p2283
I2
sV\u53ea\u80fd
p2284
I4
sV\u5143
I8
sV\u6559\u80b2
p2285
I6
sV\u5916\u56fd\u4eba
p2286
I2
sV\u5cf0\u4f1a
p2287
I36
sV\u80fd\u8a00\u5584\u8fa9
p2288
I2
sV\u57df\u540d
p2289
I4
sV\u6bd4
I26
sV\u5757
I2
sV\u606d\u4eb2\u738b
p2290
I8
sV\u8d44\u672c\u4e3b\u4e49
p2291
I2
sV\u9f99\u5357
p2292
I2
sV\u98de
I2
sV\u65e0
I2
sV\u5f88\u597d
p2293
I6
sV\u5389\u5bb3
p2294
I10
sV\u7ea2\u8089
p2295
I2
sV\u53ef\u4fe1
p2296
I8
sV\u5c71
I2
sV\u5973
I2
sV\u5728\u4e8e
p2297
I4
sV\u8001\u533a
p2298
I4
sV\u73cd\u7a00
p2299
I2
sV\u4e00\u4e0d\u5c0f\u5fc3
p2300
I2
sV\u9887\u53d7
p2301
I2
sV\u5206\u6790
p2302
I6
sV\u4e00\u5c01
p2303
I4
sV\u5185
I16
sV\u6512\u94b1
p2304
I4
sV\u8fd9\u4e48
p2305
I8
sV\u5b89
I2
sV\u623f\u95f4
p2306
I2
sV\u6bcf\u5929\u665a\u4e0a
p2307
I2
sV\u6210\u719f
p2308
I4
sV\u5f53\u6210
p2309
I2
sV\u8fa9\u8bba
p2310
I2
sV\u53d1\u6325
p2311
I24
sV\u589e\u957f\u70b9
p2312
I2
sVInternet
p2313
I2
sV\u6324\u538b
p2314
I4
sV\u53ef\u8c13
p2315
I2
sV\u6211\u4eec
p2316
I72
sV\u5b9d\u798f\u5854
p2317
I2
sV74.3
p2318
I2
sVAmtrak
p2319
I2
sV\u8bb0
I2
sV\u4e0b\u624b
p2320
I2
sV\u654c\u4eba
p2321
I10
sV\u9501\u5b9a\u76ee\u6807
p2322
I2
sV\u542c
I12
sV\u6709\u65f6
p2323
I4
sV\u6392\u961f
p2324
I2
sV\u521d\u4e2d\u751f
p2325
I2
sV\u963f\u91cc
p2326
I2
sV\u4f01\u4e1a\u5f62\u8c61
p2327
I2
sV\u597d\u5403
p2328
I2
sV\u751f\u4ea7
p2329
I2
sV\u6293\u72c2
p2330
I2
sV\u72b9\u592a\u4eba
p2331
I6
sV\u7b49\u7ea7
p2332
I2
sV\u6e29\u548c
p2333
I2
sV\u540c\u5b66
p2334
I4
sV...
p2335
I4
sV\u5f88\u9ad8
p2336
I2
sV\u76f8\u4fe1
p2337
I26
sV\u4e00\u5c4a
p2338
I2
sV\u805a\u96c6
p2339
I2
sV\u8a00\u884c
p2340
I2
sV\u8fd1
I4
sV\u4f1f\u5927
p2341
I4
sV\u957f\u77ed
p2342
I2
sV\u653f\u5e9c
p2343
I2
sV\u5ef6\u4f38
p2344
I2
sV\u56f0\u96be
p2345
I2
sV\u9edb
I2
sV\u800c\u8981
p2346
I6
sV\u591c\u91cc
p2347
I2
sV\u6e05\u9192
p2348
I2
sV\u4e70\u70b9
p2349
I2
sV\u76d6\u5b66\u4e4b
p2350
I2
sV\u6709\u70b9\u50cf
p2351
I2
sV\u8001\u7956\u5b97
p2352
I2
sV\u82f1\u56fd
p2353
I14
sV\u589e\u5229
p2354
I2
sV\u79f0\u5f97\u4e0a
p2355
I2
sV\u5229\u722a
p2356
I2
sV\u4e4b\u5357
p2357
I2
sV\u8fd9\u513f
p2358
I2
sV\u8d85\u5f3a
p2359
I2
sV\u522b\u4eba
p2360
I68
sV\u4ee5\u5916
p2361
I2
sV\u6124\u6012
p2362
I4
sV\u5929\u4e0b\u5927\u4e8b
p2363
I2
sV\u4f46\u662f
p2364
I12
sVLittle
p2365
I4
sV\u51e0\u6b21
p2366
I20
sV\u8fd9\u91cc
p2367
I36
sV\u4e0a\u4f1a
p2368
I2
sV\u63d0\u51fa
p2369
I4
sV\u6392\u6c34\u7cfb\u7edf
p2370
I2
sV\u76f4\u5954
p2371
I2
sV\u63fd\u5ba2
p2372
I2
sV\u7b2c\u516d\u671f
p2373
I2
sV\u7279\u7ea7
p2374
I2
sV\u80cc\u6295
p2375
I2
sV\u6709\u6548
p2376
I26
sV\u9965\u997f
p2377
I2
sV\u5e7f\u64ad
p2378
I2
sV\u5417
I72
sV\u89e3\u51b3\u95ee\u9898
p2379
I2
sV\u5de8\u5927
p2380
I6
sV\u600e\u6837
p2381
I4
sV\u5de8\u9f99
p2382
I2
sV\u4ef7\u683c
p2383
I10
sV\u5f53\u4eca\u4e16\u754c
p2384
I2
sV\u897f\u5317
p2385
I2
sV\u5e7f\u9614
p2386
I2
sVBrett
p2387
I10
sV\u968f\u7740
p2388
I2
sV\u8d1d\u591a\u82ac
p2389
I2
sVHallAutoWorld
p2390
I2
sV\u7701\u5374
p2391
I2
sV\u7cbe\u660e
p2392
I8
sV\u7269\u6d41
p2393
I4
sV\u5bb6\u4f19
p2394
I2
sV\u4e0a\u4f20
p2395
I8
sV\u5899\u5934
p2396
I2
sV\u9884\u4ed8\u8d39
p2397
I2
sV\u7b49
I72
sV\u4e24\u4fa7
p2398
I2
sV\u5341\u5c4a
p2399
I4
sV\u81ea\u5df1
p2400
I238
sVO
I6
sV\u53ef\u89c2
p2401
I2
sV\u7ec6\u5206
p2402
I2
sV\u8ba2\u5355\u53f7
p2403
I2
sV\u4e00\u79cd
p2404
I20
sV\u8717\u725b
p2405
I2
sV\u8bbf\u5ba2
p2406
I2
sV\u59d1\u4e14
p2407
I2
sV\u679c\u7136
p2408
I2
sV\u5ffd\u7565
p2409
I2
sV\u65e0\u8bba\u662f
p2410
I4
sV\u6beb\u65e0
p2411
I2
sV\u5356\u4e66
p2412
I2
sV\u5e73\u51e1\u4eba
p2413
I2
sV\u70c2\u820c\u5934
p2414
I2
sV\u5de8\u5956
p2415
I10
sV\u53ee
I2
sV\u514b\u91cc\u592b\u5170
p2416
I2
sV\u559c\u6b22
p2417
I14
sV\u6d88\u606f
p2418
I4
sV\u4e43\u81f3
p2419
I2
sV\u65f6\u56e0
p2420
I2
sV72
p2421
I2
sV\u5b8b\u4ee3
p2422
I4
sV\uff01
I448
sV\u8bef\u8ba4\u4e3a
p2423
I2
sV\u5b63\u7968
p2424
I2
sV\u51e0\u5e74
p2425
I2
sV\u6e38\u5ba2
p2426
I2
sV\u800c\u662f
p2427
I4
sV\u81f3\u5c11
p2428
I2
sV\u4eba\u7c7b
p2429
I2
sV\u5f53\u7136
p2430
I32
sV\u7b2c
I6
sV\u56fe\u8868
p2431
I2
sV\u5899\u989d
p2432
I2
sV\u4f5c
I2
sV\u5524\u8d77
p2433
I8
sV\u627f\u63a5
p2434
I2
sV\u57f9\u80b2
p2435
I2
sV\u524d\u65b9
p2436
I2
sV\u738b\u56fd
p2437
I8
sV\u767e\u4e8b\u53ef\u4e50
p2438
I20
sV\u6240\u6709\u4eba
p2439
I4
sV\u6240\u559c
p2440
I2
sV\u6e90\u5934
p2441
I2
sV..
p2442
I2
sV\u53cd\u590d
p2443
I2
sV\u6301\u7eed
p2444
I4
sV\u5f3a\u8c03
p2445
I4
sV\u820c\u5c16
p2446
I2
sV\u70e6\u8e81
p2447
I2
sV\u9769\u547d\u6027
p2448
I2
sV\u7fe0\u6d6a\u5854
p2449
I2
sV\u6d77\u9c9c
p2450
I2
sV\u6beb\u65e0\u7591\u95ee
p2451
I4
sV\u4f19\u4f34
p2452
I6
sV\u5de5\u4f5c\u4eba\u5458
p2453
I2
sV\u7740
I48
sV\u9752\u85cf\u9ad8\u539f
p2454
I2
sV\u6765\u5b66
p2455
I2
sV\u4e24\u4e2a
p2456
I2
sV\u987f\u65f6
p2457
I2
sV\u654c
I2
sV\u8d85\u5e02
p2458
I24
sV\u4fc3\u8fdb
p2459
I2
sV\u8fd8\u7ed9
p2460
I2
sV\u62bd\u6c34\u9a6c\u6876
p2461
I2
sV\u7537\u751f
p2462
I2
sV\u96ea\u9505
p2463
I4
sV\u575a\u6301\u5230\u5e95
p2464
I2
sV\u4f46\u6709
p2465
I2
sV\u505a
I110
sV\u591c\u665a
p2466
I2
sV\u5927\u95e8
p2467
I2
sV\u4e00\u5339
p2468
I4
sV\u5efa\u6709
p2469
I2
sV\u4efb\u4f55
p2470
I6
sV\u4e66
I2
sV\u80cc\u540e
p2471
I22
sV\u6b20\u4e0b
p2472
I2
sV\u671f\u95f4
p2473
I4
sV....
p2474
I4
sV\u9009\u624b
p2475
I2
sV\u4e4b\u524d
p2476
I6
sV\u4e5d\u5be8
p2477
I2
sV\u4ed8\u51fa
p2478
I4
sV\u4e1a\u4f59\u65f6\u95f4
p2479
I4
sVz
I2
sV110
p2480
I2
sV\u4e00\u6bb5\u8bdd
p2481
I2
sV\u501f\u9274
p2482
I2
sV\u660e\u663e
p2483
I4
sV\u5e86
I2
sV\u56de\u987e\u5386\u53f2
p2484
I2
sV\u906d
I2
sV\u5168\u65b0
p2485
I22
sV\u56db\u5b63
p2486
I2
sV\u5fc3\u60a6\u8bda\u670d
p2487
I2
sV\u6279\u8bc4
p2488
I2
sVTo
p2489
I2
sV\u4e13\u95e8
p2490
I4
sV\u4f9d\u7a00
p2491
I2
sV\u5219
I28
sV\uff1b
I46
sV\u4e9a\u9a6c\u900a
p2492
I10
sV\u4e00\u70b9
p2493
I2
sV\u6d41\u4f20
p2494
I20
sV\u8282\u7ea6
p2495
I4
sV\u738b\u5c4b
p2496
I2
sV%
I14
sV\u70e9\u83dc
p2497
I2
sV\u4e3e\u529e
p2498
I20
sV\u60a0\u4e45
p2499
I2
sV\u79f0\u91cd
p2500
I2
sV\u4f18\u60e0
p2501
I8
sV\u6307\u5bfc
p2502
I2
sV\u6269\u5c55
p2503
I4
sV\u98de\u62b5
p2504
I2
sV\u4ea4\u6d41
p2505
I6
sV\u53d6\u51fa
p2506
I2
sV\u5e2e\u4eba
p2507
I2
sV\u542c\u5230
p2508
I2
sVSqueeze
p2509
I4
sV\u611f\u8a00
p2510
I2
sV\u96be\u5904
p2511
I2
sV\u7adf\u6562
p2512
I2
sV\u72ec\u7279
p2513
I12
sV\u7262
I2
sV\u53ec\u5f00
p2514
I4
sV\u7ec6
I2
sV\u5341\u516d\u5c81
p2515
I2
sV\u4e00\u7ea7
p2516
I2
sV\u65d7\u4e0b
p2517
I44
sV\u652f\u6301
p2518
I2
sV\u7ffb\u627e
p2519
I2
sV\u8fd1\u4ee3
p2520
I2
sV\u62db\u6570
p2521
I2
sV\u8fdb\u4e00\u6b65
p2522
I2
sV\u76d6
I4
sV\u76ee\u7684\u5730
p2523
I6
sV\u5f71\u54cd
p2524
I12
sV\u6709\u65f6\u5019
p2525
I2
sV\u60f3\u5fc5
p2526
I2
sV\u5b66\u5b50
p2527
I2
sV\u6709\u6ca1\u6709
p2528
I2
sV\u6323\u624e
p2529
I2
sV\u9ed1\u80e1\u6912
p2530
I2
sV\u8bd5\u8bd5
p2531
I2
sV\u6211\u4f1a
p2532
I2
sV\u8fd9\u70b9
p2533
I2
sV2000
p2534
I4
sV\u4e00\u5207\u90fd\u662f
p2535
I4
sV2006
p2536
I2
sV\u8de8\u884c
p2537
I2
sV2005
p2538
I2
sV\u6279
I2
sV\u6447\u7bee
p2539
I8
sV\u5a31\u4e50\u6d3b\u52a8
p2540
I2
sV\u64ce\u5929\u67f1
p2541
I2
sV\u884c\u4e1a
p2542
I4
sV\u4e66\u7c4d
p2543
I4
sV\u505a\u751f\u610f
p2544
I8
sV\u7edf\u7edf
p2545
I2
sV\u4e00\u5206
p2546
I4
sV\u4e00\u5207
p2547
I14
sV\u6ce1\u6ce1\u5802
p2548
I2
sV\u9003\u4e0d\u8fc7
p2549
I2
sV\u6c34
I2
sV\u6de1\u5b63
p2550
I2
sV\u4e8f
I6
sV\u9020\u50cf
p2551
I2
sV\u53d1\u8d27
p2552
I2
sV\u5916
I4
sV\u54a8\u8be2
p2553
I6
sV\u5165\u8ff7
p2554
I2
sV\uff1a
I320
sV\u5d07\u4e49
p2555
I2
sV\u5546\u4e1a\u6a21\u5f0f
p2556
I2
sV\u4e0d\u5b89
p2557
I2
sV\u770b\u7740
p2558
I4
sV\u8f6c\u6362
p2559
I4
sV\u4e24
I4
sVBusiness
p2560
I2
sV\u6240\u4ee5
p2561
I10
sV\u6765\u81ea
p2562
I2
sV\u7535\u5f71
p2563
I4
sV\u7ef4\u4fee
p2564
I2
sV\u5956\u52b1
p2565
I12
sV\u8d44\u6599
p2566
I2
sV\u4f8b\u5b50
p2567
I10
sV\u7092\u5300
p2568
I2
sV\u8f6f\u6ed1
p2569
I2
sV\u56e2\u961f
p2570
I6
sV\u5e0c\u671b
p2571
I8
sV\u5854\u514b
p2572
I22
sV\u8d70\u5411
p2573
I2
sV\u6b63\u662f
p2574
I10
sV\u4e00\u7247
p2575
I4
sV\u52c7
I2
sV\u5146
I2
sV\u8131\u9896\u800c\u51fa
p2576
I4
sV\u8bcd
I2
sV\u8f93\u5bb6
p2577
I20
sVP
I2
sV\u5b89\u8e0f
p2578
I2
sVRadioShack
p2579
I2
sV\u7b5b\u9009
p2580
I2
sV\u5f00\u5230
p2581
I2
sV\u8bb0\u4f4f
p2582
I6
sVCharlotte
p2583
I20
sV\u56db\u4e2a
p2584
I2
sV\u6c99\u6d32
p2585
I2
sV\u9ad8\u7aef
p2586
I2
sV\u68a6\u4e61
p2587
I2
sV\u770b\u770b
p2588
I38
sV\u4e00\u526f
p2589
I4
sV\u97f5
I2
sV\u963f\u4e07\u4ed3
p2590
I2
sV\u6e38\u6cf3
p2591
I4
sV\u65b0\u6d6a
p2592
I8
sV\u65f6\u5019
p2593
I34
sV\u5145\u5206\u5229\u7528
p2594
I2
sV\u4e94\u4e94\u5206
p2595
I2
sV\u9875\u9762
p2596
I2
sV\u661f\u671f
p2597
I4
sV\u5207
I2
sV\u5341\u5206
p2598
I8
sV\u5e03\u4ec0
p2599
I4
sV\u575a\u6301
p2600
I6
sV\u4e86\u5982\u6307\u638c
p2601
I4
sV\u7279\u70b9
p2602
I4
sV\u8bbf\u95ee
p2603
I4
sV\u54c8\u54c8
p2604
I4
sV\u73b0\u91d1
p2605
I2
sV\u4eab\u53d7
p2606
I2
sV\u8bbe\u8ba1
p2607
I2
sV\u57c3\u83f2\u5c14\u94c1\u5854
p2608
I2
sV\u514d\u8d39
p2609
I24
sV\u751f\u6001
p2610
I14
sV\u5e08\u5085
p2611
I4
sV\u4e00\u7edf
p2612
I2
sV\u65b9\u6848
p2613
I10
sV\u56fd\u5916
p2614
I4
sV\u8bc6\u65f6\u52a1\u8005
p2615
I6
sV\u773c\u9ad8\u624b\u4f4e
p2616
I2
sV\u4eba\u7701
p2617
I2
sV\u592a\u884c
p2618
I2
sV\u5b69\u5b50
p2619
I2
sV\u91cc\u5947\u8499
p2620
I20
sV\u8d39
I2
sV;
I4
sV\u957f\u5904
p2621
I8
sV\u8fd8\u4e0a
p2622
I2
sV\u611f\u8c22
p2623
I2
sV\u8db3\u4ee5
p2624
I2
sV\u7406\u5de5
p2625
I6
sV\u5e26\u5230
p2626
I2
sVMotorola
p2627
I2
sV\u9ec4
I2
sV\u51c6
I2
sV\u8001\u5e08
p2628
I112
sVReebok
p2629
I20
sV\u7eff\u67f3
p2630
I2
sV\u955c\u5934
p2631
I2
sV\u91d1\u77ff
p2632
I2
sV\u9752\u5c71\u7eff\u6c34
p2633
I2
sV\u5343\u91cc
p2634
I2
sV\u6b8b\u513f
p2635
I2
sV\u5174\u5b81
p2636
I2
sV\u8bfe\u9898
p2637
I6
sV\u966a\u846c
p2638
I2
sV\u534e\u5c71
p2639
I2
sV\u4ee4
I8
sV\u6b7b\u9a6c\u5f53\u6d3b\u9a6c\u533b
p2640
I2
sV\u5fae\u8f6f
p2641
I4
sV\u9996\u63a8
p2642
I2
sV31
p2643
I2
sV30
p2644
I4
sV\u6253
I2
sV\u5dee
I4
sV\u7530\u87ba
p2645
I2
sV\u53f2
I2
sV3.
p2646
I6
sV\u516d\u56fd
p2647
I2
sV\u85cf\u7352
p2648
I26
sV\u5fc3\u7075
p2649
I2
sV\u5927\u800c\u5168
p2650
I2
sV\u5927\u5bb6
p2651
I18
sV\u53e4\u8bad
p2652
I4
sV\u7387
I22
sV\u8b66\u65b9
p2653
I4
sV842.78
p2654
I2
sV\u6750\u6599
p2655
I2
sV\u9876\u5cf0
p2656
I2
sV\u4e00\u6b65\u767b\u5929
p2657
I2
sV\u9014\u4e2d
p2658
I2
sV\u8fd0\u4f5c
p2659
I4
sV\u7b97
I4
sVBuschGar
p2660
I2
sV\u5e05
I2
sV\u9633\u5173\u5927\u9053
p2661
I2
sV\u7a00\u571f
p2662
I4
sV\u51e0\u767e\u4e07
p2663
I4
sV\u674e\u5609\u8bda
p2664
I4
sV\u4e03\u5f69
p2665
I4
sV\u7af9\u5df7
p2666
I2
sV\u5e74\u8f7b
p2667
I2
sV\u5f20\u5f00\u5de8
p2668
I2
sV\u2026
I16
sV\u8fdc\u79bb
p2669
I2
sV\u80fd\u529b
p2670
I16
sV\u6c34\u82b1
p2671
I2
sV\u7167\u7247
p2672
I6
sV\u53e4\u6c11\u5c45
p2673
I2
sVPomoco
p2674
I2
sV\u52a0\u5f3a
p2675
I2
sV\u6bb7
I2
sV\u5f97\u5230
p2676
I10
sV\u4e00\u533a
p2677
I2
sV\u6446\u51fa
p2678
I2
sV\u517c\u804c
p2679
I6
sV\u4e3a
I78
sV\u4efb\u610f
p2680
I2
sV\u6697\u793a
p2681
I2
sVPayPal
p2682
I2
sV\u5f00\u5934
p2683
I2
sV\u4e16\u754c\u5404\u5730
p2684
I4
sV\u4e00\u534a
p2685
I4
sV\u4ece\u6b64
p2686
I2
sV\u4ebf\u7f8e\u91d1
p2687
I20
sV\u82e6\u607c
p2688
I2
sV\u770b\u4e0d\u4e0a
p2689
I4
sV\u5fae\u5927
p2690
I2
sV\u76f8\u5f53
p2691
I2
sV\u90d1\u6b63
p2692
I2
sV\u7968\u636e
p2693
I2
sV\u65b0\u9c9c
p2694
I2
sV\u5929\u4e0a\u6389
p2695
I2
sV\u52df\u6350
p2696
I2
sV\u5b66\u95ee
p2697
I2
sV\u65e0\u80fd
p2698
I2
sVYY
p2699
I2
sV\u4ee5
I68
sV\u955c\u53f0
p2700
I2
sV\u8425\u9500\u5546
p2701
I4
sV\u4e24\u8005
p2702
I4
sV\u665a\u971e
p2703
I2
sV\u6ee1\u610f
p2704
I2
sV\u8d85\u503c
p2705
I2
sV\u6c5f\u5357
p2706
I10
sV\u77e5\u9053
p2707
I54
sV\u8bf7
I14
sVof
p2708
I4
sV\u5371\u9669
p2709
I4
sV\u8f6f\u4ef6
p2710
I6
sV\u7f51\u53cb
p2711
I4
sV\u4efb\u4f55\u4eba
p2712
I14
sV\u661f\u661f
p2713
I2
sV\u4e0d\u8c61
p2714
I2
sV\u5440
I2
sV\u54e5\u54e5
p2715
I2
sV\u5916\u90e8\u73af\u5883
p2716
I2
sV\u751f\u610f
p2717
I18
sV\u8fdc\u5904
p2718
I2
sV\u5927\u56f4
p2719
I2
sV\u81ea\u52a8
p2720
I10
sV\u81ea\u52a9
p2721
I4
sV\u8d77\u5230
p2722
I2
sV\u6811\u836b
p2723
I2
sV\u5f97\u529b
p2724
I2
sV\u6240\u6709\u8005
p2725
I6
sV\u4e00\u8f88\u5b50
p2726
I2
sV\u5982\u6c90\u6625\u98ce
p2727
I2
sV\u5927\u7b14
p2728
I2
sV\u592a\u5c11\u592a
p2729
I2
sV\u5403\u8d27
p2730
I6
sV\u4e0d\u9053\u5fb7
p2731
I2
sV\u540c\u5b66\u4eec
p2732
I2
sV\u6df1\u523b
p2733
I2
sV\u56de\u5934\u5ba2
p2734
I4
sV\u5b66\u751f
p2735
I2
sV\u8fdc\u5927
p2736
I2
sV\u80fd\u5206
p2737
I2
sVKFC
p2738
I20
sV\u89c1\u72b6
p2739
I2
sV\u4eba
I136
sV\u5409\u7965
p2740
I2
sV\u5927\u591a\u6570
p2741
I2
sV\u8df3\u8fdb\u6765
p2742
I2
sV\u70f9\u996a
p2743
I2
sV\u751a\u4e3a
p2744
I2
sV\u5347
I4
sV\u4ec5\u4ec5
p2745
I4
sV\u90ae\u7bb1\u5730\u5740
p2746
I2
sV\u5e97\u91cc
p2747
I2
sV\u4e13\u5bb6
p2748
I18
sV\u4f4f
I2
sV\u5927\u5b66
p2749
I2
sV\u5c71\u59c6
p2750
I2
sV\u574f\u4e8b
p2751
I2
sV\u798f\u5730
p2752
I2
sV\u60f3\u51fa
p2753
I42
sV\u5bf9\u624b
p2754
I8
sVApple
p2755
I2
sV\u6367
I2
sV\u4e00\u53e5
p2756
I2
sV\u4e00\u53ea
p2757
I12
sV\u66f4\u662f
p2758
I22
sV\u5f52
I2
sV\u5e76\u4e14
p2759
I4
sVSalisbury
p2760
I20
sV\u9876\u5c16
p2761
I10
sV\u771f\u6b63
p2762
I18
sV\u5973\u90ce
p2763
I2
sV\u7b2c\u5341\u4e8c
p2764
I2
sV\u56fd\u5bb4
p2765
I2
sV\u7279\u522b
p2766
I12
sV\u56fd\u5bb6
p2767
I18
sV\u7f8e\u4e3d
p2768
I2
sV\u5c0f\u5b69
p2769
I2
sV\u5b9a\u4f4d
p2770
I6
sV\u5f3a
I2
sV\u5c0f\u5b66
p2771
I20
sV\u81ea\u7136
p2772
I8
sV\u56fa\u6267
p2773
I2
sV\u5ca9
I8
sV\u5982\u4e0b
p2774
I4
sV\u6210
I22
sV\u53ef\u601c
p2775
I2
sV\u4e91\u7aef
p2776
I2
sV\u652f\u4ed8
p2777
I26
sV\u7b2c\u5341\u4e94
p2778
I2
sV\u529b
I2
sV\u611f\u60c5
p2779
I2
sV\u7279\u5236
p2780
I2
sV\u5927\u7897
p2781
I2
sV\u4e3a\u540d
p2782
I20
sV\u4e0d\u8fc7
p2783
I10
sV\u535a
I24
sV\u8868\u683c
p2784
I2
sV\u5ba2\u5c42
p2785
I2
sV\u91c7\u8bbf
p2786
I2
sV\u60f3\u5230
p2787
I4
sV\u7ed3\u7b97
p2788
I2
sV\u67d4\u9053
p2789
I6
sV\u5230
I80
sV\u653e\u4e0a
p2790
I2
sV\u6b3a\u8d1f
p2791
I2
sV\u8fb9
I4
sV\u6e38
I4
sV\u5927\u96e8
p2792
I2
sV2011
p2793
I4
sV\u5b88\u62a4
p2794
I2
sV\u9012\u9001
p2795
I2
sV\u7ec3
I2
sVCaesars
p2796
I4
sV\u843d\u5230
p2797
I2
sV\u6548\u679c
p2798
I6
sV\u5fae\u6ce2\u7089
p2799
I2
sV\u554a
I16
sV\u6700\u4f4e
p2800
I2
sV\u63e3\u5ea6
p2801
I2
sV\u4f4e
I4
sV\u4e00\u9053
p2802
I2
sV\u4eb2\u5bc6
p2803
I2
sViPhone
p2804
I2
sV\u6bd4\u8428
p2805
I8
sV\u7b56
I2
sV\u589e\u503c
p2806
I2
sV\u8d5a\u53d6
p2807
I2
sV\u65f6\u523b
p2808
I22
sV\u89c4\u5212
p2809
I4
sV\u79e6\u59cb\u7687
p2810
I2
sV\u6842\u82b1
p2811
I2
sVSam
p2812
I2
sV\u6668
I2
sVDillard
p2813
I2
sV\u4e3b\u529e
p2814
I2
sV\u4f5c\u8005
p2815
I8
sVGary
p2816
I2
sV\u514b\u91cc\u65af\u591a\u4f5b
p2817
I2
sV\u6d77\u76d0\u53bf
p2818
I2
sV\u539f\u6765
p2819
I14
sV\u5de8\u5bcc
p2820
I2
sV\u6bcd\u4eb2\u8282
p2821
I40
sV\u677e
I2
sV\u4eca\u5929\u4e0a\u5348
p2822
I2
sV\u51fa\u5dee
p2823
I4
sV\u5982
I4
sV\u591a\u4e48
p2824
I2
sV\u5927\u56db
p2825
I2
sV\u558a
I2
sV\u9053\u5bb6
p2826
I2
sV\u8fc7\u9519
p2827
I4
sV\u751f\u6210
p2828
I2
sV\u4f5c\u6587
p2829
I2
sV\u9001
I2
sV\u5df4\u585e\u7f57\u90a3
p2830
I2
sV\u70d8\u70e4
p2831
I2
sV83
p2832
I2
sV\u9884\u6d4b
p2833
I2
sV\u6df1
I2
sV\u9650\u91cf\u4f9b\u5e94
p2834
I2
sV\u4e0d\u4f46
p2835
I6
sV'
I6
sV\u901e\u4e00\u65f6\u4e4b
p2836
I2
sV\u5730\u533a
p2837
I2
sV\u5fae
I22
sV\u51b2
I2
sV\u751f\u957f
p2838
I2
sV\u6469\u6258\u7f57\u62c9
p2839
I2
sV\u5fc3\u7231
p2840
I2
sV\u5750\u7b49
p2841
I2
sV\u51e0\u6761
p2842
I2
sV\u6216\u8005
p2843
I8
sV\u53cd\u8fc7\u6765
p2844
I20
sV\u5f20
I4
sV\u4e39\u971e
p2845
I2
sV\u884c
I2
sV1520993191
p2846
I2
sV\u5982\u4eca
p2847
I2
sV\u7b2c\u5341\u4e5d
p2848
I2
sV\u6700\u8fd1
p2849
I50
sV\u6e56\u7554
p2850
I2
sV\u725b
I2
sV\u529b\u91cf
p2851
I18
sV\u94fe\u63a5
p2852
I6
sV\u529f\u80fd
p2853
I14
sV\u4fbf\u5b9c
p2854
I4
sV\u4e00\u7c7b
p2855
I2
sV\u4e00\u90e8
p2856
I2
sV\u53ef\u80fd
p2857
I50
sV\u65f6\u673a\u6210\u719f
p2858
I2
sV\u9891\u7387
p2859
I2
sV\u8ffd\u6c42
p2860
I2
sV\u5403\u6c34
p2861
I2
sV\u8131\u80ce
p2862
I2
sV\u4e0d\u4f1a
p2863
I14
sV\u5802
I4
sV\u9ad8\u798f
p2864
I2
sV\u5bf9\u4e0d\u8d77
p2865
I2
sV\u6536\u8d27
p2866
I2
sVPerdue
p2867
I2
sV\u4e0e
I64
sV\u8d26\u53f7
p2868
I2
sVProgram
p2869
I2
sV\u8d22\u653f\u6536\u652f
p2870
I2
sV\u5e74\u9f84
p2871
I2
sV\u4e0b\u8f7d
p2872
I8
sV\u4e0d\u4ec5
p2873
I8
sV\u4e50\u89c2
p2874
I2
sV\u5c0f\u83dc\u4e00\u789f
p2875
I2
sVCLlCKBANK
p2876
I40
sV\u6b22\u8fce
p2877
I4
sV\u5e73\u5b89
p2878
I2
sV\u8425\u9500
p2879
I64
sV\u597d\u591a
p2880
I24
sV\u597d\u5904
p2881
I22
sVtime
p2882
I2
sV\u6700\u4e3a
p2883
I20
sV\u7164\u6c14
p2884
I2
sV\u7eb8\u4e0a\u8c08\u5175
p2885
I6
sV\u4f01\u56fe
p2886
I2
sV\u8ba2\u8d27
p2887
I4
sV\u9876\u7ea7
p2888
I6
sV\u597d\u597d
p2889
I2
sV\u8ba2\u8d2d
p2890
I6
sV\u544a
I2
sV\u6bb5\u65f6\u95f4
p2891
I2
sV\u5341\u91cc
p2892
I4
sV\u76ee\u6807
p2893
I2
sV\u5982\u4f55
p2894
I34
sV\u914d\u4ef6
p2895
I2
sV\u8f6c\u6012
p2896
I2
sV\u817e\u8baf
p2897
I2
sV\u7ed9
I52
sV\u6cb9\u6761
p2898
I8
sVeBay
p2899
I2
sV\u7b2c\u4e09\u65b9
p2900
I10
sV\u82b1\u94b1
p2901
I2
sV\u98ce\u6c34\u5b9d\u5730
p2902
I2
sV\u4ee5\u540e
p2903
I10
sVOMG
p2904
I2
sV\u5546\u5bb6
p2905
I10
sV\u7701\u7ea7
p2906
I4
sV\u8dcc\u4ef7
p2907
I4
sV\u5fae\u8f6f\u7684
p2908
I2
sV\u8d63\u5357
p2909
I8
sV\u5982\u6f6e
p2910
I2
sV\u5374\u662f
p2911
I2
sV\u53d8\u76f8
p2912
I2
sV\u6768\u7b60\u677e
p2913
I2
sV\u665a\u95f4
p2914
I2
sV\u8c0b\u751f
p2915
I2
sV\u54ea\u4e9b
p2916
I2
sV\u4e07\u4ebf\u5143
p2917
I8
sV\u7279\u5356
p2918
I6
sV\u8d35\u5bbe\u5361
p2919
I20
sV\u65b0\u6e90
p2920
I20
sV\u5927\u5934
p2921
I4
sVAAA
p2922
I2
sV\u641c\u72d0
p2923
I2
sV\u7535\u5b50\u4e66
p2924
I36
sV\u5de6\u8fb9
p2925
I2
sV\u65c5\u9986
p2926
I2
sV\u4e9a\u70ed\u5e26
p2927
I2
sV\u8bf7\u6765
p2928
I2
sV\u751f\u610f\u4eba
p2929
I2
sV\u6211
I106
sV\u7f8e\u56fd\u94f6\u884c
p2930
I22
sV\u5e94\u7528
p2931
I2
sV\u4e00\u4e9b
p2932
I20
sV\u8db3\u591f
p2933
I4
sV\u5fc5\u5f97
p2934
I2
sV\u5df2\u7ecf
p2935
I34
sV\u4e92\u52a8
p2936
I2
sV\u81ea\u4fe1\u5fc3
p2937
I2
sV\u751f
I2
sV\u6668\u62a5
p2938
I2
sV\u7ffb\u7092
p2939
I2
sV\u6d88\u8d39
p2940
I30
sV\u9898\u523b
p2941
I2
sV4000
p2942
I2
sV\u5047\u8bbe
p2943
I2
sV\u63a8\u8350
p2944
I20
sV\u516c\u56ed
p2945
I2
sV\u7231
I2
sV\u4e2d\u95f4
p2946
I2
sV\u8bef\u5bfc
p2947
I2
sV\u8bc4\u8bba
p2948
I4
sV=
I28
sV\u4f20\u7edf
p2949
I16
sV\u51cf\u5c11
p2950
I2
sV\u4e09\u672c
p2951
I2
sV\u5269\u4f59
p2952
I2
sV\u5efa\u8bae
p2953
I4
sV\u51ed\u7740
p2954
I2
sV\u7f9a\u7f8a
p2955
I2
sV\u4fe1\u4ef0
p2956
I2
sV\u575f\u5893
p2957
I2
sV\u8f7b\u677e
p2958
I28
sVTrak
p2959
I2
sV\u4ece
I40
sV\u6251
I2
sV\u63d0
I2
sV\u89c2\u4f17
p2960
I2
sV\u5c3d\u7ba1
p2961
I4
sV\u5199\u4f5c
p2962
I2
sV\u9532\u800c\u4e0d\u820d
p2963
I4
sV\u7ecf\u5178
p2964
I2
sV\u5fd8
I6
sV\u8f83\u5c11
p2965
I4
sVAbraham
p2966
I2
sV\u4ece\u5934
p2967
I4
sVGodiva
p2968
I40
sV\u56de
I4
sV\u6a31\u82b1
p2969
I2
sV\u7f57\u5217
p2970
I4
sVdens
p2971
I2
sV\u9762\u524d
p2972
I2
sV\u521b\u529e\u8005
p2973
I2
sV\u5f55\u5236
p2974
I4
sV\u96f6\u552e\u4e1a
p2975
I2
sV\u6e29\u6cc9
p2976
I2
sV\u6982\u5ff5
p2977
I8
sV\u611f\u67d3\u529b
p2978
I2
sV\u4eba\u5458
p2979
I2
sV\u95f4
I2
sV\u4e1a\u4e3b
p2980
I2
sV\u4e2d\u7aef
p2981
I2
sV\u653e\u8fc7
p2982
I20
sV\u5317\u5361\u7f57\u83b1\u7eb3\u5dde
p2983
I20
sV\u6c34\u679c
p2984
I2
sV\u57f9\u8bad
p2985
I2
sV\u5b81\u6ce2
p2986
I4
sV\u6210\u4e3a
p2987
I24
sV\u4e0d\u5149
p2988
I4
sV\u5077\u88ad
p2989
I2
sV\u6e56
I4
sV\u4e54\u5e03\u65af
p2990
I4
sV\u81ea\u6cbb\u5dde
p2991
I2
sV\u53e4\u4eba
p2992
I2
sV\u5e97
I4
sV\u9999
I2
sV\u5357\u660c\u5e02
p2993
I2
sVCNNI
p2994
I2
sV\u53d1\u5927\u8d22
p2995
I2
sV\u529f
I20
sV\u524d\u4eba
p2996
I2
sV\u53ef\u662f
p2997
I16
sV\u7fa4\u91cc
p2998
I2
sV\u65c5\u6e38\u5c40
p2999
I4
sV\u4f1a\u4ee4
p3000
I4
sV(
I16
sV\u6839\u636e
p3001
I4
sV\u672c\u8eab
p3002
I6
sV\u535a\u5ba2
p3003
I20
sV\u9985\u997c
p3004
I2
sVCelebrityCruises
p3005
I2
sV\u673a\u4f1a
p3006
I56
sV180.32
p3007
I2
sV2012
p3008
I10
sV\u65b9\u6cd5
p3009
I6
sV\u88c5\u7532
p3010
I6
sV\u53e0\u7fe0
p3011
I2
sV\u8bf4\u6cd5
p3012
I2
sV\u679c\u5b9e
p3013
I2
sV\u5546\u4e1a
p3014
I10
sV\u53d1\u751f\u5730
p3015
I2
sV\u4e4c
I22
sV\u4eba\u53e3
p3016
I6
sV\u6355\u6349\u5230
p3017
I2
sV\u79df\u8f66
p3018
I4
sV\u5f88\u70c2
p3019
I4
sV\u505a\u6cd5
p3020
I78
sV\u62a5\u4ef7
p3021
I4
sV\u53d1\u73b0\u81ea\u5df1
p3022
I2
sVsClub
p3023
I2
sV\u53e3\u888b
p3024
I2
sV\u4ece\u6765\u4e0d
p3025
I2
sV\u4e0d\u8981
p3026
I24
sV\u8b66\u60d5
p3027
I2
sV\u725b\u6742
p3028
I2
sV\u7406\u5ff5
p3029
I2
sV\u535a\u58eb
p3030
I2
sV\u6f02\u6d41
p3031
I2
sV\u5f55\u4e0b\u6765
p3032
I2
sV\u5fc5\u4e0d\u53ef\u5c11
p3033
I2
sV\u8089\u672b
p3034
I4
sV\u5b57\u8d34
p3035
I4
sV\u4e91\u9704
p3036
I2
sV\u5fc5\u987b
p3037
I14
sV\u4e13\u9898
p3038
I2
sV\u64cd\u4f5c
p3039
I2
sV\u63a5\u53d7
p3040
I6
sV\u62c5\u62c5\u9762
p3041
I4
sV\u8f6c\u673a
p3042
I2
sV\u62ff
I26
sV\u5206\u6210
p3043
I2
sV\u539f\u6709
p3044
I2
sV\u5b9d\u8d1d
p3045
I2
sV\u516c\u91cc
p3046
I2
sV\u7e41\u6b96
p3047
I2
sV\u4e8c
I2
sV\u4e16\u754c\u7ea7
p3048
I4
sV\u6253\u7262
p3049
I4
sV\u89c4\u5212\u5e08
p3050
I2
sV\u5ba2\u6237\u7fa4
p3051
I2
sV\u9a6c\u8328
p3052
I2
sV\u6210\u4ea4
p3053
I8
sV\u51ed\u501f
p3054
I2
sV\u5931\u4e1a\u7387
p3055
I2
sV\u5b9d\u8d35
p3056
I10
sVPS
p3057
I2
sV\u589e\u52a0
p3058
I2
sV\u4f9d\u7136
p3059
I4
sV\u9762\u8c8c
p3060
I2
sV\u7ba1\u7406
p3061
I6
sV\u60a8
I44
sV\u67af\u71e5
p3062
I2
sV\u5168\u56fd
p3063
I4
sV\u7eb3\u95f7
p3064
I2
sV\u56de\u5bb6
p3065
I2
sV\u7531
I12
sVPC
p3066
I4
sV\u521b\u9020
p3067
I20
sV\u8d28\u91cf
p3068
I2
sV\u54b8\u9c9c
p3069
I2
sV\u80a1\u7968
p3070
I4
sV\u6cd5\u6587
p3071
I2
sV\u7a7a\u60f3
p3072
I2
sV\u53ea\u8981
p3073
I12
sV\u52aa\u529b\u5b66\u4e60
p3074
I2
sV\u767e\u6218\u4e0d\u6b86
p3075
I2
sV\u53ef\u4ee5\u653b\u7389
p3076
I4
sV\u503c\u5f97
p3077
I8
sV\u5149
I24
sV\u53ca
I10
sV\u4f4d
I4
sV\u4e00\u76d2
p3078
I20
sV\u7af9
I2
sV\u70ed\u5356
p3079
I20
sV3.94
p3080
I2
sV\u5076\u7136
p3081
I2
sV\u526f\u7701\u957f
p3082
I2
sV\u4e00\u76d8
p3083
I2
sV\u575d
I2
sV\u65e0\u6cd5\u6bd4\u62df
p3084
I4
sV\u53e5
I2
sV\u53d1\u90ae\u4ef6
p3085
I2
sV\u5c0f\u7537\u5b69
p3086
I6
sV\u4e0d\u53ef\u601d\u8bae
p3087
I4
sV\u5212\u5f52
p3088
I2
sV\u5546\u4eba
p3089
I4
sV\u4e0a\u53bb
p3090
I2
sV\u7cfb\u7edf
p3091
I22
sV\u6307\u70b9
p3092
I2
sV\u5438\u5f15\u529b
p3093
I4
sV\u8089\u9171
p3094
I2
sV\u7011\u5e03
p3095
I6
sV\u8fd9\u6837
p3096
I72
sV\u4e00\u76f4
p3097
I4
sV\u4e00\u5e74\u7ea7
p3098
I20
sV\u4e8b\u4e1a
p3099
I24
sV\u5907\u7528
p3100
I2
sV\u628a\u63e1
p3101
I20
sV\u8fd9\u5bb6
p3102
I2
sV\u5c81
I4
sV\u6709\u798f\u6c14
p3103
I2
sV\u73b0\u6210
p3104
I2
sV\u5e02
I22
sV\u53cc\u8d62
p3105
I4
sVcn
p3106
I2
sV\u533a\u522b
p3107
I6
sVDVD
p3108
I2
sV\u5fc5\u5907
p3109
I6
sV\u5c06\u519b
p3110
I2
sV\u592a\u591a\u592a\u591a
p3111
I2
sV\u4ea7\u4e1a
p3112
I2
sV\u4e2d\u5357
p3113
I6
sV\u996d\u9986
p3114
I2
sV\u8c08
I2
sV\u5f97
I52
sV\u6e7f\u6da6
p3115
I2
sV\u671f\u5f85
p3116
I2
sV\u670b\u53cb
p3117
I4
sV\u5171\u540c
p3118
I6
sV\u542c\u9898
p3119
I2
sV\u6ca1
I30
sV\u4e22
I2
sV\u8981\u6765
p3120
I2
sV\u6d88\u8d39\u8005
p3121
I68
sV\u4eae\u70b9
p3122
I2
sV\u8d22\u5bcc
p3123
I10
sV\u51fa\u73b0
p3124
I2
sV\u533a\u5206
p3125
I2
sV\u5174\u5e73
p3126
I2
sV\u6218\u7565
p3127
I4
sV\u94b1
I42
sV\u7edf\u8ba1
p3128
I2
sV\u6240\u8bf4
p3129
I2
sV\u4e00\u573a
p3130
I20
sV\u8116\u5b50
p3131
I2
sV\u8d5a\u94b1
p3132
I34
sV\u4e00\u773c
p3133
I2
sV\u597d\u798f\u6c14
p3134
I2
sV\u65e5\u672c
p3135
I4
sV\u6709\u4e9b
p3136
I10
sV\u5148
I4
sV\u5dee\u5f02
p3137
I2
sV\u963f\u5e03\u624e\u6bd4
p3138
I2
sV\u7eff\u8272
p3139
I2
sV\u83b7\u5229
p3140
I12
sVNations
p3141
I20
sV2015
p3142
I6
sV\u770b\u5230
p3143
I28
sV\u4fdd\u6301
p3144
I8
sV\u80dc\u5229
p3145
I2
sV\u611f\u89c9
p3146
I6
sV\u53d1\u8868
p3147
I8
sV\u540d\u4eba
p3148
I2
sV\u6709\u4eba
p3149
I30
sV\u8bb2\u8ff0
p3150
I4
sV\u6389
I2
sV\u4e0d\u65ad\u8fdb\u6b65
p3151
I2
sV\u6743\u5a01\u6027
p3152
I2
sV\u4ecb\u7ecd
p3153
I10
sV\u641c\u7d22\u5f15\u64ce
p3154
I6
sV\u6240\u8bb2
p3155
I2
sV\u8857\u5934
p3156
I4
sV\u7ba1\u7406\u5458
p3157
I2
sV\u5374
I64
sV\u51a0\u519b
p3158
I22
sV\u751f\u65e5
p3159
I2
sVBlockbuster
p3160
I2
sV\u91d1\u724c
p3161
I2
sV~
I8
sV\u690d\u5165
p3162
I2
sV\u5c01\u6740
p3163
I4
sV\u5343\u4e07\u522b
p3164
I2
sV\u6e56\u5149\u5c71\u8272
p3165
I2
sV\u7ba1\u7528
p3166
I2
sV\u5f15\u8d77
p3167
I2
sV\u4e0d
I170
sV\u5730\u5730\u9053\u9053
p3168
I4
sV\u60ca\u9669
p3169
I2
sV\u8001\u5b50
p3170
I2
sV\u63a0\u5f71
p3171
I2
sV\u65f6\u95f4
p3172
I16
sV\u4e0d\u8870
p3173
I2
sV\u5927\u672c\u949f
p3174
I4
sV\u5fc5\u7136\u8d8b\u52bf
p3175
I2
sV\u540c\u884c
p3176
I2
sV\u4f18\u79c0\u8005
p3177
I2
sV\u53f0\u524d
p3178
I2
sV\u611a\u516c
p3179
I2
sV\u91cd\u8981
p3180
I30
sV\u5185\u90e8
p3181
I2
sV\u7ecf\u8425
p3182
I4
sV\u5927\u9646
p3183
I2
sV)
I16
sV\u4e0d\u884c
p3184
I2
sV\u63d0\u9ad8
p3185
I8
sV\u6307\u51fa
p3186
I2
sV\u5341\u5206\u5b9d\u8d35
p3187
I2
sV\u8d85\u94fe
p3188
I2
sV\u70ed\u7231
p3189
I2
sV\u963f\u5a46
p3190
I6
sV\u653b
I2
sV\u600e\u4e48\u529e
p3191
I2
sV\u8d1f\u8d23
p3192
I6
sV\u4fc4\u7f57\u65af
p3193
I2
sV\u5341\u5e74
p3194
I4
sV\u5468\u8fb9
p3195
I2
sV\u4eba\u7269
p3196
I2
sV\u6bcf\u5468
p3197
I2
sV\u9ed1\u767d
p3198
I2
sV\u91ce\u6027
p3199
I2
sV\u5ba2\u5bb6
p3200
I16
sV\u8fbe\u5230\u76ee\u6807
p3201
I2
sVpdf
p3202
I2
sV\u4f1a\u6f14
p3203
I4
sV\u7ec8\u6781
p3204
I4
sV\u719f\u7ec3
p3205
I2
sV\u540d\u4e3a
p3206
I4
sV\u5bcc\u8c6a\u699c
p3207
I2
sV\u72c2\u5420
p3208
I2
sV\u5974\u96b6
p3209
I2
sV\u67d0\u4e9b
p3210
I20
sV\u53ef\u67e5
p3211
I2
sV\u5cf0
I2
sV\u76f4\u5230
p3212
I4
sV\u7f51\u5740
p3213
I6
sV\u6709\u4e2a
p3214
I2
sVBlueRidgeMountainSports
p3215
I20
sV\u9057\u61be
p3216
I4
sV\u4e00\u4efd
p3217
I6
sV\u867d
I2
sV359
p3218
I2
sV\u8868\u793a
p3219
I2
sV\u6bcd\u6821
p3220
I2
sV\u7f8e\u56fd\u9646\u519b
p3221
I2
sV\u592a\u68d2\u4e86
p3222
I4
sV\u4e8b
I6
sV\u89c4\u5219
p3223
I4
sV\u7d27\u90bb
p3224
I2
sV\u521b\u529e
p3225
I2
sV\u4e00\u540d
p3226
I4
sV\u5bf9\u65b9
p3227
I4
sV\u5229\u7528
p3228
I44
sV\u70b9\u51fb
p3229
I18
sV\u4e00\u4e2a\u5341\u51e0\u5c81
p3230
I2
sV\u2014
I140
sV\u7f16
I4
sV\u5c24\u5176
p3231
I4
sV\u6765\u8bf4
p3232
I2
sV\u591a
I58
sV\u9003\u8dd1
p3233
I2
sV\u62db
I2
sV\u6816\u5c45
p3234
I2
sV\u4f55\u4e0d
p3235
I2
sV\u6377\u5f84
p3236
I12
sVAdvantage
p3237
I2
sV\u56de\u5934
p3238
I20
sV\u4e2d\u706b
p3239
I2
sV\u7a97\u6237
p3240
I2
sV\u79ef\u6781\u4e3b\u52a8
p3241
I2
sV\u8fd9\u65b9\u9762
p3242
I4
sV\u6362\u6210
p3243
I2
sV\u6572\u95e8
p3244
I4
sV\u91cd\u70b9
p3245
I2
sV\u52a8\u5bb9
p3246
I2
sV\u8d3a\u8f69
p3247
I20
sV\u6253\u4ea4\u9053
p3248
I2
sV\u63d0\u793a
p3249
I4
sV\u7248
I2
sV\u4f20\u9001
p3250
I2
sV\u5c0a\u91cd
p3251
I4
sV\u638f
I2
sV264
p3252
I2
sV\u56db
I4
sV\u9910\u996e
p3253
I20
sV\u5192\u9669
p3254
I22
sV\u63cf\u8ff0
p3255
I4
sV\u4fe1
I16
sV\u8c08\u8c08
p3256
I2
sV\u8d62
I22
sV\u5206\u53d1
p3257
I2
sV\u65e0\u4eba\u80fd\u654c
p3258
I2
sV\u5730\u57fa
p3259
I6
sV\u4eab\u7528
p3260
I2
sV\u76f4\u51b2
p3261
I2
sV\u611f\u77e5
p3262
I2
sV\u4e00\u5473
p3263
I4
sV\u5206\u9500\u5546
p3264
I2
sV\u767e\u4e07\u5bcc\u7fc1
p3265
I2
sV\u6709\u8da3
p3266
I2
sV\u7b97\u547d\u5148\u751f
p3267
I2
sV\u65b0\u897f\u5170
p3268
I14
sV\u5b66\u5230
p3269
I46
sV\u59cb\u7ec8
p3270
I4
sV\u8fd9\u79cd
p3271
I32
sV\u4e4b\u6240\u4ee5
p3272
I4
sV\u770b\u4e0d\u89c1
p3273
I2
sV\u98ce\u666f
p3274
I16
sV\u6865\u6881
p3275
I2
sV\u4e0b
I24
sV\u690d\u7269
p3276
I2
sV\u70ed\u95e8
p3277
I2
sV\u7b2c\u516b\u671f
p3278
I2
sV\u7231\u5fc3
p3279
I2
sV\u6742\u5fd7
p3280
I2
sV\u4e0a\u6709
p3281
I2
sV\u7f51\u5427
p3282
I4
sV\u561b
I2
sV\u53d8\u5316
p3283
I10
sV\u627e\u6765
p3284
I20
sV\u501f
I6
sV\u97ad\u7f5a
p3285
I2
sV\u5783\u573e\u5806
p3286
I2
sV\u521a
I6
sV\u540d\u6d41
p3287
I2
sV\u770b\u51c6
p3288
I4
sV\u5355\u7b14
p3289
I2
sV\u5f62\u5f0f
p3290
I2
sV\u5c0f\u5fc3
p3291
I4
sV\u6765\u6e90\u4e8e
p3292
I6
sV\u90e8\u4e0b
p3293
I2
sV\u76f8\u6bd4\u4e4b\u4e0b
p3294
I2
sV\u8bfe\u7a0b
p3295
I4
sV\u6210\u672c
p3296
I10
sV\u505a\u4e3a
p3297
I2
sV\u660e\u661f
p3298
I4
sV\u5b9a\u4ef7
p3299
I4
sV\u516c\u53f8
p3300
I92
sV\u5927\u5c71
p3301
I2
sV\u5e38\u898b
p3302
I2
sV\u4e4b
I28
sV\u5927\u5c71\u6df1\u5904
p3303
I2
sV\u4e00\u5f20
p3304
I4
sV\u6392\u884c
p3305
I2
sV\u5730\u5740
p3306
I2
sV\u51c6\u5907
p3307
I6
sV\u9ad8
I28
sV\u62ed\u76ee\u4ee5\u5f85
p3308
I2
sVMicrosoft
p3309
I2
sV\u79cd\u690d
p3310
I2
sV\u4ea4\u6613\u8fc7\u7a0b
p3311
I2
sV\u60f3\u4e00\u60f3
p3312
I4
sV\u5404\u81ea
p3313
I6
sV\u767b\u5f55
p3314
I4
sV\u81ea
I2
sV\u6cb9\u9505
p3315
I2
sV\u5355\u5b50
p3316
I2
sV\u820d\u751f\u5fd8\u6b7b
p3317
I2
sV\u5730\u9762
p3318
I22
sV\u8ba4\u771f
p3319
I2
sV\u76db\u5927
p3320
I2
sV\u8be6\u60c5
p3321
I2
sV\u4e66\u5546
p3322
I2
sVBuick
p3323
I20
sV\u4e0a\u6765
p3324
I8
sV\u5f00
I8
sV\u5b83
I110
sV\u6570\u5b57
p3325
I4
sV\u9752\u8272
p3326
I2
sV\u964d\u9f99\u5341\u516b\u638c
p3327
I2
sV\u300a
I78
sV\u81ea\u4fe1
p3328
I12
sV\u9000\u4f11
p3329
I20
sV\u7f8a\u5708
p3330
I2
sV\u6210\u8d25
p3331
I4
sV\u9884\u7b97
p3332
I4
sV\u627f\u8ba4
p3333
I2
sV\u5feb\u901f
p3334
I6
sV\u4e00\u751f
p3335
I6
sV\u6b8a\u4e0d\u77e5
p3336
I2
sV\u610f\u5fd7\u54c1\u8d28
p3337
I2
sV1983
p3338
I2
sV\u53e6\u5916
p3339
I2
sV\u6c47\u6b3e
p3340
I4
sV\u5f81\u96c6
p3341
I10
sV\u597d\u4eba
p3342
I2
sV\u719f\u89c6\u65e0\u7779
p3343
I2
sVPage
p3344
I4
sV\u9644\u56fe
p3345
I2
sV\u5730
I56
sV\u800c\u4e14
p3346
I30
sV\u8d2b\u56f0
p3347
I2
sV\u8d2d\u4e70
p3348
I32
sV\u8d5a\u5927\u94b1
p3349
I2
sV\u901f\u5ea6
p3350
I8
sVDoccash
p3351
I2
sV163.
p3352
I2
sV\u8d39\u7528
p3353
I6
sV\u4e0b\u6b21
p3354
I2
sV\u6240\u8981
p3355
I2
sV\u95f9\u949f
p3356
I2
sV\u4e2a\u4eba
p3357
I30
sV\u8d63
I8
sV\u4e45
I2
sV\u5927\u5e08
p3358
I12
sV\u6fc0\u6012
p3359
I2
sV\u6df1\u611f
p3360
I2
sV\u65b9\u4fbf
p3361
I8
sV\u8fd0\u8425
p3362
I4
sV\u7edd\u4e0d
p3363
I2
sV\u7a97\u53e3
p3364
I2
sV\u505a\u5e7f\u544a
p3365
I2
sV\u60f3\u7740
p3366
I2
sV\u822a\u7a7a\u516c\u53f8
p3367
I2
sV\u5982\u6b64
p3368
I4
sV\u4f60
I430
sV\u738b\u5c0f\u4e2b
p3369
I2
sV\u5168\u7701
p3370
I2
sV\u4e3a\u5148
p3371
I2
sV\u9a8c\u8bc1
p3372
I2
sV\u5feb
I6
sV\u4e00\u65e5
p3373
I2
sV\u5730\u56fe
p3374
I2
sV\u6a21\u4eff\u8005
p3375
I2
sV\u666e\u5ea6
p3376
I2
sV\u5076\u50cf
p3377
I2
sV\u9888\u90e8
p3378
I2
sV\u98ce\u6c34
p3379
I2
sVYahoo
p3380
I2
sV\u9762\u8bd5
p3381
I2
sV\u773c\u91cc
p3382
I2
sV\u51f6\u731b
p3383
I4
sV\u6495\u5f00
p3384
I2
sV\u627e
I8
sV\u4ed6\u5c71\u4e4b\u77f3
p3385
I4
sV\u603b\u5171
p3386
I4
sV\u5c82
I2
sVBerkshire
p3387
I4
sV\u7686
I4
sV\u62a4\u7167
p3388
I6
sV\u641c\u96c6
p3389
I6
sVMSN
p3390
I2
sV\u8d8b\u4e4b\u82e5\u9e5c
p3391
I20
sV\u6492
I2
sV\u6015
I4
sV\u5fc5\u5b9a
p3392
I2
sV\u6e56\u5fc3\u5c9b
p3393
I2
sV\u559c
I4
sV\u5c3d\u5feb
p3394
I2
sV\u8fc7
I18
sV47
p3395
I4
sV\u5c0f\u7ec4
p3396
I4
sV42
p3397
I2
sV40
p3398
I4
sV4.
p3399
I2
sVMouth
p3400
I2
sV\u6709\u7ebf\u7535\u89c6
p3401
I2
sV\u4ed6\u4eba
p3402
I8
sV\u5ba2\u6237\u670d\u52a1
p3403
I2
sV\u4f60\u4e66
p3404
I2
sV\u8d77
I4
sV\u7528\u6237
p3405
I16
sV\u52aa\u529b
p3406
I2
sV\u53c8
I78
sV\u7f51\u5546
p3407
I2
sV\u901a\u7528\u6c7d\u8f66
p3408
I20
sV\u4eca\u540e
p3409
I4
sV\u4e49\u52a1
p3410
I2
sV\u8d63\u53bf
p3411
I6
sV\u4f55\u4e50\u800c\u4e0d\u4e3a
p3412
I2
sV\u8001\u5916
p3413
I2
sVMcFall
p3414
I8
sV\u8fde\u9501\u5e97
p3415
I8
sV\u4e00\u4f4d
p3416
I20
sV\u5408\u4f19\u4eba
p3417
I4
sV\u52a0\u503c
p3418
I2
sV\u4e61
I2
sV\u6b63
I4
sV\u767d\u7cd6
p3419
I2
sV\u8fc8\u514b
p3420
I2
sV\u519c\u573a
p3421
I2
sV\u8001\u5927
p3422
I2
sV\u751f\u5b58\u73af\u5883
p3423
I2
sV\u4e00\u95e8
p3424
I2
sV\u5efa\u7acb
p3425
I2
sV\u4ed6\u4eec
p3426
I120
sV\u94c1\u8def
p3427
I2
sV\u540d\u6c14
p3428
I2
sV\u5373
I12
sV\u5bf9\u53e3
p3429
I2
sV\u4e00\u95f4
p3430
I2
sV\u4ef6
I2
sV\u5c0f\u5e97
p3431
I4
s.