(dp1
V\u5e73\u5b9a
p2
I2
sV\u5185\u6d4b
p3
I6
sV\u51fa\u6765
p4
I26
sV\u7b2c\u4e8c
p5
I10
sV\u8fd8\u8981
p6
I2
sV\u6362\u53e5\u8bdd\u8bf4
p7
I2
sV\u53ea\u7528
p8
I4
sV\u4fd7\u8bdd
p9
I4
sV\u4e50\u56ed
p10
I6
sV\u9632\u62a4
p11
I2
sV\u7ef4\u57fa
p12
I6
sV\u8272\u7cfb
p13
I2
sV\u8c08
I2
sVSPB
p14
I2
sV\u7ebf
I4
sV\u770b\u4f5c
p15
I2
sV\u4e32\u8054
p16
I2
sV\u592a\u50bb
p17
I2
sV\u901a\u5f80
p18
I4
sV\u724c
I14
sV\u5c40\u57df\u7f51
p19
I2
sV\u4f20\u9001
p20
I8
sV\u96be\u4ee5
p21
I2
sV\u8ba2\u9605
p22
I2
sV\u77e5
I2
sV\u4e16\u7eaa
p23
I6
sV\u8d77\u8bc9
p24
I4
sV\u76c8\u5229
p25
I6
sV\u7ebf\u4e0b
p26
I8
sV\u4e1a\u754c
p27
I4
sV\u7b2c\u4e00
p28
I22
sV\u5993\u5973
p29
I2
sVsunhui
p30
I2
sV\u6740\u654c
p31
I2
sV\u7b2c\u4e09
p32
I2
sV\u7a81\u53d1
p33
I2
sV\u7537\u5458\u5de5
p34
I2
sV\u5b98\u5458
p35
I6
sV\u5168\u7ebf\u4ea7\u54c1
p36
I2
sV\u5e94
I4
sV\u5ba1\u6838
p37
I6
sV\u773c\u4e2d
p38
I4
sV\u5931\u604b
p39
I2
sV\u7f8e\u7f8e
p40
I4
sV\u7a84\u5e26
p41
I2
sV\u4e3a\u4e86
p42
I22
sV\u4e09\u5e74
p43
I2
sVcymbi
p44
I4
sV\u8bed\u4e3a
p45
I2
sV\u660e\u786e
p46
I10
sV\u5728\u5bb6
p47
I4
sV\u5fb7\u56fd\u961f
p48
I4
sV\u4e4b\u65f6
p49
I2
sV\u505a\u505a
p50
I2
sV\u7b54\u8c22
p51
I4
sV\u61c2\u4e0d\u61c2
p52
I2
sV\u7ffb\u8bd1
p53
I4
sV\u673a\u53cb
p54
I2
sV\u65b0\u95fb
p55
I30
sV\u6ef4
I8
sV\u4ea7\u54c1
p56
I80
sV\u5973\u670b\u53cb
p57
I2
sV\u76ee\u524d
p58
I54
sV\u5e73\u5a92
p59
I2
sV\u4e0a
I134
sV\u540e
I60
sV\u6b66\u5668
p60
I2
sV\u673a\u5236
p61
I2
sV\u804c\u80fd
p62
I2
sV\u4e00\u6b21
p63
I16
sV\u4e08\u592b
p64
I4
sV\u597d\u51e0\u5e74
p65
I2
sV\u5c0f\u805a
p66
I2
sV\u6b63\u5f53
p67
I2
sV\u79bb
I2
sV\u4e00\u6b3e
p68
I20
sV\u65e5\u5b50
p69
I6
sV\u6709\u529b
p70
I2
sV\u4fee\u590d
p71
I8
sV9.
p72
I2
sV\u7ef3\u5b50
p73
I2
sV99
p74
I2
sV\u5feb\u4e50
p75
I12
sV\u6b64\u9879
p76
I2
sV91
p77
I8
sV90
p78
I8
sV92
p79
I2
sV95
p80
I2
sV\u4ebf\u5f20
p81
I4
sV\u94f6\u73af\u86c7
p82
I2
sV\u6b63\u5f0f
p83
I34
sV\u4e00\u6b65
p84
I2
sV\u6000\u7591
p85
I8
sV\u53f7
I14
sV\u629b\u51fa
p86
I4
sV\u4e3a\u4f55
p87
I10
sV\u4e00\u8fb9\u5012
p88
I2
sV\u51e4\u59d0
p89
I2
sV\u8857\u65c1
p90
I8
sV\u8bda\u9080
p91
I2
sV\u7231\u60c5
p92
I2
sV\u8eab\u8fb9
p93
I2
sVLG
p94
I2
sV\u540d\u7247
p95
I2
sV\u540d\u724c
p96
I2
sV\u4e00\u6bb5
p97
I2
sVA
I8
sV\u5176\u6b21
p98
I2
sV\u4eba\u5927\u4ee3\u8868
p99
I2
sV\u70ed\u4e4e
p100
I4
sV\u574f
I4
sV\u5fae\u535a\u63a7
p101
I2
sV510
p102
I2
sV\u51e0
I2
sV\u4e00\u7fa4
p103
I2
sV\u9519\u8bef
p104
I4
sV\u52a0\u4e0a
p105
I12
sV\u5de8
I2
sV\u6c99\u7279
p106
I4
sV1000
p107
I2
sVDuBravac
p108
I2
sV\u90a3\u5929
p109
I4
sV\u5f3a\u5927
p110
I4
sV\u957f\u4e45\u4e4b\u8ba1
p111
I2
sV\u5f52\u6765
p112
I2
sV\u6316
I2
sV\u516c\u8f66
p113
I2
sV\u7cfb\u7edf\u5bf9
p114
I2
sV\u51c6\u65f6
p115
I6
sV\u4e00\u6837
p116
I28
sV\u4e00\u6839
p117
I2
sV\u51b0\u5c71\u4e00\u89d2
p118
I2
sV\u6240
I18
sV\u6539\u9020
p119
I2
sV\u4ef7\u503c\u89c2
p120
I6
sV\u5e74\u540e
p121
I8
sV\u5f3a\u5978
p122
I4
sV\u9b44\u529b
p123
I2
sV\u5403\u9999\u7684\u559d\u8fa3\u7684
p124
I2
sV\u5a92\u4f53
p125
I50
sVAPP
p126
I14
sV\u4e00\u6869
p127
I2
sVAPI
p128
I10
sV\u5b9a\u5236
p129
I4
sV\u8d8a
I12
sV\u7cdf\u8e4b
p130
I2
sV\u5e95\u90e8
p131
I2
sV\u65b0\u978b
p132
I2
sV2300
p133
I2
sV\u6709\u5173
p134
I14
sVrd
p135
I2
sV\u656c\u8bf7
p136
I6
sV\u505a\u5230
p137
I12
sV\u7fa4\u4f53
p138
I4
sV\u5f00\u5fc3
p139
I2
sV\u61c2
I4
sV\u5a5a\u604b
p140
I4
sV\u914d
I2
sV\u6210\u90fd
p141
I4
sV\u53f8\u673a
p142
I4
sV\u5168\u90e8
p143
I10
sV\u771f\u5047
p144
I2
sV\u8fde
I2
sV\u7a00\u6ce5
p145
I2
sV\u8f6c\u5316\u7387
p146
I2
sV\u8fde\u7eed
p147
I8
sVChat
p148
I4
sV\u7fa4\u4f17
p149
I6
sV\u4e0a\u5b66
p150
I2
sV\u597d
I78
sV17.
p151
I2
sV\u56e2\u8d2d
p152
I2
sVLiMo
p153
I2
sV\u7ea6\u8f66
p154
I2
sV\u6216
I20
sV\u8ddd\u79bb\u8fdc
p155
I2
sV\u529f\u592b
p156
I2
sVi5700
p157
I2
sV\u5c06\u8fd1
p158
I2
sV\u5468\u56db
p159
I2
sV\u5f00\u5e55
p160
I12
sV\u8304\u5b50
p161
I2
sV\u7231\u6234
p162
I2
sV\u8f9b\u9178
p163
I2
sV\u6789\u7136
p164
I2
sV\u4ee3\u91d1\u5238
p165
I2
sV\u5404\u7c7b
p166
I2
sV\u5bfb
I4
sVIphone
p167
I4
sV\u6c89\u8ff7\u4e8e
p168
I2
sV\u300d
I10
sV\u63a7\u80a1
p169
I2
sVBES
p170
I10
sV\u699c
I2
sV\u610f\u8bc6
p171
I4
sV\u4e2d\u56fd\u4e92\u8054\u7f51\u7edc\u4fe1\u606f\u4e2d\u5fc3
p172
I2
sV2.77
p173
I6
sV\u9065\u795d
p174
I2
sV\u8bb0
I2
sV\u594b\u6597
p175
I4
sVThey
p176
I2
sV\u8d76\u7d27
p177
I12
sV\u5f53\u65f6
p178
I10
sV\u6bcf\u51b5\u6108\u4e0b
p179
I2
sV\u5f53
I20
sV\u773c\u82b1\u7f2d\u4e71
p180
I2
sV\u6253\u5b98\u53f8
p181
I4
sV\u4e8b\u513f
p182
I4
sV\u89e3\u9501
p183
I4
sV\u5b98\u573a
p184
I2
sV\u7231\u62a4
p185
I2
sV\u9177
I8
sV\u5728\u653f\u6cbb\u4e0a
p186
I2
sV\u672c\u79d1
p187
I2
sV\u6536\u5230
p188
I4
sV\u5e74\u524d
p189
I2
sV\u673a\u573a
p190
I4
sV\u2018
I6
sV\u5f53\u6210
p191
I4
sV\u8bb2
I6
sV\u5f00\u5934
p192
I2
sV\u9996\u6d4b
p193
I2
sV\u79d8\u5bc6
p194
I2
sV\u4e07\u591a
p195
I4
sV\u529b\u4f5c
p196
I6
sV\u7f16\u8f91
p197
I14
sV\u6df7\u4e71
p198
I2
sVX
I6
sV\u5929\u4e66
p199
I2
sV\u7092\u4f5c
p200
I12
sV\u786e\u8ba4
p201
I10
sV\u4e16\u754c\u6c14\u8c61\u7ec4\u7ec7
p202
I4
sV\u7cbe\u54c1
p203
I8
sV\u53cb\u76df
p204
I12
sV\u89c2\u70b9
p205
I8
sV\u4e07\u7f8e\u91d1
p206
I4
sV\u652f\u6491
p207
I4
sV\u5b66\u6821
p208
I4
sVAndroid
p209
I134
sVJohn
p210
I2
sV\u673a\u578b
p211
I22
sV\u5929
I20
sV\u559c\u597d
p212
I4
sV\u5343\u7bc7\u4e00\u5f8b
p213
I2
sV\u7f51\u4e0a
p214
I12
sV\uff3d
I4
sV\u91c7\u7528
p215
I22
sV\u5f00\u59cb
p216
I84
sV40.7
p217
I2
sV\u5fae\u535a
p218
I40
sV\u97f3\u91cf
p219
I2
sV\u7d22\u7231
p220
I2
sV\u4e00\u4e2a\u4e2a
p221
I2
sV\u641c\u72d0\u7f51
p222
I6
sV\u4f18\u8d8a\u6027
p223
I4
sV\u601d\u60f3
p224
I14
sV\u6253\u53d1
p225
I2
sV\u70ed\u95e8\u8bdd\u9898
p226
I4
sV\u9677
I2
sVLogo
p227
I2
sVPSP
p228
I4
sV\u5f55\u64ad
p229
I2
sV\u6765\u7535
p230
I2
sV259
p231
I2
sV\u4ee4\u4eba
p232
I2
sV250
p233
I2
sV\u51fa\u624b
p234
I4
sV.
I76
sV\u53d1\u9001
p235
I14
sV\u540e\u679c
p236
I2
sVbeta2
p237
I2
sVSR4
p238
I2
sV\u8f9f\u8c23
p239
I4
sV\u673a\u5668
p240
I4
sV\u536b\u89c6
p241
I6
sV\u8fc7
I64
sV\u5e78\u707e\u4e50\u7978
p242
I6
sV\u5168\u9762
p243
I8
sV\u5662
I2
sV\u5185\u6838
p244
I2
sV\u535a\u91cc
p245
I2
sV\u4e00\u4e5d\u4e03\u516d\u5e74
p246
I2
sV\u4ee3\u8868
p247
I6
sV\u8003\u91cf
p248
I2
sV\u6253\u52ab
p249
I2
sV\u903c\u6025
p250
I2
sV\u53d6\u5f97
p251
I2
sV\u79fb\u52a8
p252
I222
sVing
p253
I2
sV\u7814\u8ba8\u4f1a
p254
I2
sV\u9171\u6cb9
p255
I2
sV\u5206\u8fa8\u7387
p256
I6
sV\u822a\u9053
p257
I2
sV\u4eb2
I2
sV\u8c22\u8c22
p258
I20
sV\u4e00\u7ad9\u5f0f
p259
I2
sV\u540e\u6765
p260
I4
sV\u9519\u8fc7
p261
I2
sV\u4f18\u8d8a\u611f
p262
I2
sV\u5ba3\u79f0
p263
I2
sV\u5728\u5ea7
p264
I2
sV\u7b56\u7565
p265
I4
sV\u6c34\u5e73
p266
I6
sV\u9898\u4e3a
p267
I2
sV\u6536\u53d1
p268
I2
sV\u6536\u53d6
p269
I2
sV\u6311\u9009
p270
I2
sV\u6781
I10
sV\u4e3b\u4efb
p271
I6
sV\u72d7\u72d7
p272
I2
sV\u4e9b
I4
sV\u770b\u4e66
p273
I2
sV\u8001\u80e1
p274
I2
sV\u5317\u4eac
p275
I24
sV\u8d85\u8f7d
p276
I2
sV\u6587\u7ae0
p277
I72
sV\u64ad\u653e\u5668
p278
I2
sV\u540c\u6b65
p279
I16
sV\u4e3b\u4eba
p280
I2
sV\u62d2\u63a5
p281
I2
sV\u6253\u5165
p282
I2
sV\u725b\u5934\u4e0d\u5bf9\u9a6c\u5634
p283
I2
sV\u60f3\u4e70
p284
I2
sV\u636e
I12
sV\u54c1\u5473
p285
I2
sVSteven
p286
I4
sV\u90ae\u4ef6
p287
I18
sVBeta2
p288
I4
sV\u8c46\u8c46
p289
I2
sV\u8f86
I2
sV\u503c\u5f97\u6ce8\u610f
p290
I2
sV\u8d85\u8fc7
p291
I34
sV\u548c
I312
sV\u4fe1\u53f7
p292
I16
sV\u6298
I2
sV\u5916\u5f62
p293
I4
sVfor
p294
I8
sV\u94bb\u8fdb
p295
I2
sVFacebook
p296
I6
sV\u5f02\u5e38
p297
I4
sV\u6253\u51fb
p298
I2
sV\u6253\u51fa
p299
I2
sV\u5404\u79cd
p300
I20
sV\u8054\u76df
p301
I2
sV\u504f
I2
sV\u6eda\u6eda
p302
I2
sV\u54c8\u8428\u514b\u65af\u5766
p303
I2
sVFeedsky
p304
I2
sV\u56e0
I10
sV\u519c\u573a
p305
I2
sV\u6708\u95f4
p306
I2
sV\u540c\u6bd4
p307
I2
sVAVG
p308
I4
sVHybrid
p309
I2
sV\u51e0\u6b21
p310
I6
sV\u4f9b
I6
sV\u89e3\u91ca
p311
I8
sV\u7761\u89c9
p312
I4
sV\u4e07\u5de6\u53f3
p313
I2
sV\u6e05\u6670
p314
I10
sV\u4f34
I2
sV\u6740
I6
sV\u6536\u5165
p315
I10
sV\u5931\u671b
p316
I2
sV\u754c
I2
sV\u91cf
I2
sV\u975e\u5e38\u611f\u8c22
p317
I4
sV\u60b2\u54c0
p318
I4
sV\u6240\u4ee5
p319
I20
sV\u6536\u517b
p320
I2
sV\u9760
I28
sV\u5462
I54
sV\u636e\u8bf4
p321
I2
sV\u603b\u699c
p322
I2
sV\u529f\u80fd\u8bbe\u8ba1
p323
I2
sV\u5305\u4f4f
p324
I2
sV\u90ae\u4ef6\u5730\u5740
p325
I2
sV\u6740\u624b
p326
I4
sV\u770b
I84
sV\u4e0d\u5e78\u901d\u4e16
p327
I2
sV\u6d89\u53ca
p328
I2
sV\u4e0a\u5e02
p329
I6
sV15.
p330
I2
sV\u5c0f\u9a6c\u54e5
p331
I4
sV\u4e3b\u6301
p332
I2
sV\u843d\u540e\u5730\u533a
p333
I2
sV\u8d23\u4efb\u5fc3
p334
I4
sV\u7239
I2
sV\u5c06\u6765
p335
I4
sV\u65b0\u6d6a\u7f51
p336
I4
sV\u5de6\u53f3
p337
I16
sVE
I6
sV\u6e32\u67d3
p338
I2
sV\u6751\u957f
p339
I2
sV\u5956\u8d4f
p340
I2
sV\u80af\u5b9a
p341
I12
sV\u70ed\u4e4e\u4e4e
p342
I2
sV\u5e74\u5185
p343
I4
sV\u4e0a\u5e7f
p344
I2
sV\u4e71
I4
sV\u82ef\u80fa
p345
I2
sV\u7537\u751f
p346
I4
sV\u4e09\u5927
p347
I4
sV\u7537\u7ae5
p348
I2
sV\u8fd9\u4f4d
p349
I4
sV\u53cd\u6620
p350
I2
sV\u7b26\u53f7
p351
I2
sV\u7528\u6237\u7fa4
p352
I2
sV\u5f00\u5c55
p353
I4
sV\u65e5\u524d
p354
I8
sV\u4e09\u56fd
p355
I2
sV\u996d\u6e23
p356
I2
sV\u5f00\u53d1\u4eba\u5458
p357
I2
sV\u817c\u8146
p358
I2
sV\u59d4\u5c48
p359
I4
sV\u6253\u5f00
p360
I4
sV\u79bb\u804c
p361
I8
sV\u8d22\u4ea7
p362
I2
sV\u8bb0\u5f55
p363
I12
sVchoice
p364
I2
sV\u51d1
I4
sV\uffe5
I4
sV\u8d2a\u98df\u86c7
p365
I2
sV\u5e73\u53f0
p366
I36
sV\u8bed
I2
sVTag
p367
I2
sV\u6ca6\u4e3a
p368
I2
sVTab
p369
I2
sV\u53cb\u7ad9
p370
I2
sV\u6d6a\u8d39
p371
I2
sV\u4e00\u628a
p372
I2
sVsigh
p373
I2
sV\u6218\u80dc
p374
I2
sVM2
p375
I26
sVM9
p376
I2
sVM8
p377
I2
sV\u68d2\u5b50
p378
I4
sV\u826f\u6027
p379
I2
sV\u9648\u6811\u6636
p380
I2
sV\u4e45\u4e45
p381
I2
sV\u80fd\u6307
p382
I2
sV\u535a\u535a\u53cb
p383
I2
sV\u8bd1\u6587
p384
I2
sV\u5c0f\u89d1
p385
I2
sV\u6495\u88c2
p386
I2
sVIpad
p387
I4
sV\u505a\u51fa
p388
I6
sV\u53c2\u4e0e
p389
I14
sV\u5e74\u5e95
p390
I2
sV\u540c\u65f6
p391
I30
sV\u65e0\u5173
p392
I4
sVLtd
p393
I4
sV\u4e00\u62db
p394
I6
sV\u603b\u662f
p395
I2
sVMD
p396
I2
sVMB
p397
I4
sV\u732b\u732b
p398
I2
sV\u9a7b\u7559
p399
I2
sVMV
p400
I4
sV\u7cbe\u51c6
p401
I2
sV\u5e74\u5ea6
p402
I10
sV\u56de\u4fe1
p403
I2
sV\u63a8\u9001
p404
I10
sV\u6cb8\u6cb8\u626c\u626c
p405
I2
sV\u63a7\u8bc9
p406
I2
sV\u8fd9\u4e48
p407
I30
sV\u7530\u8fb9
p408
I2
sVlove
p409
I2
sVWikiMedia
p410
I2
sV\u96f6\u552e\u4ef7
p411
I2
sV\u8bd5\u7528
p412
I2
sV\u5c5e\u4e8e
p413
I8
sVDOS
p414
I2
sV\u5f3a\u5236
p415
I2
sV\u80e1\u8bf4\u516b\u9053
p416
I4
sV\u641e
I10
sV\u81ea\u6211
p417
I2
sV\u57fa\u5c42
p418
I4
sV\u4e1d\u5e26
p419
I2
sV\u8dea\u4e0b
p420
I2
sV\u5b9e\u4e60
p421
I2
sV\u795e\u79d8
p422
I2
sV\u6559\u6388
p423
I2
sV\u6b63\u5728
p424
I46
sV\u4ec5
I4
sV\u5168\u4e16\u754c
p425
I2
sV\u602a\u72b6
p426
I2
sV\u6709\u5fd7\u4e4b\u58eb
p427
I2
sV\u8fdc\u89c2
p428
I2
sV\u51e4\u51f0
p429
I4
sV\u4e92\u8054
p430
I6
sV\u9636\u4e0b\u56da
p431
I2
sV\u8fd9\u4e2a
p432
I70
sV\u6536\u5f55
p433
I2
sV\u7ef4\u5ea6
p434
I2
sV\u6570\u7801\u4ea7\u54c1
p435
I2
sV\u6c89\u9ed8
p436
I2
sV\u8bae\u7a0b
p437
I2
sV\u63ed\u5f00
p438
I2
sV\u6307
I2
sV\u5b8c
I10
sV\u3011
I162
sV\u51e0\u4e2a
p439
I8
sV\u58c1\u5792
p440
I4
sV\u5047\u5982
p441
I12
sV\u5e73\u5206
p442
I2
sV\u4f11\u606f
p443
I6
sV\u754c\u9762\u8bbe\u8ba1
p444
I2
sV\u7fa4
I6
sV\u6eda\u96ea\u7403
p445
I2
sV\u4e03\u70b9
p446
I4
sV\u8fd9\u4efd
p447
I8
sVlinlu
p448
I2
sV\u4e94\u5343\u4e07
p449
I2
sV\u8fd9\u4ef6
p450
I4
sV\u8fd9\u4e8b
p451
I6
sV\u5927\u5f00\u773c\u754c
p452
I2
sV\u8fd9\u4e9b
p453
I20
sV\u5b9e\u4e8b
p454
I2
sV\u53c2\u4f1a
p455
I2
sV\u592a\u591a
p456
I2
sV\u65e5\u5386
p457
I4
sVsw
p458
I2
sV\u534e\u4e3a
p459
I10
sV\u8f6f
I4
sV\u6279\u51c6
p460
I2
sV\u505a\u597d
p461
I12
sV\u8bc4\u8bba
p462
I28
sV\u6d4b\u8bd5
p463
I14
sV\u4e8c\u6b21\u5f00\u53d1
p464
I2
sVsb
p465
I2
sV\u6dfb\u9ebb\u70e6
p466
I2
sV\u8f8d\u5b66
p467
I2
sV\u6279\u5224
p468
I2
sV\u5206\u949f
p469
I12
sV\u5408\u9002
p470
I4
sV\u7ee7\u7eed
p471
I14
sV\u201c
I254
sVWidget
p472
I4
sV\u4e92\u76f8\u7406\u89e3
p473
I2
sV\u4e0a\u53bb
p474
I8
sV\u76d6\u8328
p475
I2
sV\u751f\u52a8
p476
I2
sV\u5e38
I2
sV\u503c
I2
sV\u514b\u91cc\u5965
p477
I2
sV\u65e0\u53ef
p478
I2
sV\u53d1
I16
sV\u73a9\u6cd5
p479
I2
sV\u544a\u522b
p480
I2
sV\u6df1\u611f
p481
I2
sV\u6709\u5956
p482
I2
sV\u66f9\u603b
p483
I2
sV\u9192
I2
sV\u52a8\u8f66
p484
I2
sV\u56db\u8d77
p485
I2
sV\u8ba1\u5212
p486
I6
sV\u5bb6
I2
sV\u5145\u7535
p487
I2
sV\u534e\u4e1c
p488
I2
sV\u4e43
I4
sV\u63a8\u8fdb
p489
I2
sV\u7f8e\u672f\u9986
p490
I2
sV\u98de\u7fd4
p491
I2
sV\u5c4f
I6
sV\u4e0a\u5348
p492
I2
sV\u5949\u884c
p493
I2
sV\u4ed8
I6
sV\u53e3\u7891
p494
I4
sV\u5973\u5b69\u513f
p495
I2
sV\u4ea4\u901a
p496
I4
sVBlackBerry
p497
I14
sV\u8981\u70b9
p498
I2
sV\u6253\u7535\u8bdd
p499
I4
sV\u52aa\u529b\u594b\u6597
p500
I2
sV\u5728\u5185
p501
I10
sV\u6211\u53f8
p502
I2
sV\u6db5\u76d6
p503
I2
sV\u8f89\u714c
p504
I4
sV\u5355\u8eab
p505
I2
sV\u5378\u8f7d
p506
I6
sV\u8425\u6536
p507
I4
sV\u8d44\u91d1
p508
I4
sV\u4e1a\u7ee9
p509
I4
sV\u5728\u6211\u770b\u6765
p510
I4
sV2
I74
sV\u6570\u636e\u901a\u9053
p511
I2
sV\u6295\u8d44
p512
I6
sVApps
p513
I2
sV\u9ad8\u89c1
p514
I2
sV\u9ad8\u6e05
p515
I10
sV\u88ab\u5224
p516
I2
sVSensation
p517
I6
sV\u5e76\u4e0d\u77e5\u9053
p518
I2
sV\u72e0\u6bd2
p519
I2
sV\u76f4\u64ad
p520
I40
sV\u90fd
I238
sV\u767e
I2
sV\u603b\u6570
p521
I2
sV\u901a\u544a
p522
I2
sV\u7ec6\u4f5c
p523
I2
sV\u5be5\u5be5\u65e0\u51e0
p524
I2
sV\u4e89\u76f8
p525
I2
sV\u667a\u80fd\u624b\u673a
p526
I14
sV\u4ed8\u8d39
p527
I10
sV5800
p528
I2
sV\u8303\u56f4
p529
I2
sV\u6700\u7ec8
p530
I12
sV\u6210\u529f\u8005
p531
I2
sV\u51fa\u6ca1
p532
I2
sV\u4e0a\u524d
p533
I2
sV\u52a0\u901f\u5668
p534
I2
sV\u4f5c\u54c1
p535
I4
sV\u5f1f\u5144
p536
I2
sV\u771f\u597d
p537
I2
sV\u7ec3\u4e60
p538
I6
sV\u670b\u53cb
p539
I32
sV\u9886\u5bfc\u4eba
p540
I2
sV\u4f20\u51fa\u53bb
p541
I2
sV\u957f
I2
sV\u6027\u5de5\u4f5c\u8005
p542
I2
sV\u8eab\u6750
p543
I2
sV\u4e07\u5143
p544
I2
sV\u540c\u610f
p545
I2
sV\u51a0\u4ee5
p546
I2
sV\u654f\u611f
p547
I10
sV\u540c\u611f
p548
I2
sV\u62bd\u98ce
p549
I4
sV\u5927\u4e8b
p550
I2
sV\u5c0f\u8d29
p551
I2
sVBeijing
p552
I2
sV\u8457\u540d
p553
I6
sV\u5f3a\u8feb\u75c7
p554
I2
sV\u79d1\u5b66
p555
I2
sV\u5b89\u88c5\u5305
p556
I2
sV\u5f62
I2
sV\u4e00\u63fd\u5b50
p557
I2
sV\u7545\u5feb
p558
I2
sV\u5566
I24
sV\u534e\u5317\u5730\u533a
p559
I2
sV\u5e74\u5ea6\u62a5\u544a
p560
I2
sV\u5f00\u5173
p561
I2
sV\u76f4\u63a5
p562
I12
sV\u9700\u8981
p563
I42
sV\u7ea0\u7f20
p564
I2
sVWoStore
p565
I4
sV\u6765\u5929
p566
I2
sV\u5373\u4e3a
p567
I2
sV\u9879\u76ee
p568
I2
sVSymbian
p569
I44
sV\u4f53\u9a8c
p570
I48
sV\u76f2\u76ee
p571
I2
sV\u5927\u4e09
p572
I2
sV\u90e8\u7c7b
p573
I2
sV\u4ece\u4e2d
p574
I4
sV\u60e0\u666e
p575
I2
sV\u505a\u4e0d\u4e86
p576
I2
sV\u624b\u6301
p577
I4
sV\u800c\u5df2
p578
I4
sV\u624b\u673a\u7528\u6237
p579
I4
sV\u5e73\u5747
p580
I6
sV\u751f\u547d
p581
I2
sV\u6d4f\u89c8
p582
I14
sV\u592a\u5c11
p583
I2
sV\u7814\u53d1
p584
I4
sV\u4ece\u4e1a
p585
I2
sV\u5979
I18
sV\u5947\u77e9
p586
I2
sV\u591a\u79cd
p587
I2
sV\u7814\u5236
p588
I2
sV3000
p589
I8
sV\u84dd\u9752
p590
I2
sV\u7ed2\u6bdb
p591
I2
sV\u8001\u5e74\u75f4\u5446
p592
I2
sV\u5468\u4e09
p593
I2
sV\u5b50\u5b59\u540e\u4ee3
p594
I2
sV\u5468\u4e00
p595
I2
sV\u6781\u597d
p596
I2
sV\u7a33\u5b9a
p597
I8
sV\u66dd
I8
sV\u4e00\u675f
p598
I2
sV\u4e22\u4eba
p599
I2
sV\u7f8e\u7248
p600
I2
sV\u4e00\u6761
p601
I14
sV\u7ae5
I2
sV\u6781\u5927
p602
I2
sV\u505a\u5de5
p603
I2
sV\u4e00\u676f
p604
I2
sV\u6ce8\u91cd
p605
I2
sV\u8046\u542c
p606
I2
sV\u7edf\u8ba1
p607
I10
sV\u65b0\u9896
p608
I2
sV\u4eca\u665a
p609
I6
sVtechnology
p610
I2
sV\u6905\u5b50
p611
I2
sV\u6628\u65e5
p612
I6
sV\u6643\u52a8
p613
I4
sV\u5927\u4f1a
p614
I22
sV\u5468\u4e94
p615
I2
sV\u6295\u8bc9
p616
I2
sV\u7537\u7f51
p617
I2
sV\u8def\u51b5
p618
I2
sV\u5148\u89c1\u4e4b\u660e
p619
I2
sV\u714e\u71ac
p620
I2
sV\u5f62\u8c61
p621
I2
sV\u8bf7\u95ee
p622
I2
sV\u5927\u4f6c
p623
I10
sV\u5bb9\u6613
p624
I10
sV\u53c2\u8003\u4ef7\u503c
p625
I2
sV\u5373\u4f7f
p626
I2
sV\u4e3e\u529e
p627
I10
sV\u6fc0\u52a8
p628
I2
sV\u5927\u4f5c
p629
I2
sV\u5217\u8868
p630
I6
sV\u6389
I6
sV\u6211\u56fd
p631
I6
sV\u6740\u6bd2
p632
I4
sV\u5fae\u5999
p633
I2
sV\u9014
I2
sV\u6c14\u8d28
p634
I4
sV\u54c1\u5c1d
p635
I2
sV\u8fc4\u4eca\u4e3a\u6b62
p636
I2
sV\u6628\u665a
p637
I4
sV\u7206\u70b8
p638
I4
sV\u9009\u62e9
p639
I18
sV\u76d8\u70b9
p640
I2
sV\u4eca\u65e5
p641
I16
sV\u5c40\u9650\u6027
p642
I2
sV\u975e\u6cd5
p643
I8
sV\u968f\u4fbf
p644
I2
sV\u6263\u8d39
p645
I2
sV\u597d\u8c61
p646
I2
sV\u5957\u9910
p647
I6
sV\u5f00\u535a
p648
I2
sV\u6548\u7387
p649
I10
sV\u5386\u53f2\u8bb0\u5f55
p650
I2
sV\u65e5\u540e
p651
I2
sV\u5b66
I6
sV\u5355\u8bcd
p652
I2
sV\u996d\u6876
p653
I2
sV\u5ba3\u544a\u7834\u4ea7
p654
I2
sViWork
p655
I4
sV\u6cc4\u9732
p656
I6
sVFLASH
p657
I2
sV\u9009\u624b
p658
I2
sV\u7a0b\u96f7
p659
I2
sV\u4ee5\u81f4
p660
I2
sV\u76c8\u5229\u6a21\u5f0f
p661
I2
sVA3000
p662
I4
sVGartner
p663
I2
sV\u966a\u846c
p664
I2
sV\u5f00\u53d1
p665
I26
sV\u660e\u767d
p666
I4
sV\u4e1c\u65b9
p667
I2
sV\u5f00\u53d1\u5de5\u5177
p668
I2
sV\u7eaf\u7cb9
p669
I2
sV\u840c\u53d1
p670
I4
sV\u592a\u5e05
p671
I2
sV\u9082\u9005
p672
I2
sV\u4f53\u9a8c\u7248
p673
I4
sVLite
p674
I6
sVNO
p675
I2
sVNB
p676
I6
sV\u5c01\u95ed
p677
I6
sV\u8bfb\u8005
p678
I6
sV\u4ebf\u5143
p679
I6
sV\u5916\u56fd
p680
I2
sV\u5ba1\u67e5
p681
I6
sVN8
p682
I4
sVN9
p683
I2
sV\u6c14\u8c61
p684
I2
sV\u4f20\u8a00
p685
I4
sV\u7cbe\u5fc3
p686
I4
sV\u4e00\u6587
p687
I6
sVumeng
p688
I2
sV\uff0b
I6
sV\u89c4\u6a21\u5316
p689
I2
sV\u5dee\u8ddd
p690
I4
sV\u53d8\u6210
p691
I6
sV\u91d1\u767d\u94f6
p692
I2
sV\u9ed1\u8393
p693
I76
sV\u6d88\u5931
p694
I2
sV1110
p695
I2
sV\u6362\u6210
p696
I2
sV\u6bd2\u8548
p697
I2
sV\u5362\u521a
p698
I2
sV\u4e0d\u6210
p699
I2
sV\u6cd5\u56fd
p700
I2
sV\u5f00\u53d1\u5546
p701
I12
sV\u6b63\u51a0
p702
I2
sV\u7cbe\u5f69
p703
I6
sV\u5144\u5f1f\u4fe9
p704
I2
sV\u5fe0
I2
sV\u4e00\u65e6
p705
I2
sV\u884c\u4e1a
p706
I22
sV\u8fd1\u8ddd\u79bb
p707
I4
sV\u7b26\u5408
p708
I4
sV\u52a0\u5feb
p709
I2
sV\u7231\u597d\u8005
p710
I6
sV\u65e2\u7136
p711
I4
sV\u76d1\u542c
p712
I4
sV\u96be\u5ea6
p713
I2
sV\u603b\u7ed3
p714
I12
sV\u4e0a\u6d77\u7ad9
p715
I2
sV\u7f51\u5a92
p716
I4
sV\u7cfb\u5217
p717
I20
sV\u524d\u9014
p718
I2
sV\u70b9\u5fc3
p719
I2
sV\u5927\u529b
p720
I2
sV\u901a\u4fe1
p721
I4
sVto
p722
I4
sVth
p723
I2
sVtd
p724
I2
sV\u7b2c\u56db\u4ee3
p725
I2
sV\u4e09\u4e9a
p726
I2
sV\u81ea\u7b79
p727
I2
sV\u5bf9\u63a5
p728
I2
sV\u964d\u4ef7
p729
I6
sV\u7bc7\u6587\u7ae0
p730
I4
sV\u53ea\u6562
p731
I2
sV\u9996\u6b21
p732
I4
sV\u67e5
I4
sV\u5b9e\u5728
p733
I2
sV\u8fd9\u573a
p734
I4
sV\u52b3\u7d2f
p735
I8
sV\u4ebf\u4e07
p736
I4
sVASCII
p737
I2
sV\u9996\u6b3e
p738
I10
sV\u9986
I2
sV\u6309\u4f4f
p739
I2
sV\u4f20\u95fb
p740
I2
sV\u9e1f
I4
sV\u770b\u8d77\u6765
p741
I4
sV\u4ece\u524d
p742
I2
sV\u5168\u90fd
p743
I2
sV\u5177\u6709
p744
I10
sV\u5c0f\u5973\u5b69
p745
I2
sV\u6700\u65b0
p746
I24
sV\u6539
I2
sV\u6559\u7a0b
p747
I10
sV\u7559\u8a00
p748
I2
sV\u4e66\u7b7e
p749
I2
sV\u6bd2
I2
sV\u770b\u5f85
p750
I2
sV\u6700\u65e9
p751
I4
sV\u6c42\u52a9
p752
I6
sV\u83b7\u5f97
p753
I10
sV\u4e09\u4e2a
p754
I14
sV\u8f9b\u82e6
p755
I8
sVaction
p756
I2
sV\u6b66\u6c49
p757
I2
sVvia
p758
I4
sV\u8d62\u5229\u70b9
p759
I4
sV\u7b97\u4e0a
p760
I2
sV\u5927\u53a6
p761
I2
sV\u4e0d\u5c51\u4e8e
p762
I2
sV\u5168\u7cfb\u5217
p763
I2
sV\u6298\u78e8
p764
I4
sV\u589e\u957f
p765
I10
sV\u9012\u589e
p766
I2
sV\u4f5c\u4e3a
p767
I20
sV\u5468\u520a
p768
I2
sV\u8d5b\u8f66
p769
I2
sV\u8036
I2
sV\u7a76\u7adf
p770
I4
sV\u4ec1\u5144
p771
I2
sV\u5e74\u8f7b\u4eba
p772
I2
sV\u5361\u8f6c
p773
I2
sV\u8bda\u8058
p774
I2
sV\u5c5e
I2
sV\u96be\u5fd8
p775
I2
sV\u8d44\u8baf
p776
I6
sV\u8bcb\u6bc1
p777
I2
sV\u5927\u53d4
p778
I2
sV\u8fdb\u53bb
p779
I2
sV\u4e3b\u6301\u4eba
p780
I12
sV\u597d\u51e0\u4e2a
p781
I2
sV\u4e0b\u62c9\u83dc\u5355
p782
I2
sV\u8bca\u65ad
p783
I2
sV\u5373\u53ef
p784
I16
sV\u4f7f\u7528\u7387
p785
I2
sV\u738b\u709c
p786
I2
sV\u3001
I456
sV\u4e09\u4f4d
p787
I2
sV\u4e2d\u592e\u519b\u4e8b\u59d4\u5458\u4f1a
p788
I2
sV\u5929\u5b87
p789
I2
sV\u6f14\u51fa
p790
I4
sV\u4e00\u7bc7
p791
I8
sV\u5d07\u62dc\u8005
p792
I2
sV\u603b\u7f16
p793
I8
sV\u8bf7\u89c1
p794
I2
sV\u964d\u4f4e
p795
I2
sV\u79f0
I26
sV\u83b7\u5f97\u6700\u4f73
p796
I2
sV\u6bd4\u8f83
p797
I16
sVRSS
p798
I2
sV\u8f93\u51fa
p799
I4
sV\u6700\u6700
p800
I2
sV\u624b\u673a\u8f6f\u4ef6
p801
I10
sV\u5956
I2
sV\u800c
I76
sV\u578b\u4e1a\u52a1
p802
I2
sV499
p803
I2
sV\u5f00\u4f1a
p804
I4
sV\u8003\u8651
p805
I6
sVitr
p806
I2
sV\u7528\u6765
p807
I4
sV\u5185\u7f6e
p808
I6
sV\u53d1\u9001\u5230
p809
I2
sV\u53ea\u6709
p810
I18
sV\u5168\u7f8e
p811
I2
sV\u767b\u53f0
p812
I6
sV\u8bc4\u9009
p813
I8
sVURL
p814
I2
sV\u4e0a\u5e02\u516c\u53f8
p815
I2
sV\u6469\u6839\u58eb\u4e39\u5229
p816
I2
sV\u5468\u516d
p817
I2
sV\u65e5
I40
sV\u53cb\u60c5
p818
I4
sV\u4f4e\u8c03
p819
I2
sV\u51fa\u751f
p820
I2
sVAccenture
p821
I2
sV\u5168\u804c
p822
I2
sV\u501f\u53e3
p823
I2
sV\u9ad8\u901a
p824
I6
sVsj
p825
I2
sV\u8f93\u5165
p826
I12
sV\u8bc4
I4
sV\u548c\u5c1a
p827
I2
sV\u7537\u6027
p828
I4
sV\u5b64\u964b\u5be1\u95fb
p829
I2
sV\u6162\u6162
p830
I8
sV\u5168\u80fd
p831
I2
sV\u4e8c\u7ea7\u57df\u540d
p832
I2
sV\u8d8a\u53d1
p833
I2
sV\u7528\u6237\u6570
p834
I2
sV\u73b0\u5b9e\u751f\u6d3b
p835
I2
sV\u8dea
I2
sV2700.6
p836
I2
sV\u6b64\u8bdd
p837
I2
sVw
I4
sV\u5236\u9020
p838
I2
sV\u964c\u751f\u4eba
p839
I2
sV\u6bd4\u8d77
p840
I2
sV\u4e3b\u5bfc
p841
I4
sV\u5929\u5929
p842
I6
sV\u5f53\u7528
p843
I2
sV\u5973\u53cb
p844
I2
sV\u65e9\u665a
p845
I2
sV\u6bd4\u8d5b
p846
I2
sVIE
p847
I6
sV\u770b\u5c55
p848
I2
sV\u642d\u8f7d
p849
I2
sV\u8463\u4e8b\u4f1a
p850
I8
sV\u91d1\u5c71
p851
I6
sV\u6307\u5f15
p852
I2
sV\u8b66\u5bdf
p853
I8
sV\u8fdb\u519b
p854
I4
sV\u85cf
I2
sV\u4fdd\u6d01
p855
I2
sV\u7ecf\u6d4e\u5b66\u5bb6
p856
I2
sV\u7ea2\u8272\u9ad8\u68c9
p857
I2
sV\u53eb
I14
sV\u5e7f\u53d1
p858
I6
sV\u6784\u5efa
p859
I4
sV\u538b\u529b
p860
I6
sV\u4e07\u4e2a
p861
I4
sV\u5f88
I114
sVBBM
p862
I6
sV\u60c5\u8282
p863
I2
sV\u591a\u4e00\u5206
p864
I2
sV\u4eb2\u7231
p865
I2
sV\u8865\u5145
p866
I2
sV\u8fdb\u5165
p867
I8
sV\u70c2
I4
sV\u4e00\u5343\u5143
p868
I2
sV\u4e60\u60ef
p869
I12
sV\u4e00\u79cd
p870
I10
sV\u7b49\u7b49
p871
I8
sV\u68d2
I2
sV\u59dc
I2
sV\u89c2\u671b
p872
I4
sVGoogle
p873
I44
sV\u6f14\u53d8
p874
I2
sV\u4e5f\u8bb8
p875
I2
sVOTA
p876
I2
sV\u90c1\u95f7
p877
I2
sV\u5a01\u80c1
p878
I2
sV\u5e10\u6237
p879
I2
sV\u63a5\u7ba1
p880
I2
sV\u81ea\u7f22
p881
I2
sV\u80cc\u7740
p882
I2
sV\u7533\u8bf7
p883
I14
sV\u72af
I4
sV\u4fdd\u5b58\u8d77\u6765
p884
I2
sVLabs
p885
I6
sV\u52a0\u62ff\u5927
p886
I2
sV\u6cbb
I2
sV\u591a\u6837\u5316
p887
I2
sV\u89c6\u6c11\u5982\u4f24
p888
I2
sV\u53d8\u79cd
p889
I2
sV\u5927\u56fd
p890
I2
sV\u82cf
I2
sV\u670d\u52a1\u63d0\u4f9b\u5546
p891
I2
sV\u91d1\u996d\u7897
p892
I2
sV\u535a
I134
sV\u8e0a\u8dc3
p893
I2
sV\u53c2\u52a0
p894
I20
sV\u8fed\u4ee3
p895
I2
sV\u8868
I2
sV\u5f85\u673a
p896
I2
sVGmail
p897
I8
sVFor
p898
I2
sV315
p899
I2
sV\u5f00\u53d1\u65b9\u5f0f
p900
I2
sV#
I6
sV\u56de\u53bb
p901
I2
sVeldxin7
p902
I2
sV\u6b21\u4e8e
p903
I2
sV\u6587\u6863
p904
I8
sV\u8212\u670d
p905
I2
sV\u884c\u8d27
p906
I2
sV\u53d1\u81f3
p907
I2
sV\u4ecb\u8d28
p908
I2
sV\u4e00\u7ec4
p909
I2
sV\u7968\u4ef7
p910
I2
sVEngadget
p911
I2
sV\u51fa\u73b0
p912
I32
sV\u53d6\u4ee3
p913
I2
sV.1.7
p914
I2
sV\u770b\u5b8c
p915
I2
sV\u5e7f\u544a
p916
I20
sV\u770b\u5b98
p917
I2
sV\u90a3\u4e2a
p918
I8
sV\u5c06
I116
sV\u51e0\u4ef6\u4e8b
p919
I4
sV\u73a9\u73a9
p920
I4
sV\u72b6\u51b5
p921
I2
sV\u56de\u5230
p922
I2
sV\u5b5d\u656c\u7236\u6bcd
p923
I2
sV\u5927\u578b
p924
I4
sV\u4e00\u4ebf\u4eba
p925
I2
sV\u6709\u610f\u601d
p926
I4
sV\u90a3\u4e48
p927
I16
sV\u6291\u6216
p928
I2
sV\u55bd
I2
sV\u5e38\u89c1
p929
I2
sV\u53ef
I24
sV\u4f20\u9012
p930
I6
sV\u8fbe\u6210\u534f\u8bae
p931
I2
sV\u6c60\u5858
p932
I2
sVMarket
p933
I10
sV\u8d28\u7591
p934
I8
sV\u5988
I4
sV\u90a3\u4eba
p935
I2
sV\u7528\u60ef
p936
I2
sV\u5165\u624b
p937
I4
sV\u8fdb\u5316
p938
I6
sV\u90a3\u4e9b
p939
I30
sV\u533a\u57df
p940
I2
sV\u8a00\u8bba
p941
I4
sV\u5143
I16
sV\u5b9e\u529b
p942
I4
sV\u5b89\u6392
p943
I2
sV\u5468\u56f4
p944
I2
sV\u57df\u540d
p945
I2
sV15283066788
p946
I2
sV\u7ea2\u80bf
p947
I2
sV\u98de
I6
sV\u2461
I2
sV\u968f\u540e
p948
I2
sV\u5927\u8111
p949
I2
sV\u5c71
I2
sV\u83cf\u6cfd\u5e02
p950
I2
sV\u5269\u4e0b
p951
I2
sV\u5728\u4e8e
p952
I8
sV\u91cd\u8e48\u8986\u8f99
p953
I2
sV\u8981\u6c42
p954
I12
sV\u62fc\u97f3
p955
I6
sV\u623f\u95f4
p956
I8
sV\u840c
I4
sV\u623f\u95e8
p957
I2
sVE72
p958
I2
sV\u6211\u4eec
p959
I144
sV\u770b\u597d
p960
I2
sV\u4e86\u5230
p961
I2
sV\u4e0d\u600e\u4e48
p962
I2
sV\u552f\u72ec
p963
I2
sV\u8ba9
I78
sV\u542c
I6
sV\u5b89\u606f
p964
I4
sV\u751f\u4ea7
p965
I4
sV\u7b49\u7ea7
p966
I2
sV\u6b64\u8f6e
p967
I2
sVOn
p968
I6
sVOh
p969
I2
sV\u86cb
I2
sV\u9ad8\u94c1
p970
I4
sV\u5206\u88c2
p971
I2
sV\u4e0d\u6210\u65b9\u5706
p972
I2
sV\u515a
I2
sV\u6620\u5c04
p973
I4
sV\u4efb
I2
sVOS
p974
I22
sV\u62a2\u6551\u65e0\u6548
p975
I2
sV\u65c1\u89c2\u8005
p976
I2
sV\u7ee7\u627f
p977
I4
sV\u767b\u573a
p978
I4
sV\u5de8\u5934
p979
I2
sVAndy
p980
I4
sV\u6d46\u7cca
p981
I2
sV\u5de8\u5927
p982
I4
sV\u600e\u6837
p983
I4
sV\u7530\u7530
p984
I8
sV\u68c9\u82b1
p985
I2
sV\u751f\u5b58
p986
I8
sV\u5455\u5410
p987
I2
sV\u4e0a\u4f20
p988
I2
sV\u539f\u8ba2
p989
I2
sVbe
p990
I4
sV\u8017\u8d44
p991
I4
sV\u4f01\u4e1a\u90ae\u7bb1
p992
I2
sV\u89c2\u770b
p993
I2
sVby
p994
I8
sV\u4e3b\u5e2d
p995
I6
sV\u845b\u658c
p996
I2
sV\u5916\u4f20
p997
I4
sV\u6263
I4
sV\u6ca1\u6709\u52c7\u6c14
p998
I4
sV\u5c0f\u82bd
p999
I2
sV\u5341\u7c73
p1000
I2
sV\u4e43\u81f3
p1001
I2
sV\u79c3\u9876
p1002
I2
sV\u552e\u4ef7
p1003
I10
sV\u5e02\u573a\u4efd\u989d
p1004
I2
sV\u5f53\u7136
p1005
I10
sV\u8fd8\u6709
p1006
I30
sV\u7ea2\u8272
p1007
I2
sV\u7167\u7247
p1008
I22
sV\u5b89\u6170
p1009
I4
sV\u552c
I2
sV\u7ec8\u7a76
p1010
I2
sV\u5468\u540e
p1011
I2
sV\u9769\u547d\u6027
p1012
I6
sV:
I414
sV\u7740
I62
sV\u7ec4\u5408
p1013
I4
sV\u7528\u6237
p1014
I194
sV\u5426\u8ba4
p1015
I4
sVFi
p1016
I10
sV\u505a
I98
sV10.16
p1017
I2
sVGDP
p1018
I4
sV\u5916\u4ea4
p1019
I2
sV\u4e66
I4
sV\u7d2f\u8ba1
p1020
I2
sVpushmail
p1021
I2
sVui
p1022
I2
sV\u516d\u4e03\u5e74
p1023
I2
sV\u5f53\u524d
p1024
I2
sVuc
p1025
I2
sV\u754c\u9762
p1026
I12
sV\u5c0f\u96e8
p1027
I2
sV\u5219
I16
sV\u53d1\u56de
p1028
I2
sV\u6740\u624b\u950f
p1029
I2
sV\u795e\u673a
p1030
I2
sV\u7535\u89c6
p1031
I10
sV\u8d27
I2
sV\u9ad8\u5cf0\u8bba\u575b
p1032
I2
sV\u6307\u5bfc
p1033
I2
sV\u51cf\u901f
p1034
I2
sV\u9632\u6c11\u4e4b\u53e3
p1035
I2
sV\u6253\u54cd
p1036
I2
sV\u6307\u5b9a
p1037
I6
sV\u4f20\u64ad\u65b9\u5f0f
p1038
I2
sV\u53d8
I4
sV\u6709\u65f6\u5019
p1039
I2
sVWCDMA
p1040
I2
sV\u6211\u4f1a
p1041
I2
sV\u4e0a\u4e70
p1042
I2
sV\u56fd\u9645
p1043
I8
sViCloud
p1044
I24
sV\u8d44\u8d39
p1045
I8
sV\u6839\u6e90
p1046
I2
sV\u8bf7\u8fdb
p1047
I2
sV\u4e66\u7c4d
p1048
I4
sVME525
p1049
I2
sV\uff1a
I520
sVCPU
p1050
I4
sV\u6c42\u5a5a
p1051
I4
sV\u603b\u76d1
p1052
I2
sV\u4e91\u5357
p1053
I4
sV.2.1
p1054
I2
sVTapjoy
p1055
I4
sV\u62fe\u8352
p1056
I2
sV\u672a
I8
sV\u7eaf
I2
sV\u7ef4\u4fee
p1057
I2
sV\u5b9e\u4e8b\u6c42\u662f
p1058
I2
sV\u56e2\u961f
p1059
I26
sV\u5e0c\u671b
p1060
I26
sV\u5360\u6709\u7387
p1061
I2
sV\u5fc5
I2
sV\u4e00\u7247
p1062
I2
sV\u53d1\u8d77
p1063
I4
sV\u540e\u7aef
p1064
I2
sV\u5237\u65b0
p1065
I2
sV\u65e9
I2
sV\u5fae\u4fe1
p1066
I20
sVtaobao
p1067
I2
sV\u9769\u547d
p1068
I10
sV\u53e3\u9999\u7cd6
p1069
I2
sV\u8d64\u88f8\u88f8
p1070
I4
sV\u575a\u6301
p1071
I18
sV\u6405\u6d51
p1072
I2
sV\u961f
I4
sV\u8ffd\u8e2a
p1073
I2
sV\u6311\u6218\u6027
p1074
I2
sV\u548c\u8baf\u7f51
p1075
I2
sV\u6e56\u5357\u536b\u89c6
p1076
I2
sV\u7a7a\u65e0\u4e00\u4eba
p1077
I2
sV\u5224\u65ad
p1078
I2
sV\u534e\u5c14\u8857\u65e5\u62a5
p1079
I2
sViMessages
p1080
I2
sV\u63d2
I2
sVubuntu
p1081
I2
sV\u4ee4
I4
sVStream
p1082
I2
sV\u9996\u63a8
p1083
I2
sV\u4e0a\u4e07
p1084
I2
sV\u5171
I2
sV\u6700\u6df1
p1085
I2
sV\u5e74\u4ea7
p1086
I2
sV\u9999\u5473
p1087
I2
sV\u6559\u7236
p1088
I2
sV\u5927\u5bb6
p1089
I98
sVfirefox
p1090
I2
sV\u4fa5\u5e78\u5fc3\u7406
p1091
I2
sV\u9014\u4e2d
p1092
I2
sV\u8bb0\u4e0b
p1093
I4
sV\u8010\u7528
p1094
I2
sV\u53cd\u7701
p1095
I2
sV\u7eaf\u6b63
p1096
I2
sV\u4e92\u901a
p1097
I2
sV\u88c5\u903c
p1098
I2
sV\u81ea\u7206
p1099
I6
sV\u79c1\u623f
p1100
I2
sVMulti
p1101
I2
sV\u672b\u4e86
p1102
I2
sV\u4ebf\u7f8e\u91d1
p1103
I4
sV\u6b4c
I2
sV\u6807\u6e05
p1104
I2
sV\u6240\u8f96
p1105
I2
sV\u4e4b\u7c7b
p1106
I2
sVHTC
p1107
I24
sV\u8fd9\u5e2e
p1108
I4
sV\u7f51\u53cb
p1109
I20
sV\u7b2c\u4e09\u5c4a
p1110
I2
sV\u6253\u4eba
p1111
I2
sV\u9a82
I2
sV\u54e5\u54e5
p1112
I2
sV\u7aef\u7684
p1113
I6
sV\u56de\u5e94
p1114
I4
sVFoursquare
p1115
I8
sV\u5e7f\u5927
p1116
I2
sV\u8c8c\u4f3c
p1117
I2
sV\u521d
I2
sV\u8db3\u8ff9
p1118
I2
sV\u6ca1\u7528\u8fc7
p1119
I6
sV\u5b66\u751f
p1120
I4
sV10.04
p1121
I2
sV\u5e2e\u5e2e\u5fd9
p1122
I4
sV\u591f\u7528
p1123
I2
sV\u6625\u610f\u76ce\u7136
p1124
I2
sV\u4eba
I118
sVRTMPTE
p1125
I2
sV\u4f4f
I2
sV\u764c
I2
sVQ
I4
sV\u5927\u5b66
p1126
I4
sV\u5e74\u6536\u5165
p1127
I2
sV\u676d\u5dde
p1128
I4
sV\u75c5\u6bd2
p1129
I24
sV\u53f0\u9636
p1130
I2
sVApple
p1131
I6
sV\u6367
I2
sV\u5929\u53d1
p1132
I2
sVOne
p1133
I10
sV\u5e76\u4e14
p1134
I20
sVallow
p1135
I2
sV\u4e1d\u6beb
p1136
I8
sV\u6839\u636e
p1137
I8
sV\u81ea\u7136
p1138
I4
sV\u51b2\u7a81
p1139
I2
sV\u652f\u4ed8
p1140
I28
sV\u529b
I20
sV\u767d\u5929
p1141
I2
sV\u4e3a\u540d
p1142
I2
sV\u5145\u65a5
p1143
I2
sV\u60f3\u5230
p1144
I2
sV\u7136\u800c
p1145
I8
sV\u4ea7\u4e1a
p1146
I8
sV\u5230
I96
sV\u82b1\u62f3\u7ee3\u817f
p1147
I2
sV2015
p1148
I6
sV2014
p1149
I2
sV\u6267\u884c
p1150
I4
sV2011
p1151
I20
sV2010
p1152
I20
sV2012
p1153
I12
sV\u6548\u679c
p1154
I10
sV\u53e6\u7c7b
p1155
I2
sV\u626b\u63cf
p1156
I6
sVMobileMe
p1157
I16
sV\u4e3b\u52a8
p1158
I2
sV\u8bcd\u6c47
p1159
I2
sVVIA
p1160
I2
sV\u7ee7
I4
sVSay
p1161
I2
sV\u9080\u8bf7
p1162
I12
sV\u6781\u4e3a
p1163
I4
sVMFUND
p1164
I2
sV\u5207\u83dc
p1165
I2
sV\u6297\u4e89
p1166
I2
sV\u7a7a\u95f4
p1167
I16
sV\u6613
I2
sVE52
p1168
I2
sV'
I6
sV\u66a8
I2
sV\u53f0\u957f
p1169
I2
sV\u62d6\u57ae
p1170
I2
sV\u5fae
I136
sV\u6c14\u8c61\u65e5
p1171
I2
sV\u7535
I2
sV\u5404\u65b9
p1172
I2
sV\u4e00\u70b9
p1173
I6
sV\u591a\u70b9
p1174
I4
sV\u672f\u540e
p1175
I2
sV\u4fe1\u7528\u5361
p1176
I18
sV\u5047
I2
sV\u6781\u4e86
p1177
I2
sV\u6240\u8c13
p1178
I18
sV\u61d2
I2
sV\u6587\u660e
p1179
I6
sV\u725b
I14
sV\u5237\u673a
p1180
I16
sV\u601d\u7ef4
p1181
I6
sV\u4e0a\u73ed\u65f6\u95f4
p1182
I2
sV\u5904\u7406\u5668
p1183
I2
sV\u6f2b\u753b
p1184
I2
sVDefy
p1185
I2
sV\u5f39\u7a97
p1186
I4
sV\u9650\u65f6
p1187
I2
sV\u8f6f\u4ef6\u5f00\u53d1
p1188
I2
sV\u5206
I4
sV\u7206\u6599
p1189
I12
sV\u602a\u4e0d\u5f97
p1190
I2
sV\u4e0e
I74
sV\u751f\u6b7b\u672a\u535c
p1191
I2
sV\u6c11\u5de5
p1192
I2
sV\u6253\u5b57\u901f\u5ea6
p1193
I2
sV\u4ea9\u4ea7
p1194
I2
sV\u7206\u65b0
p1195
I2
sV\u5bb9\u91cf
p1196
I2
sV\u6b66\u6797
p1197
I4
sV\u62d2\u7edd
p1198
I2
sV\u6b22\u8fce
p1199
I36
sV\u5947\u602a
p1200
I2
sV\u81ea\u706d
p1201
I2
sV\u817e\u8baf
p1202
I54
sV\u7ed9
I106
sV\u7b2c\u4e09\u65b9
p1203
I12
sVOMS
p1204
I2
sV\u80fd
I74
sV\u5927\u5934
p1205
I2
sVYoulu
p1206
I2
sV\u7535\u5b50\u4e66
p1207
I6
sV\u5927\u5927
p1208
I10
sV\u963b\u6b62
p1209
I4
sV\u4fe1\u4ef6
p1210
I2
sV\u7248\u6743
p1211
I2
sV\u4fe1\u4efb
p1212
I4
sV\u671d\u4e5d\u665a\u4e94
p1213
I2
sV\u7537\u540c\u5b66
p1214
I2
sVWWDC2011
p1215
I2
sVWWDC2012
p1216
I2
sV4000
p1217
I2
sV\u8bf4\u8d77
p1218
I2
sV\u63a8\u8350
p1219
I38
sV\u5a5a\u793c
p1220
I2
sV\u5343\u5143
p1221
I2
sVBIS
p1222
I16
sV\u667a\u80fd\u673a
p1223
I4
sV\u8ffd\u8d76
p1224
I2
sV\u5305\u5305
p1225
I2
sV\u8f7b\u677e
p1226
I2
sV\u5927\u597d\u4e8b
p1227
I2
sV\u82e6\u82e6
p1228
I4
sV\u5fd8
I2
sV\u73af\u5883\u4f18\u7f8e
p1229
I2
sV\u57fa\u4e8e
p1230
I14
sV\u82e6
I4
sV\u76ee\u524d\u4e3a\u6b62
p1231
I2
sV\u7248\u672c
p1232
I20
sV\u65d7\u8230
p1233
I2
sV\u6587\u672c
p1234
I2
sV\u80f8\u90e8
p1235
I2
sV\u4e9b\u8bb8
p1236
I2
sV\u4e54\u5e03\u65af
p1237
I26
sV\u4e8b\u4ef6
p1238
I10
sV\u5e97
I2
sV\u5434\u5f81
p1239
I10
sV\u672c\u8eab
p1240
I8
sV\u6c27\u5316\u9499
p1241
I2
sV\u673a\u4f1a
p1242
I10
sV\u5931\u58f0\u75db\u54ed
p1243
I2
sVMIUI
p1244
I10
sV\u5012\u95ed
p1245
I2
sV\u8fe5\u7136\u4e0d\u540c
p1246
I2
sV\u5e97\u5458
p1247
I2
sVApsalar
p1248
I2
sV\u6c1b\u56f4
p1249
I4
sVh
I2
sV\u6df1\u77e5
p1250
I2
sV\u9633\u6027\u53cd\u5e94
p1251
I2
sV\u64cd\u4f5c
p1252
I14
sV\u7206\u51fa
p1253
I4
sV\u5174\u594b
p1254
I6
sViPad
p1255
I46
sV\u4e8c
I2
sV\u597d\u6d88\u606f
p1256
I4
sV\u771f\u4e0d
p1257
I2
sV\u5957\u8bdd
p1258
I4
sVPR
p1259
I2
sVPS
p1260
I2
sVPP
p1261
I2
sVPV
p1262
I2
sV\u817f\u811a
p1263
I2
sV\u60a8
I14
sV\u53d8\u7126
p1264
I2
sV\u7531
I26
sVPC
p1265
I14
sV\u771f\u4e2a
p1266
I2
sV\u80a1\u7968
p1267
I4
sVPM
p1268
I2
sV\u5e76
I44
sV\u5305\u5403
p1269
I2
sV\u8fd1\u65e5
p1270
I2
sV\u5177\u6b7b
p1271
I2
sV\u65e0\u6cd5\u6bd4\u62df
p1272
I4
sV\u624b\u673a\u53f7
p1273
I2
sV\u5305\u542b
p1274
I2
sV\u6050\u6015
p1275
I2
sV\u6216\u662f
p1276
I2
sV\u4fdd\u62a4
p1277
I2
sV\u5927\u5e45
p1278
I2
sV\u4e00\u76f4
p1279
I30
sVGameloft
p1280
I2
sV\u8fd9\u5bb6
p1281
I2
sV\u8bf4\u8bdd
p1282
I26
sVcn
p1283
I2
sV\u5a4a\u5b50
p1284
I4
sV\u89e3\u8bfb
p1285
I4
sVcy
p1286
I2
sV\u6295
I4
sV\u5f97
I24
sV\u6362\u70b9
p1287
I2
sV\u539f
I6
sV\u82e5\u5e72
p1288
I2
sV8.1
p1289
I2
sV\u7231\u7c73
p1290
I6
sV\u84dd\u8272
p1291
I2
sV\u6500\u722c
p1292
I2
sV\u8033\u719f\u80fd\u8be6
p1293
I2
sVPhone
p1294
I30
sV\u9632
I4
sV\u867d\u4e0d
p1295
I2
sV\u4e2d\u9ad8\u7ea7
p1296
I2
sVGeo
p1297
I2
sV\u4e16\u754c\u5404\u5730
p1298
I2
sV>
I2
sV\u4ecd
I8
sV\u660e\u65e5
p1299
I2
sV\u5305\u559d
p1300
I2
sV\u5730\u94c1
p1301
I6
sV\u4fdd\u6301
p1302
I8
sV\u522b\u4ee5\u4e3a
p1303
I2
sV\u53cb\u60c5\u94fe\u63a5
p1304
I2
sV\u53d1\u8868
p1305
I20
sV\u8fd9\u4e48\u4e45
p1306
I2
sV\u8d8b\u52bf
p1307
I6
sV\u5e7f\u5dde
p1308
I4
sV\u6709\u4eba
p1309
I18
sV\u96be\u53d7
p1310
I2
sV\u4e00\u7779
p1311
I2
sV\u53d1\u884c
p1312
I2
sV\u524d\u8fdb
p1313
I2
sV\u6d0b
I2
sV\u5dee\u4e0d\u591a
p1314
I10
sV\u5e7f\u6cdb\u4f20\u64ad
p1315
I2
sV\u4eba\u7c7b\u6587\u660e
p1316
I2
sV\u6307\u51fa
p1317
I2
sV\u6ca1\u5c11
p1318
I2
sV\u54cd\u5e94
p1319
I2
sV\u6539\u8fdb
p1320
I8
sV\u53d1\u70e7\u53cb
p1321
I2
sV\u771f\u4f2a
p1322
I2
sVandroid
p1323
I14
sV\u524d\u8f66
p1324
I2
sV\u5747
I6
sV\u4e54\u5e2e\u4e3b
p1325
I4
sVv1
p1326
I2
sVv3
p1327
I2
sVv4
p1328
I4
sV\u706b\u79cd
p1329
I2
sVv7
p1330
I2
sV\u8fd8\u662f
p1331
I68
sV\u79fb\u52a8\u7535\u8bdd
p1332
I2
sV\u529b\u56fe
p1333
I2
sV\u6709\u4e2a
p1334
I8
sV\u6b27\u5143
p1335
I2
sV\u5de5\u5546\u5c40
p1336
I2
sV\u9057\u61be
p1337
I14
sV\u5934\u6761
p1338
I4
sV\u5b9a\u4e49
p1339
I2
sV\u505a\u4e8b
p1340
I2
sV\u519b\u961f
p1341
I2
sV\u81ea\u7531
p1342
I4
sV\u70b9\u51fb
p1343
I6
sV\u578b\u53f7
p1344
I2
sV\u56de\u590d
p1345
I56
sV\u7f16
I2
sV\u6284\u88ad
p1346
I6
sV\u63e1\u4f4f
p1347
I2
sV\u6df7\u5408
p1348
I4
sV\u5c0f\u7ea2\u4f1e
p1349
I6
sV\u665a\u70b9
p1350
I2
sV\u8fd9\u65b9\u9762
p1351
I2
sV\u5305\u56f4
p1352
I2
sV\u53d8\u73b0
p1353
I2
sV\u6839\u672c
p1354
I2
sV\u62ff\u8d77
p1355
I2
sV\u7248
I74
sV\u5c0a\u91cd
p1356
I2
sV\u8fd1\u6765
p1357
I2
sV\u63cf\u8ff0
p1358
I4
sV\u8fd9\u5929
p1359
I2
sV\u653f\u5e9c
p1360
I10
sV\u540c\u6837
p1361
I4
sV\u731b\u51fb
p1362
I6
sV\u72ec\u5bb6
p1363
I12
sV\u673a\u5668\u732b
p1364
I4
sV\u83dc\u5e02\u573a
p1365
I4
sV\u7834\u89e3
p1366
I12
sV\u8fdb\u5c55
p1367
I2
sV\u52a0\u5165
p1368
I24
sV\u680f
I4
sV\u786c
I2
sV\u5947\u6587
p1369
I2
sVwostore
p1370
I2
sV\u660e\u663e
p1371
I12
sV\u5373\u5c06
p1372
I26
sV\u622a\u6b62
p1373
I2
sV\u9996\u65e5
p1374
I2
sV\u660e\u660e
p1375
I2
sV\u4e2d\u534e\u4eba\u6c11\u5171\u548c\u56fd\u4e2d\u592e\u519b\u4e8b\u59d4\u5458\u4f1a
p1376
I2
sVVIP
p1377
I4
sV\u4e1a\u6b63
p1378
I2
sV\u660e\u661f
p1379
I4
sV\u5927\u5c0f
p1380
I2
sV\u592a\u4e45
p1381
I2
sV\u96c6\u6210
p1382
I2
sV\u4e4b
I30
sV\u4f11\u7720
p1383
I2
sV\u660e\u667a
p1384
I2
sV\u91d1\u51e4
p1385
I2
sV\u70b9\u513f
p1386
I2
sV\u62ed\u76ee\u4ee5\u5f85
p1387
I4
sV\u53d1\u8a00\u4eba
p1388
I4
sV\u767b\u5f55
p1389
I8
sV\u53e6\u8f9f\u8e4a\u5f84
p1390
I2
sV\u81ea
I10
sV12.
p1391
I2
sV\u513f\u620f
p1392
I2
sV\u4e94\u516d
p1393
I2
sV\u6570\u5b57\u4fe1\u606f
p1394
I2
sV\u5361\u8d34
p1395
I2
sV\u6307\u5357
p1396
I2
sV\u5b9a\u4f4d
p1397
I12
sV\u9884\u5b9a
p1398
I6
sV\u602a
I2
sV\u793e\u4ea4\u751f\u6d3b
p1399
I2
sV\u53d1\u8a00
p1400
I2
sV\u800c\u4e14
p1401
I6
sV\u5982\u706b\u5982\u837c
p1402
I2
sV\u81ea\u7406
p1403
I4
sV9.7
p1404
I2
sV\u9759\u5f85
p1405
I6
sV\u5bcc\u7fc1
p1406
I6
sV\u5b9a\u4f1a
p1407
I2
sV\u7ad9
I8
sV\u4e0d\u4e9a\u4e8e
p1408
I2
sV\u6ee1
I6
sV\u9a8c\u8bc1
p1409
I2
sV\u826f\u77e5
p1410
I2
sV\u4e0a\u5343\u4eba
p1411
I2
sV\u5c0f\u9e1f
p1412
I4
sV\u53f3
I2
sV\u697c\u4e0b
p1413
I2
sV\u627e
I22
sV16.
p1414
I2
sV\u83b7\u6089
p1415
I2
sV\u8f6f\u4ef6\u5382\u5546
p1416
I2
sV\u7591\u95ee
p1417
I4
sV\u6307\u63a7
p1418
I2
sV\u53cd\u6b63
p1419
I2
sV\u63a8
I14
sV\u672c\u8d28
p1420
I2
sV\u8fde\u63a5
p1421
I4
sV\u51c6\u786e
p1422
I10
sV\u6709\u611f\u4e8e
p1423
I2
sVLost
p1424
I2
sV\u9119\u89c6
p1425
I6
sV\u5fc3\u810f\u75c5
p1426
I4
sV\u6b63
I14
sV\u8282\u76ee
p1427
I4
sV\u9996\u64ad
p1428
I2
sV\u94c1\u8def
p1429
I2
sV\u5012\u8ba1\u65f6
p1430
I2
sV\u77ac\u95f4
p1431
I2
sV\u591a\u6b3e
p1432
I2
sV\u96be\u514d
p1433
I2
sV\u8d77
I6
sV\u773c\u5149
p1434
I4
sV\u6302
I4
sV\u6da8\u4ef7
p1435
I2
sV\u575a\u5b9a
p1436
I4
sV\u5de5\u827a
p1437
I2
sV\u60ca\u95fb
p1438
I2
sV\u8fd9\u6761
p1439
I4
sV\u6218\u7565\u4f19\u4f34
p1440
I4
sV\u4eba\u751f
p1441
I4
sV\u4e70\u8f66
p1442
I2
sVsjbus
p1443
I2
sV\u8001\u8fdc
p1444
I2
sV\u54c1\u724c
p1445
I8
sV\u795e\u50cf
p1446
I2
sV\u65e0\u79c1
p1447
I2
sV\u65e5\u7a0b
p1448
I2
sV\u521b\u4e1a\u8005
p1449
I12
sV\u7f6a
I2
sV\u4e0a\u79f0
p1450
I2
sV\u8f93\u6389
p1451
I2
sVSNS
p1452
I2
sV\u5176
I56
sV\u6253\u7740
p1453
I2
sV\u56de\u6765
p1454
I12
sV\u7eff
I4
sV\u5343\u5e74
p1455
I2
sV\u665a\u4e0a
p1456
I10
sV\u8840\u6848
p1457
I2
sV\u51e0\u6761
p1458
I2
sVRTMP
p1459
I2
sV\u80e1\u9526\u6d9b
p1460
I2
sV\u610f\u5473\u7740
p1461
I8
sV\u9177\u72d7
p1462
I2
sV+
I40
sV\u5927\u6218
p1463
I4
sV\u540d\u5355
p1464
I2
sVGame
p1465
I2
sV\u89c1\u8bc1
p1466
I2
sV\u591a\u540d
p1467
I2
sV\u79c1\u5bc6
p1468
I2
sV\u4e94\u5e74
p1469
I6
sV\u7cbe\u7075
p1470
I2
sV\u5927\u6279
p1471
I2
sV\u4e5f
I178
sV\u968f\u610f
p1472
I2
sV\u5bc6\u7535
p1473
I2
sV\u6536\u76ca
p1474
I6
sV\u706b\u836f
p1475
I4
sV\u9996\u5bb6
p1476
I2
sV\u4e0d\u9519
p1477
I32
sV\u8d76\u5feb
p1478
I2
sV\u6700\u540e
p1479
I24
sV\u4e00\u5206\u949f
p1480
I2
sV\u6df1\u5733\u5e02\u653f\u5e9c
p1481
I2
sV\u725b\u5c44
p1482
I2
sV\u671f\u671b
p1483
I2
sV\u6446\u644a
p1484
I2
sV\u5143\u592a
p1485
I2
sV\u4ea7\u751f
p1486
I6
sV\u80cc\u79bb
p1487
I2
sVStan
p1488
I2
sV\u95e8\u6237
p1489
I2
sV\u5fae\u76d8
p1490
I2
sV\u4e4c\u7eb1
p1491
I2
sV\u4ec5\u9650
p1492
I4
sV\u7ec4\u6210
p1493
I2
sV\u5c0f\u4f19\u513f
p1494
I2
sV\u656c\u8001\u9662
p1495
I2
sV\u5076
I2
sV\u79fb
I8
sV\u8001
I12
sV\u660e\u5929
p1496
I16
sV\u6b27\u6d32
p1497
I2
sV\u4f18\u96c5
p1498
I2
sV\u4e2d\u534e\u4eba\u6c11\u5171\u548c\u56fd
p1499
I2
sV\u624b\u673a\u7f51
p1500
I2
sV\u665a\u4f1a
p1501
I2
sVDigital
p1502
I2
sV\u4e0b\u8f7d\u91cf
p1503
I12
sV\u8be6\u7ec6\u4fe1\u606f
p1504
I2
sV\u5237\u5c4f
p1505
I2
sV\u6ca1\u843d
p1506
I2
sV\u5438\u5f15
p1507
I2
sV\u4eca
I2
sV\u54ce
I2
sV\u5144\u5f1f
p1508
I14
sV5530
p1509
I2
sVTaobao
p1510
I2
sV\u7b97\u7edd
p1511
I2
sV\u8c2d\u548f\u6587
p1512
I8
sV\u5584\u826f
p1513
I2
sV\u603b\u4f1a
p1514
I2
sV......
p1515
I44
sV\u521b\u8d62
p1516
I2
sV\u65f6\u95f4\u6bb5
p1517
I2
sV\u867d\u7136
p1518
I14
sV\u518d
I48
sV\u300c
I10
sV\u5907\u6848
p1519
I6
sV\u6076\u5fc3
p1520
I4
sV\u8ba4\u8bc6
p1521
I2
sV\u91ce\u5fc3
p1522
I2
sV\u8ba4\u8bc1
p1523
I2
sV\u5370\u8c61
p1524
I4
sV\u6c34
I4
sV\u4e0d\u5bb9\u5ffd\u89c6
p1525
I2
sV\u7528\u573a
p1526
I2
sV\u91c7\u53d6
p1527
I2
sV\u65c5
I2
sV\u4e48
I72
sV\u9ed8\u54c0
p1528
I2
sVMotion
p1529
I2
sV\u65e9\u5728
p1530
I4
sVthey
p1531
I2
sV\u624d\u80fd
p1532
I8
sV\u773c\u6cea
p1533
I6
sV\u900f\u9732
p1534
I2
sV\u7f51\u7ad9
p1535
I62
sV\u7a81\u7136
p1536
I8
sVWildfire
p1537
I4
sV\u6c42\u60c5
p1538
I2
sV\u4e0d\u9760
p1539
I6
sV\u75ab\u82d7
p1540
I2
sV\u57fa\u77f3
p1541
I2
sV\u52a0
I2
sV\u9999\u6e2f
p1542
I6
sV\u8bf8\u4f4d
p1543
I4
sV\u5b9e\u65f6
p1544
I2
sV\u5171\u8ba1
p1545
I2
sV\u5408\u6cd5\u5316
p1546
I4
sV\u90e8\u5206
p1547
I18
sV\u8c03\u8282
p1548
I2
sV\u5b66\u4e60
p1549
I2
sV\u591a\u957f\u65f6\u95f4
p1550
I4
sV\u5b9e\u65bd
p1551
I2
sV\u653e\u56de
p1552
I2
sV\u8fc5\u96f7
p1553
I8
sV\u62a5\u9053
p1554
I10
sV\u4e0b\u9762
p1555
I8
sV\u622a\u56fe
p1556
I18
sV\u86ca\u60d1
p1557
I2
sV\u4e86\u6709
p1558
I6
sV\u5e2e
I18
sV\u540c\u4e00
p1559
I2
sV\u8fdc
I4
sV\u8ba1\u7b97
p1560
I2
sVB
I4
sV\u5f88\u8fdc
p1561
I2
sV\u8fc7\u5ea6
p1562
I10
sV\u52a0\u6cb9
p1563
I2
sV\u8ddf
I22
sV\u5408\u60c5\u5408\u7406
p1564
I2
sV\u6709\u70b9
p1565
I2
sV\u54e5
I4
sV\u67e5\u770b
p1566
I6
sV\u6545\u800c
p1567
I2
sV\u8d70\u8fdb
p1568
I2
sVdonfv
p1569
I2
sV\u9884\u671f
p1570
I2
sV\u5e2e\u624b
p1571
I2
sV\u6389\u4e0b\u6765
p1572
I2
sV\u9057\u5fd8
p1573
I2
sVFYI
p1574
I2
sV\u4f24\u5fc3
p1575
I4
sV\u5b81\u53ef
p1576
I2
sV\u770b\u6cd5
p1577
I6
sV\u7a83\u4ee5\u4e3a
p1578
I2
sVComodo
p1579
I6
sV\u5c1d\u8bd5
p1580
I6
sVQt
p1581
I8
sV\u91cc
I34
sV\u65e0\u7a77
p1582
I2
sVQQ
p1583
I54
sV\u540c\u4ec1
p1584
I2
sV\u74f6\u9888
p1585
I2
sV\u673a\u5668\u4eba
p1586
I2
sV\u54ea\u91cc
p1587
I4
sVQB
p1588
I2
sVa5220p
p1589
I2
sV\u8df3\u6881\u5c0f\u4e11
p1590
I2
sV\u5e73\u884c\u7ebf
p1591
I2
sV\u82af\u7247
p1592
I10
sV\u4e00\u4e0b
p1593
I32
sV\u5165\u53e3
p1594
I2
sV\u8eab\u4f53
p1595
I10
sV7.3
p1596
I8
sV\u8fc5\u901f
p1597
I2
sV\u6613\u7528\u6027
p1598
I2
sV\u8bbe\u8ba1
p1599
I30
sV\u771f\u7684
p1600
I18
sV\u81ea\u4f20
p1601
I2
sVDCM
p1602
I4
sV\u7ea7
I6
sV\u4e00\u4e2a
p1603
I178
sV\u767e\u59d3
p1604
I2
sV\u7b79\u5907
p1605
I2
sV\u5176\u4ed6
p1606
I32
sV\u521b\u59cb\u4eba
p1607
I12
sV\u65c1
I2
sV\u6fc0\u52a8\u4eba\u5fc3
p1608
I2
sV\u4e2d\u56fd\u5171\u4ea7\u515a\u4e2d\u592e\u59d4\u5458\u4f1a
p1609
I2
sV\u4e1a\u5185
p1610
I2
sV\u6a2a\u6d4b
p1611
I6
sV\u540c
I2
sV\u53e5
I6
sV\u771f\u76f8
p1612
I14
sV\u8ba4\u540c
p1613
I2
sV\u65e0\u56fe\u65e0
p1614
I2
sV\u7cfb
I2
sV\u4e07
I24
sV\u4e00\u4e8b
p1615
I2
sV\u9636\u6bb5
p1616
I4
sV\u4e00\u4e9b
p1617
I20
sV\u72b6\u6001
p1618
I10
sV\u516c\u53f8\u5458\u5de5
p1619
I2
sV\u597d\u5947
p1620
I2
sV\u575a\u5f3a
p1621
I2
sVHappy
p1622
I2
sV\u514d\u716e
p1623
I2
sV\u5176\u4e2d
p1624
I18
sV\u60f3\u6cd5
p1625
I4
sV\u6ca1\u6574
p1626
I2
sV\u81ea\u4fdd
p1627
I2
sV\u4e00\u5ea6
p1628
I2
sV\u62e8\u6253
p1629
I4
sV\u9881\u5956\u5178\u793c
p1630
I2
sV\u4fe1\u4e0d\u4fe1
p1631
I2
sV\u4e00\u4ef6
p1632
I2
sV\u5c31\u8ba9
p1633
I2
sVDawn
p1634
I2
sVcom
p1635
I22
sV\u4e00\u4efd
p1636
I6
sV\u5b89\u5353
p1637
I12
sV\u4fdd\u5b58
p1638
I2
sV\u6bcd\u5973\u4fe9
p1639
I2
sV\u4e00\u4f1a
p1640
I2
sV\u6570\u7801\u76f8\u673a
p1641
I2
sV\u957f\u7bc7\u5927\u8bba
p1642
I2
sV\u9762\u8c8c
p1643
I2
sV\u672c
I2
sV\u7d22\u53d6
p1644
I2
sV\u51fa\u79df\u8f66
p1645
I6
sV\u7eb8\u7b14
p1646
I2
sV\u4e0e\u95e8
p1647
I2
sV\u573a\u666f
p1648
I4
sVTOP2000
p1649
I2
sV\u4e3a\u6b64
p1650
I4
sV\u60c5\u573a
p1651
I2
sV\u4e00\u4f4d
p1652
I6
sV\u4e0d\u660e\u771f\u76f8
p1653
I2
sV\u7b2c\u4e09\u5bb6
p1654
I2
sV\u542f\u8499
p1655
I2
sV\u4e30\u5bcc
p1656
I6
sV\u524d\u4e24\u5929
p1657
I2
sV\u56e2\u961f\u7cbe\u795e
p1658
I2
sV\u5e86\u5178
p1659
I2
sV\u76c8\u7736
p1660
I4
sV\u9996\u5e2d
p1661
I6
sV\u8d70
I16
sV\u8eab\u4e3a
p1662
I2
sV\u8840\u6d41
p1663
I2
sV\u4ece\u6765
p1664
I4
sVRubin
p1665
I4
sV\u7248\u9762\u8bbe\u8ba1
p1666
I2
sV\u95ee
I8
sViMailG
p1667
I2
sV\u8e0f\u5b9e
p1668
I2
sV\u5c4a\u65f6
p1669
I6
sV\u7c73
I6
sV\u4e3b\u6d41
p1670
I8
sV\u8eab\u4efd
p1671
I2
sV\u653e\u51fa
p1672
I4
sV\u5728\u7ebf
p1673
I2
sV\u76ee\u7684
p1674
I8
sV\u81f3\u4eca
p1675
I4
sVHTML5
p1676
I4
sVY
I2
sV\u4fdd\u5b88
p1677
I2
sVMini
p1678
I6
sV\u9996\u5ea6
p1679
I6
sV1600
p1680
I12
sV\u81ea\u4ece
p1681
I2
sVcontact
p1682
I4
sV..........
p1683
I4
sV\u51f8
I4
sVthe
p1684
I2
sV\u4e0d\u901a
p1685
I2
sV\u672a\u80fd
p1686
I2
sV\u673a\u7528
p1687
I2
sV\u4e13\u9898\u62a5\u9053
p1688
I2
sV\u653e\u5230
p1689
I2
sV\u6bd2\u5976\u7c89
p1690
I2
sV\u6ed1\u7a3d
p1691
I2
sV\u7231
I14
sV\u4e0d\u5927
p1692
I2
sV\u592a
I40
sV\u642c
I2
sV\u767d\u9886
p1693
I6
sV\u501f\u67aa
p1694
I4
sV\u7238
I2
sV\u4f18\u9177
p1695
I2
sV\u6740\u4eba\u72af
p1696
I2
sV\u7535\u8111
p1697
I20
sVMessager
p1698
I2
sV\u60b2\u75db
p1699
I6
sV\u7ebd\u7ea6
p1700
I2
sV\u7f8e\u597d
p1701
I2
sV\u7f8e\u5973
p1702
I4
sV\u4ea7\u7269
p1703
I2
sVNexus
p1704
I8
sV\u7b14\u8bb0\u672c
p1705
I8
sV\u6d4b\u8bd5\u9636\u6bb5
p1706
I2
sV\u6807\u51c6
p1707
I12
sV\u7f51\u6c11
p1708
I18
sV\u8fd0\u8425\u5b98
p1709
I4
sV\u6ca1\u6709
p1710
I164
sV/
I764
sV\u5f00\u7bb1
p1711
I6
sV\u4f9d\u6b21
p1712
I2
sV\u5165\u515a
p1713
I2
sV\u770b\u4e0a\u53bb
p1714
I4
sV\u65e0\u7f18
p1715
I2
sV\u6c47
I2
sV\u4e0a\u7f51
p1716
I16
sV\u968f\u673a
p1717
I6
sV\u5468\u65e5
p1718
I4
sV\u51d1\u70ed\u95f9
p1719
I2
sV\u8e69\u811a
p1720
I2
sV\u51b3\u4e0d\u4f1a
p1721
I2
sV\u4f9d\u9644
p1722
I2
sV\u795e\u5668
p1723
I2
sV\u624b\u673a\u82af\u7247
p1724
I2
sV\u4eba\u6c11\u5e01
p1725
I16
sVTattoo
p1726
I2
sVCut
p1727
I2
sV\u89c1\u8c05
p1728
I2
sV\u978b
I2
sV\u9996\u5c4f
p1729
I2
sV\u8ddf\u98ce
p1730
I2
sV\u6c42\u6551
p1731
I2
sV\u8f6f\u786c\u4ef6
p1732
I2
sV\u4e00\u53f7\u7ebf
p1733
I2
sV\u65e0\u7ebf
p1734
I18
sV\u539f\u5b9a
p1735
I4
sV\u5496\u5561
p1736
I2
sV\u4e0a\u7ebf
p1737
I20
sV\u5671\u5934
p1738
I8
sV\u5e26
I14
sV\u5b89\u5168
p1739
I26
sV\u82f9\u679c
p1740
I114
sV\u60c5
I12
sV\u6027\u80fd
p1741
I2
sV\u77ed\u671f\u5185
p1742
I2
sVSynchronica
p1743
I2
sV\u8bcd\u5178
p1744
I4
sV\u5927\u65e9
p1745
I2
sV\u5669\u68a6
p1746
I4
sV\u662f\u4e0d\u662f
p1747
I18
sV\u4e1a\u52a1
p1748
I20
sV\u8111\u888b
p1749
I6
sV\u5e9e\u5927
p1750
I2
sV\u6587\u5b57
p1751
I10
sV\u8005
I10
sV\u6210\u957f\u6027
p1752
I2
sV\u65b9\u9762
p1753
I12
sV\u5e7f\u544a\u8d39
p1754
I2
sV\u62a5\u9519
p1755
I2
sV\u5b9e\u60e0
p1756
I2
sV\u5c3d
I6
sV\u5c5e\u6027
p1757
I2
sV\u7518\u4e8e
p1758
I8
sV\u5c4f\u95e8
p1759
I2
sVWindows
p1760
I48
sV\u9f13\u52b1
p1761
I2
sV\u4e0d\u8c19\u4e16\u4e8b
p1762
I2
sV\u65e0\u5904\u4e0d\u5728
p1763
I4
sV\u4f24\u5bb3
p1764
I4
sV\u9661
I2
sV\u8054\u901a
p1765
I20
sV\u5f00\u7aef
p1766
I4
sV\u7ae0\u5b50\u6021
p1767
I4
sV\u6628\u5929
p1768
I12
sV\u7279
I2
sV\u6d77\u8c5a
p1769
I12
sV\u5f88\u611f\u5174\u8da3
p1770
I2
sV\u770b\u6765
p1771
I10
sV\u6625\u6696\u82b1\u5f00
p1772
I2
sV\u3010
I162
sV\u8054\u53d1\u79d1
p1773
I6
sV\u5f53\u4e2d
p1774
I2
sV\u4f1a
I146
sV\u66dd\u5149
p1775
I16
sV\u865a\u62df\u5316
p1776
I2
sV\u901a\u77e5
p1777
I16
sV\u5fae\u7fa4
p1778
I4
sV\u6d3b\u8dc3
p1779
I8
sV\u8d62\u5f97
p1780
I4
sV\u6ed1\u94c1\u5362
p1781
I2
sV\u4f83\u5927\u5c71
p1782
I2
sV\u50bb
I12
sV\u5404\u5730
p1783
I4
sV\u6df7\u6218
p1784
I2
sV\u6447\u6447\u5934
p1785
I2
sV\u670d\u52a1
p1786
I82
sV\u6df7\u5408\u578b
p1787
I2
sVmobile20
p1788
I6
sV\u540d\u5bb6
p1789
I2
sVunencrypted
p1790
I2
sV\u5ba3\u544a
p1791
I4
sV\u98a0\u8986
p1792
I2
sV\u5feb\u6765
p1793
I8
sV\u8272\u60c5
p1794
I2
sV\u5bb6\u91cc
p1795
I2
sV\u4f9d\u65e7
p1796
I2
sV\u8fd0\u8425\u5546
p1797
I10
sV\u7535\u5b50\u90ae\u4ef6
p1798
I2
sV\u901b\u5546\u573a
p1799
I2
sV\u5904\u4e8e
p1800
I14
sV\u5927\u4e2d\u534e
p1801
I2
sV\u4e13\u7528\u7248
p1802
I6
sV\u65e9\u5df2
p1803
I6
sVTableau
p1804
I2
sV6981
p1805
I2
sV\u9996\u53d1
p1806
I24
sVscarcity
p1807
I2
sV\u7528\u5de5
p1808
I2
sV\u4e2d\u56fd\u7535\u4fe1\u96c6\u56e2
p1809
I2
sV\u66dd\u51fa
p1810
I2
sV\u9996\u53f0
p1811
I2
sV\u540d\u5b57
p1812
I12
sV\u8bcd\u5e93
p1813
I8
sVM2F
p1814
I6
sV\u963f
I2
sV\u75be
I2
sV\u6247
I2
sV\u8868\u8ff0
p1815
I2
sV\u66f2\u6298
p1816
I2
sV\u53ee\u549a
p1817
I2
sV\u7cbe\u786e
p1818
I2
sV\u96c6\u5408
p1819
I2
sV\u6709\u5229\u4e8e
p1820
I2
sV\u591a\u5c11
p1821
I20
sV\u60f3\u60f3
p1822
I4
sV\u6700\u5dee
p1823
I2
sV\u5c0f\u9053\u6d88\u606f
p1824
I2
sV\u6700\u5c0f
p1825
I4
sV\u77db\u76fe
p1826
I2
sV\u542c\u8bc1\u4f1a
p1827
I6
sV\u7816\u95e8
p1828
I2
sV\u4e00\u5927\u5806
p1829
I2
sV\u9650\u91cf\u7248
p1830
I2
sV\u4e8c\u91cd\u594f
p1831
I2
sV\u51bb
I2
sV\u6e90\u4e8e
p1832
I2
sV\u4fdd\u6301\u6c89\u9ed8
p1833
I4
sV\u65e9\u5c31
p1834
I2
sV\u9769\u65b0
p1835
I2
sV\u60e8\u4e0d\u5fcd\u7779
p1836
I2
sV\u6d41\u91cf
p1837
I10
sV\u8f7d\u5165
p1838
I2
sV\u4e00\u5207\u90fd\u662f
p1839
I2
sV\u5f53\u4f5c
p1840
I6
sV\u4e2d\u56fd\u8054\u901a
p1841
I2
sVcan
p1842
I2
sV\u6c38\u8fdc
p1843
I4
sV\u51fa\u4e16
p1844
I2
sV\u5fc3\u810f
p1845
I2
sV\u4e24\u90e8
p1846
I2
sV\u4ece\u6b64
p1847
I2
sV\u5f0f
I8
sV\u6ce5\u9cc5
p1848
I10
sV\u5173\u952e
p1849
I6
sVDropbox
p1850
I4
sV\u4eba\u9645\u6c9f\u901a
p1851
I2
sV\u672c\u5468\u4e00
p1852
I2
sV\u7f8e\u56fd
p1853
I24
sV\u7f8e\u56fe
p1854
I2
sV\u6dd8
I8
sV\u77e5\u8db3
p1855
I2
sV\u795e\u5947
p1856
I2
sVPushMail
p1857
I2
sV\u5b89\u5fbd
p1858
I2
sV\u7cbe\u795e
p1859
I2
sV\u5929\u6c14
p1860
I10
sV\u8d1f\u8d23\u4eba
p1861
I4
sV\u9996\u5148
p1862
I4
sV\u731b\u6599
p1863
I2
sV\u90c1\u90c1\u5be1\u6b22
p1864
I2
sV\u6027\u8da3
p1865
I2
sVRT
p1866
I4
sV\u5305\u62ec
p1867
I20
sV\u9500\u552e
p1868
I14
sV\u4e0a\u73a9
p1869
I2
sV\u83b7\u6551
p1870
I2
sV\u4f5c\u7528
p1871
I4
sV\u8c4c\u8c46\u835a
p1872
I4
sV\u6bc1
I2
sV\u4f55\u65b9\u795e\u5723
p1873
I2
sV.15
p1874
I2
sV\u79cd
I2
sV1956
p1875
I2
sV\u6709\u798f
p1876
I4
sV\u7279\u8272
p1877
I8
sV\u7535\u8d39
p1878
I4
sV\u4e0a\u73ed
p1879
I8
sV\u50ac\u676f
p1880
I2
sV\u9690\u85cf
p1881
I2
sV\u4e03
I2
sV\u9886\u8896
p1882
I2
sV\u51b3\u80dc
p1883
I4
sVyeah
p1884
I2
sV\u5c0f
I28
sV\u5927\u534a\u5929
p1885
I2
sVer
p1886
I2
sV\u6162\u5916
p1887
I2
sV\u591a\u5e74
p1888
I4
sV\u6ce8\u5b9a
p1889
I16
sV\u73af\u5883
p1890
I12
sV\u6df1\u601d
p1891
I2
sV\u8bdd\u9898
p1892
I20
sV\u5927\u6865
p1893
I2
sV\u5f71\u89c6
p1894
I4
sV\u7d22\u5c3c
p1895
I4
sV\u6ca1\u6b7b
p1896
I2
sV\u6700\u5feb
p1897
I4
sV511
p1898
I2
sV\u4e00\u5757\u513f
p1899
I2
sV\u5fd8\u5374
p1900
I2
sV\u8f83
I2
sV\u5c0f\u4f19\u5b50
p1901
I2
sV15000
p1902
I2
sV\u8367\u5e55
p1903
I2
sV\u4e4b\u4e00
p1904
I10
sV\u4e4b\u4e09
p1905
I2
sV\u4e00\u8fde\u4e32
p1906
I2
sV\u88ad
I2
sV\u82b1
I2
sV\u5b9e\u4e60\u751f
p1907
I2
sV\u53bb
I38
sV\u653e\u5f03
p1908
I6
sV\u7701\u4efd
p1909
I4
sV\u54b1\u4eec
p1910
I6
sVU8i
p1911
I4
sV\u8ba8\u8bba
p1912
I12
sV\u666e\u534e\u6c38\u9053
p1913
I2
sV\u6307\u671b
p1914
I2
sV\u641c\u72d0\u516c\u53f8
p1915
I2
sV\u662f\u975e
p1916
I4
sV\u7a81\u7834
p1917
I2
sV\u60f3\u6362
p1918
I6
sV\u82f1\u8bed
p1919
I2
sV\u7279\u6b8a\u5b57\u7b26
p1920
I2
sV\u680f\u76ee
p1921
I2
sV\u6e2f\u884c
p1922
I2
sVMail
p1923
I8
sV\u5b98\u7f51
p1924
I8
sV\u601d
I2
sV\u73b0\u4ee3
p1925
I2
sV\u4e4b\u4e8e
p1926
I4
sV\u5e2d\u95f4
p1927
I2
sV\u60b2
I4
sV\u6b27\u670b
p1928
I2
sVLinux
p1929
I4
sV\u73af\u8282
p1930
I4
sV]
I26
sV\u4fbf\u662f
p1931
I2
sV\u5f3a\u70c8
p1932
I2
sV\u9669
I4
sV\u52a9\u624b
p1933
I8
sVWeb
p1934
I18
sVTrending
p1935
I2
sV\u8fd9\u6b4c
p1936
I2
sVIncredible
p1937
I6
sV\u6fb3\u5927\u5229\u4e9a\u4eba
p1938
I2
sV\u6700\u5927
p1939
I30
sV\u83b7\u53d6
p1940
I10
sV\u6536\u7a0e
p1941
I2
sV\u65e0\u7591
p1942
I2
sV\u6234
I2
sV\u7838
I2
sV\u7f8e\u5316
p1943
I2
sV\u53ea\u597d
p1944
I2
sV\u653f\u6cbb
p1945
I6
sV\u4e00\u5b63\u5ea6
p1946
I2
sV\u8054\u7cfb\u65b9\u5f0f
p1947
I4
sV\u5634\u91cc
p1948
I2
sV\u865a\u62df
p1949
I12
sV\u77a9\u76ee
p1950
I4
sV\u5e7f\u6cdb
p1951
I10
sVInstagram
p1952
I8
sV\u8fd9\u6b21
p1953
I8
sV\u5546\u4eec
p1954
I2
sV\u60f3
I62
sV\u5feb\u6377
p1955
I4
sV\u8fd9\u6b3e
p1956
I12
sVx854
p1957
I2
sV\u7528\u5904
p1958
I2
sV\u6700\u597d
p1959
I8
sV\u7535\u8bdd
p1960
I20
sV\u75c5\u5e8a
p1961
I2
sV\u5916\u754c
p1962
I6
sV\u7684\u6162
p1963
I2
sV\u5420\u58f0
p1964
I2
sV\u53d8\u5f62\u91d1\u521a
p1965
I2
sV\u5fae\u7b11
p1966
I6
sV18760058368
p1967
I2
sV\u671d
I4
sV\u7ed3\u8d26
p1968
I2
sV\u7f51\u6613
p1969
I6
sV\u9664\u4e86
p1970
I12
sV\u6253\u7b97
p1971
I4
sV3
I146
sV\u8d8a\u6765\u8d8a
p1972
I14
sV\u521a\u521a\u5f00\u59cb
p1973
I6
sV\u9650\u5236
p1974
I6
sV\u9002\u914d
p1975
I8
sV\u7ebf\u62a5
p1976
I2
sV\u4e3a\u6211\u6240\u7528
p1977
I2
sV\u4eec
I64
sV\u53ef\u80fd\u6027
p1978
I2
sV\u90aa\u6076
p1979
I4
sVPPCGeeks
p1980
I4
sV\u82f1\u8d85
p1981
I2
sVGHz
p1982
I2
sVLariver
p1983
I4
sVCOO
p1984
I4
sV\u653e\u5927
p1985
I4
sV\u5929\u671d
p1986
I8
sV\u4f01\u4e1a\u540d\u79f0
p1987
I2
sV\u59d1\u5a18
p1988
I2
sV\u57fa\u7840
p1989
I12
sV\u5357\u5468
p1990
I2
sVBeta
p1991
I14
sV\u5317\u65b9
p1992
I2
sV\u6e05\u4e00\u8272
p1993
I2
sV\u7ae5\u978b
p1994
I2
sV\u8f6c
I4
sV\u6ca1\u6cd5
p1995
I4
sV\u804a\u5929
p1996
I2
sVOEM
p1997
I16
sV\u6784\u60f3
p1998
I2
sV\u8c01
I50
sV\u54c8\u8036\u514b
p1999
I4
sV\u4e00\u6b21\u6027
p2000
I2
sV\u5fc5\u8981
p2001
I2
sV\u7236\u4eb2
p2002
I2
sV\u5c71\u4e1c\u7701
p2003
I2
sV\u5feb\u62a2
p2004
I2
sV\u5ba4
I2
sV\u827e\u745e
p2005
I2
sV\u4e2d
I102
sV\u5927\u5927\u7684
p2006
I2
sV\u5065\u5eb7
p2007
I2
sV\u72ec\u88c1\u8005
p2008
I2
sVDMCA
p2009
I2
sV\u4e0a\u5fae\u535a
p2010
I2
sV\u5bc6\u7801
p2011
I4
sV\u591a\u591a
p2012
I2
sV\u4f1a\u8bae\u8bb0\u5f55
p2013
I2
sV\u5435\u67b6
p2014
I2
sVN900
p2015
I2
sV\u613f\u610f
p2016
I2
sV\u51e0\u9053
p2017
I2
sV\u4e00\u4e2a\u6708
p2018
I10
sV\u53cb\u5f55
p2019
I2
sV\u767d
I4
sV\u4e94\u5341
p2020
I2
sVService
p2021
I4
sV\u8fd1\u573a
p2022
I8
sV\u5c71\u4e1c
p2023
I2
sVIntoMobile
p2024
I2
sV\u4f34\u968f
p2025
I2
sVtouch
p2026
I4
sV\u642c\u5230
p2027
I2
sV\u865a\u60ca
p2028
I4
sV\u7ef4\u6301\u73b0\u72b6
p2029
I2
sV56.6
p2030
I2
sV\u897f\u6e56\u533a
p2031
I2
sViphone4
p2032
I2
sV\u7f8e\u5143
p2033
I4
sV\u7838\u70c2
p2034
I2
sV\u542c\u8bf4
p2035
I2
sV\u8bed\u6cd5
p2036
I2
sV2500
p2037
I8
sV\u65e0\u7720
p2038
I2
sV\u5237\u5361
p2039
I4
sV\u7ecf\u8425
p2040
I6
sV\u4e89\u53d6
p2041
I2
sV\u5e78\u5b58\u8005
p2042
I2
sV\u5e94\u6025
p2043
I2
sVMary
p2044
I2
sV\u5177\u5907
p2045
I8
sV\u4eba\u8109
p2046
I2
sV\u52a8
I2
sV\u5c31\u81ea
p2047
I4
sV\u6309\u7167
p2048
I2
sV\u6c34\u80fd\u8f7d\u821f
p2049
I2
sV\u73b0\u91d1
p2050
I2
sV\u8feb\u4e0d\u53ca\u5f85
p2051
I2
sV\u6350\u6b3e
p2052
I6
sV\u6b63\u70b9
p2053
I4
sVpowered
p2054
I2
sV\u7eb7\u4e89
p2055
I2
sV\u65e9\u5b89
p2056
I2
sV\u6076\u5316
p2057
I2
sV\u73cd\u60dc
p2058
I4
sV\u6ee1\u9762
p2059
I2
sV\u6709\u6548\u9014\u5f84
p2060
I2
sV\u6253\u7834
p2061
I2
sV\u62c6\u8fc1
p2062
I2
sV\u89c2\u5bdf
p2063
I2
sVStore
p2064
I36
sV\u5b89\u597d
p2065
I2
sV\u5176\u4ed6\u4eba
p2066
I2
sV\u5de5\u8d44
p2067
I4
sV\u4eb2\u4eba
p2068
I4
sV\u5927\u5c0f\u5199
p2069
I4
sV\u6742\u4e71
p2070
I2
sV\u70ed\u60c5
p2071
I2
sV\u7edf\u8ba1\u5206\u6790
p2072
I6
sV\u6076\u52a3
p2073
I2
sV\u62c9
I6
sV\u804a
I4
sV\u5750
I4
sV\u91d1\u57ce\u6b66
p2074
I2
sV\u63ed\u79d8
p2075
I6
sV\u5475\u5475
p2076
I10
sV\u732b\u54aa
p2077
I2
sV\u63a9\u8033\u76d7\u94c3
p2078
I2
sV\u5bcc\u6709
p2079
I2
sVAK47
p2080
I2
sV\u4eb2\u4eec
p2081
I2
sV\u591a\u5bb6
p2082
I4
sV\u8fd9\u6837
p2083
I38
sV\u5c11\u5973
p2084
I2
sV\u4f24\u53e3
p2085
I2
sV\u805a\u4f1a
p2086
I6
sV\u53f0
I4
sV\u5960\u5b9a
p2087
I2
sV\u544a\u77e5
p2088
I2
sV\u7a3b\u8349
p2089
I4
sV\u5927\u6d0b
p2090
I2
sV\u63ed\u793a
p2091
I2
sV\u6587\u5316
p2092
I10
sV\u54d2
I2
sV\u559c\u7231
p2093
I2
sV\u9c9c\u6d3b
p2094
I2
sV\u504f\u89c1
p2095
I2
sV\u5b9e\u540d\u5236
p2096
I2
sV\u770b\u5230
p2097
I38
sV\u5fc5\u8bfb
p2098
I2
sV\u5bf8
I2
sV\u957f\u4e45
p2099
I4
sV\u5185\u5d4c
p2100
I2
sV\u8ddf\u8fdb
p2101
I6
sV\u5343\u4e07
p2102
I2
sV\u6ee1\u8840
p2103
I2
sV\u7ecf\u9a8c
p2104
I6
sV\u4f2a
I2
sV\u4ebf
I18
sV\u62cd\u7167
p2105
I6
sV\u5404\u4f4d
p2106
I66
sV\u8282\u594f
p2107
I2
sVS40
p2108
I4
sV\u611f\u5174\u8da3
p2109
I4
sV\u5468\u667a\u741b
p2110
I2
sV\u6362
I6
sV\u84e6\u7136\u56de\u9996
p2111
I2
sV\u80c3\u53e3
p2112
I2
sV\u5b9a\u6027
p2113
I2
sV\u5bf9\u8bdd
p2114
I2
sV\u4e16\u4eba
p2115
I2
sV\u5927\u7237
p2116
I2
sV\u5403
I6
sV\u7684
I2586
sV\u5a92\u4f53\u62a5\u9053
p2117
I6
sV\u81ea\u5bb6
p2118
I6
sV\u6253\u67b6
p2119
I4
sV\u4e94\u4e2a
p2120
I2
sV\u552e\u8d27\u5458
p2121
I4
sV\u97e9\u5bd2
p2122
I2
sV\u548c\u8393\u53cb
p2123
I2
sV\u6ee1\u76d8\u7686\u8f93
p2124
I2
sV\u6837\u5b50
p2125
I2
sV\u65c1\u8fb9
p2126
I4
sV\u80cc\u53db
p2127
I2
sV\u81ea\u5bfb
p2128
I2
sV\u6d41\u884c
p2129
I4
sV\u7b2c\u4e09\u4e2a
p2130
I2
sV\u515c\u91cc
p2131
I2
sV\u600e\u4e48
p2132
I20
sV\u95ee\u9898
p2133
I58
sV\u5e02\u8bdd\u8d39
p2134
I2
sV\u624b\u91cc
p2135
I2
sV\u5927\u7247
p2136
I4
sV\u58f0
I2
sV\u8ba4\u77e5\u5ea6
p2137
I2
sV\u5f53\u5730
p2138
I2
sV\u5e72\u51c0
p2139
I4
sV\u7f8e\u4e3d
p2140
I2
sV\u6728\u9a6c
p2141
I2
sV\u5404\u4e2a
p2142
I2
sV\u6562\u4e8e
p2143
I6
sV\u4e2a
I84
sV\u4e4b\u540e
p2144
I44
sV\u8bef\u533a
p2145
I2
sV\u9762\u989d
p2146
I4
sV\u70ed\u7ebf
p2147
I2
sV\u5e74\u6765
p2148
I2
sV\u4fbf
I4
sV\u62cd
I8
sV\u7684\u8bdd
p2149
I10
sV\u540e\u53f0
p2150
I2
sV\u67e5\u6536
p2151
I2
sVBrowser
p2152
I2
sV\u5176\u5b83
p2153
I6
sV\u7eb5\u5bb9
p2154
I2
sV\u5bb6\u88c5
p2155
I2
sV\u7535\u963b
p2156
I2
sVSP
p2157
I6
sV\u4f46\u613f
p2158
I2
sVSK
p2159
I2
sV\u5b98\u65b9
p2160
I26
sV\u540e\u53d1
p2161
I2
sV\u603b\u7ecf\u7406
p2162
I6
sV\u5176\u5b9e
p2163
I12
sV\u9001
I6
sV\u9605
I2
sV\u534f\u52a9
p2164
I2
sV\u5f39\u51fa
p2165
I2
sV\u9664\u53bb
p2166
I4
sV\u4e00\u5b9a
p2167
I22
sV\u6709\u6240
p2168
I4
sV\u4e91\u7aef
p2169
I2
sV\u534a\u540a\u5b50
p2170
I2
sV\u82f1\u6587\u5355\u8bcd
p2171
I6
sV\u4e00\u5bb6
p2172
I24
sV\u53d7\u6b22\u8fce
p2173
I4
sV\u73b0\u8eab
p2174
I6
sV\u767d\u72fc
p2175
I4
sV\u5357
I2
sV\u906d\u9047\u6218
p2176
I2
sVbugs
p2177
I2
sV\u826f\u597d
p2178
I6
sV\u5eb7\u7199
p2179
I4
sV\u4e00\u5806
p2180
I2
sV\u9887
I2
sV\u4ec0\u4e48
p2181
I96
sVsoon
p2182
I2
sV\u3002
I1840
sV\u5316
I12
sV\u53d8\u5f97
p2183
I2
sV\u6587\u4ef6
p2184
I2
sV\u4e8b\u60c5
p2185
I14
sV\u4e3b\u7ad9
p2186
I4
sV\u54af
I2
sV\u8fde\u4e2a
p2187
I2
sV\u4fe1\u5b88\u8bfa\u8a00
p2188
I2
sV\u6076\u4fd7
p2189
I2
sV\u8349\u82a5
p2190
I2
sV\u57fa\u672c
p2191
I6
sV\u51fa\u552e
p2192
I4
sV\u75c5
I4
sV\u4e0a\u6bd4
p2193
I2
sVces
p2194
I2
sV\uff5e
I16
sV\u540e\u8d77\u4e4b\u79c0
p2195
I2
sV\u6162
I4
sV\u2464
I2
sV\u4fe9
I2
sV\u5e94\u7528\u7a0b\u5e8f
p2196
I16
sV\u6491\u4f1e
p2197
I2
sV\u5b9e\u7528
p2198
I6
sV\u65e0\u6bd4
p2199
I2
sV\u6fc0\u6d3b
p2200
I8
sV\u9884\u89c8\u7248
p2201
I6
sV\u5185\u5fc3
p2202
I2
sV\u5ef6\u8bef
p2203
I2
sV\u540c\u5fb7
p2204
I2
sV\u4eae\u70b9
p2205
I8
sV\u3017
I2
sVevent
p2206
I2
sV\u80fd\u591f
p2207
I22
sV\u6253\u6597
p2208
I2
sV7
I24
sV\u4eca\u591c
p2209
I4
sV\u624b
I2
sV\u6c49\u5b57
p2210
I2
sVsymbian
p2211
I2
sV\u4e8b\u6001
p2212
I2
sV\u603b\u7f16\u8f91
p2213
I8
sV\u5e1d\u90fd
p2214
I2
sV\u8ddf\u8d34
p2215
I2
sV\u540c\u5fd7
p2216
I6
sV\u4eca\u5929
p2217
I62
sVAppStore
p2218
I6
sV\u4e1c\u4e09\u73af
p2219
I2
sV\u662f\u56e0\u4e3a
p2220
I8
sV\u4fee\u6b63
p2221
I2
sV\u5632\u7b11
p2222
I10
sV\u8f6c\u884c
p2223
I2
sV\u5ba3\u4f20
p2224
I6
sV\u5df2\u6709\u8fd1
p2225
I2
sVMaps
p2226
I2
sV\u90a3\u6837
p2227
I4
sV\u8bb0\u5f97
p2228
I4
sV\u4e0d\u4ec5\u4ec5
p2229
I2
sV\u7fa4\u7ec4
p2230
I2
sV\u4e00\u5929
p2231
I16
sV\u67e5\u6740
p2232
I2
sV\u7ad9\u957f
p2233
I6
sV\u90ae\u7bb1
p2234
I18
sV\u8fd0\u884c
p2235
I8
sV\u5173\u8fdb
p2236
I2
sV\u767e\u4ebf
p2237
I2
sV\u4e3b\u7ba1
p2238
I2
sV\u5e73\u677f\u8f66
p2239
I2
sVAwords
p2240
I2
sV\u5728\u6821
p2241
I2
sV\u5a74\u513f
p2242
I2
sV\u9884\u77e5
p2243
I2
sV\u73b0\u8c61
p2244
I4
sV\u975e\u51e1
p2245
I2
sV\u7eb3\u7a0e\u4eba
p2246
I4
sV\u5f00\u653e\u6ce8\u518c
p2247
I2
sV\u4f59\u5bb6
p2248
I2
sV\u54e6
I8
sVGod
p2249
I4
sV\u5f55\u5236
p2250
I4
sV\u5f00\u6e90
p2251
I4
sV\u706b\u901f
p2252
I2
sV\u5341\u5927
p2253
I4
sV\u51fa\u54c1
p2254
I4
sV7500
p2255
I2
sV\u80a1\u4e1c
p2256
I2
sViAd
p2257
I2
sVmacx
p2258
I2
sV\u7b97\u6cd5
p2259
I10
sVThe
p2260
I12
sV\u725b\u4eba
p2261
I2
sV\u997f\u6655
p2262
I2
sV\u76d1\u7763
p2263
I2
sV\u6697\u53f7
p2264
I2
sV2.06
p2265
I2
sV\u64cd\u4f5c\u7cfb\u7edf
p2266
I14
sV\u6765\u81ea
p2267
I20
sV\u8981\u4e48
p2268
I8
sViTunes
p2269
I2
sV\u5e74\u624d
p2270
I2
sV\u904f\u5236
p2271
I2
sV\u8fd0\u8f6c
p2272
I2
sV\u878d\u8d44
p2273
I4
sV\u5f53\u521d
p2274
I6
sV\u5706
I2
sV\u4e00\u5e2e
p2275
I6
sV\u8eab\u5f71
p2276
I2
sV\u9605\u8bfb
p2277
I22
sV\u4fa6\u6d4b
p2278
I2
sV\u77e5\u9053
p2279
I66
sV\u5440
I10
sV\u9b45\u65cf
p2280
I10
sV\u514d\u8d39\u624b\u673a
p2281
I2
sV\u96f6\u552e
p2282
I2
sV\u62db\u5f85
p2283
I4
sV\u5fdd
I4
sV\u2460
I2
sV\u7f51\u7edc
p2284
I28
sV\u9a74
I4
sV\u4e00\u5e74
p2285
I6
sV\u9501
I4
sV\u805a\u5408
p2286
I4
sV\u6ca1\u7528
p2287
I4
sV\u5d07\u62dc
p2288
I2
sV\u5c24\u5176
p2289
I10
sV\u6ca1\u7535
p2290
I2
sV\u4f18\u7f8e
p2291
I6
sV\u6709\u6743
p2292
I2
sV\uff1d
I2
sV\u4fdd\u62a4\u8d39
p2293
I2
sV\u989c\u8272
p2294
I2
sV\u9053\u5fb7\u8d25\u574f
p2295
I2
sV\u5bfb\u6c42
p2296
I4
sV\u673a\u6784
p2297
I4
sV\u771f\u662f
p2298
I10
sVFlipboard
p2299
I8
sVSpaces
p2300
I2
sV\u51fa\u53d1
p2301
I2
sV\u6709\u671b
p2302
I2
sV\u51fa\u53bb
p2303
I2
sVS60
p2304
I20
sV\u7ef4\u6301
p2305
I4
sV\u79c1\u4fe1
p2306
I8
sV\u5b9e\u73b0
p2307
I4
sV\u4e0a\u6d77
p2308
I6
sV\u5341\u5e74
p2309
I4
sV\u79c0\u4e3d
p2310
I2
sV\u98ce\u6c14
p2311
I2
sV\u5783\u573e
p2312
I2
sVTMT
p2313
I2
sV\u665a\u5b89
p2314
I8
sV\u6307\u5357\u9488
p2315
I2
sV\u4fe1\u606f
p2316
I26
sV\u8fd1\u671f
p2317
I2
sV\u4e0d\u80fd
p2318
I38
sV\u81ea\u5e26
p2319
I12
sV\u521a
I4
sV\u4e00\u5f20
p2320
I12
sV\u6781\u6162
p2321
I2
sV\u4e66\u5e97
p2322
I2
sVMy
p2323
I4
sV\u5230\u8fbe
p2324
I2
sV\u89e3\u6563
p2325
I2
sV\u6df1\u5ea6
p2326
I12
sV\u5ac9\u5992
p2327
I4
sV\u5927\u77f3
p2328
I4
sV\u4e0d\u80af
p2329
I2
sV\u6350\u70b9
p2330
I2
sVN
I4
sV\u6253\u626e
p2331
I4
sV\u4ebf\u6b21
p2332
I6
sVSoftware
p2333
I2
sV\u5929\u7f51
p2334
I2
sV\u9996\u4e2a
p2335
I2
sV\u7ba1\u7406\u5c42
p2336
I8
sVMM
p2337
I22
sV\u5e72
I10
sV\u505c\u6b62
p2338
I2
sV\u5f88\u4e45\u6ca1
p2339
I2
sV\u65e0\u6cd5
p2340
I34
sV\u5634\u4e0a
p2341
I2
sV\u6302\u51fa
p2342
I2
sV\u5e9e\u7136\u5927\u7269
p2343
I2
sV\u9996\u4ed8
p2344
I4
sV\u6570\u91cf
p2345
I12
sV\u6253\u6298
p2346
I2
sV\u751f\u6d3b
p2347
I24
sV\u4eca\u5e74
p2348
I20
sV\u4e00\u5fae
p2349
I2
sV\u70ae
I4
sV\u5c31
I174
sV\u79d1\u6280
p2350
I26
sV\u6d6e\u8e81
p2351
I4
sV\u66f4
I60
sV\u5929\u7ffc
p2352
I12
sV\u80fd\u5e72
p2353
I2
sV\u5b66\u597d
p2354
I2
sV\u6ee1\u8db3
p2355
I6
sV000
p2356
I2
sV\u65e0
I20
sV\u7b2c\u4e00\u5929
p2357
I2
sV\u51e1\u4e8b
p2358
I2
sV\u7fa1\u6155
p2359
I2
sV\u4e09\u6b21
p2360
I2
sV\u5185
I14
sV\u793e\u4f1a\u5b66
p2361
I2
sV\u771f\u5b9e
p2362
I12
sV\u652f\u62db
p2363
I2
sVInternet
p2364
I2
sV\u4e0d\u597d\u610f\u601d
p2365
I2
sV\u8f66\u5e93
p2366
I6
sVPIM
p2367
I2
sV\u59d4\u6258
p2368
I2
sV\u7834
I2
sV\u540c\u5b66
p2369
I18
sV...
p2370
I28
sV\u955c\u5b50
p2371
I2
sV\u6545\u969c\u7387
p2372
I2
sV\u6dcb\u96e8
p2373
I2
sV\u4f1f\u5927
p2374
I10
sV\u840c\u6b7b
p2375
I2
sV\u6562
I10
sV\u5e2e\u8f6c
p2376
I4
sV\u5b58\u50a8\u7528\u6237
p2377
I2
sV\u957f\u57ce
p2378
I6
sV\u4e07\u6b21
p2379
I2
sV\u5ddd\u822a
p2380
I2
sV\u91d1\u6c38\u54f2
p2381
I2
sVMWC
p2382
I2
sV\u6709\u6548
p2383
I2
sV\u7535\u91cf
p2384
I6
sV\u968f\u7740
p2385
I8
sV\u5f31
I4
sV\u5ef6\u8fdf
p2386
I2
sV\u81ea\u5df1
p2387
I56
sV\u73a9\u5076
p2388
I4
sV\u65b0\u95fb\u8bb0\u8005
p2389
I4
sV\u7ade\u4e89\u5bf9\u624b
p2390
I6
sV\u6350\u732e
p2391
I2
sV\u63d0\u9192
p2392
I14
sV\u6709\u8bc6\u4e4b\u58eb
p2393
I2
sV\u8d8a\u6765\u8d8a\u5c11
p2394
I2
sVLion
p2395
I4
sV\u559c\u6b22
p2396
I32
sV\u6d88\u606f
p2397
I72
sV\u5317\u7f8e
p2398
I2
sV\u81f3\u5c11
p2399
I4
sV\u4f18\u805a
p2400
I2
sVTheir
p2401
I2
sV\u5c4f\u853d
p2402
I2
sV\u8bbe\u8ba1\u5e08
p2403
I12
sV404942677
p2404
I2
sV\u706b\u8f66\u7968
p2405
I2
sV..
p2406
I2
sV\u53cd\u590d
p2407
I2
sV\u6cdb\u6ee5
p2408
I2
sV.0
p2409
I28
sV\u773c\u798f
p2410
I2
sV.2
p2411
I8
sV.3
p2412
I2
sV\u64cd
I6
sV\u738b\u529b\u5b8f
p2413
I6
sV\u80cc\u540e
p2414
I20
sVTwitter
p2415
I6
sV\u671f\u95f4
p2416
I4
sV....
p2417
I6
sV\u4e4b\u524d
p2418
I24
sV\u5931\u53bb
p2419
I4
sV\u73a9\u513f
p2420
I2
sV\u53d6\u6d88
p2421
I10
sV\u8eab\u4f53\u5065\u5eb7
p2422
I6
sV\u658c
I2
sV\u96c5\u864e
p2423
I8
sV\u64b0\u6587
p2424
I4
sV\u7c89\u4e1d
p2425
I10
sV\u4e0d\u53ef\u5426\u8ba4
p2426
I2
sVThunderbolt
p2427
I2
sVTY
p2428
I2
sV\u6d3b\u8dc3\u5ea6
p2429
I2
sVTD
p2430
I4
sV\u94fa\u5929\u76d6\u5730
p2431
I2
sVStorm8
p2432
I2
sV\u5bf9\u8c61
p2433
I10
sV\u652f\u6301
p2434
I104
sV\u5bbd\u5e26
p2435
I6
sV\u5357\u4eac
p2436
I2
sV\u8be6\u89c1
p2437
I2
sV\u540d\u4e0d\u89c1\u7ecf\u4f20
p2438
I2
sV\u8de8\u884c
p2439
I2
sV\u6279
I4
sV\u9075\u4e49
p2440
I4
sV\u4e50\u610f
p2441
I2
sV\u4e00\u5206
p2442
I4
sV\u4e00\u5207
p2443
I14
sVG20
p2444
I2
sV\u7b97\u6709
p2445
I2
sV\u5916
I4
sVgo
p2446
I2
sV\u5168\u653b\u7565
p2447
I2
sVNTalks
p2448
I4
sV\u770b\u7740
p2449
I2
sV\u8d22\u7ecf
p2450
I4
sV\u7231\u597d
p2451
I2
sVEminem
p2452
I4
sV.0.0
p2453
I2
sV.0.2
p2454
I2
sVNot
p2455
I2
sV\u8054\u8fc7
p2456
I2
sV\u8d34\u8865\u5bb6\u7528
p2457
I2
sV\u5f00\u653e
p2458
I24
sV\u8f83\u597d
p2459
I2
sV\u5448
I2
sV\u5708\u5b50
p2460
I2
sV\u6bcd
I2
sV\u5f53\u5e74
p2461
I8
sV\u5fc5\u8981\u6761\u4ef6
p2462
I2
sVappstore
p2463
I2
sV\u4e0d\u8db3
p2464
I4
sV\u5165\u4fb5
p2465
I4
sV\u9b4f\u4f20
p2466
I2
sV\u4e0b\u8c03
p2467
I2
sV\u6001\u5ea6
p2468
I8
sV\u770b\u770b
p2469
I12
sV\u554a\u554a\u554a
p2470
I2
sV\u66ff
I4
sV2.25
p2471
I4
sV\u661f\u671f
p2472
I4
sV\u660e\u6668
p2473
I2
sV\u5f3a\u63a8
p2474
I2
sV\u5341\u5206
p2475
I2
sV\u4e0d\u8d77
p2476
I6
sV\u6b8b\u9177
p2477
I2
sVdownload
p2478
I2
sV\u751f\u6001
p2479
I4
sV\u8bba\u8005
p2480
I2
sV\u526f\u603b
p2481
I2
sV\u4e66\u5305
p2482
I2
sV\u803b
I2
sV\u611f\u8c22
p2483
I30
sV\u9ec4
I2
sV\u4e09\u661f
p2484
I12
sV\u65e5\u62a5
p2485
I2
sVCCTV
p2486
I2
sV\u8fdb\u7a0b
p2487
I8
sV\u8d26
I2
sV.......
p2488
I2
sV\u4e00\u4f1a\u513f
p2489
I2
sV\u4e07\u65a4
p2490
I2
sV\u63d0\u610f\u89c1
p2491
I2
sV\u6f14\u793a
p2492
I4
sV\u6c38\u8fdc\u90fd\u662f
p2493
I2
sV\u8b66\u65b9
p2494
I2
sV\u4e0b\u8d77
p2495
I2
sV\u7b97
I4
sV\u5f3a\u52a9
p2496
I2
sV\u63a7
I2
sV\u7b97\u662f
p2497
I2
sV\u5bfc\u822a
p2498
I2
sV\u540c\u540d
p2499
I2
sV\u7b2c
I8
sV\u80fd\u529b
p2500
I6
sV\u5a5a\u5bb4
p2501
I4
sV\u76f8\u8fd1
p2502
I2
sV\u52a0\u76df
p2503
I2
sV\u4e00\u5343
p2504
I2
sV\u75c5\u5165\u818f\u8093
p2505
I2
sV\u5fc3\u91cc
p2506
I2
sVbecomes
p2507
I2
sV\u7c7b\u578b
p2508
I2
sV\u5b9e\u6218\u7ecf\u9a8c
p2509
I2
sV\u5185\u5411
p2510
I2
sV\u4e70\u623f\u5b50
p2511
I4
sV\u4f1a\u8bae
p2512
I2
sV\u4ee5
I34
sV\u5185\u542b
p2513
I4
sV\u5448\u73b0
p2514
I2
sV\u4e24\u8005
p2515
I2
sV\u72ec\u5230\u89c1\u89e3
p2516
I2
sV\u5f3a\u52bf
p2517
I6
sV\u5371\u9669
p2518
I18
sV\u6109\u60a6
p2519
I2
sV\u6068\u6b7b
p2520
I4
sV\u4e0b\u8dea
p2521
I8
sV\u6bcf\u9022
p2522
I2
sV\u50cf\u7d20
p2523
I10
sV\u751f\u610f
p2524
I4
sV\u6d41\u8113
p2525
I2
sV\u81ea\u52a8
p2526
I16
sV\u8ba8\u996d
p2527
I2
sV\u4e91
I14
sVHIV
p2528
I6
sV\u6cbe\u6cbe\u81ea\u559c
p2529
I2
sV\u4e0b\u8dcc
p2530
I2
sV\u5929\u738b
p2531
I2
sV\u96be\u770b
p2532
I4
sV\u6cfc\u51b7\u6c34
p2533
I4
sV\u5269\u623f
p2534
I4
sV\u5b57
I4
sV\u56db\u5929
p2535
I2
sV\u5ba2\u6237\u7aef
p2536
I40
sV\u4e00\u53e5
p2537
I8
sV\u8df3\u7ef3
p2538
I2
sV\u5f3a\u62c6
p2539
I4
sV\u4e00\u53f0
p2540
I10
sV\u8bef\u5bfc
p2541
I2
sV\u4e00\u53f7
p2542
I2
sV\u771f\u6b63
p2543
I2
sV\u4f30\u7b97
p2544
I2
sV\u5904
I2
sV\u4e0d\u8fc7
p2545
I32
sV\u7528\u4f5c
p2546
I4
sV\u6298\u53e0
p2547
I2
sV\u8bfb\u4e00\u8bfb
p2548
I2
sV\u770b\u4e0d\u8d77
p2549
I2
sV\u5f00\u673a
p2550
I4
sV\u800c\u6b64
p2551
I2
sV\u6700\u4f4e
p2552
I8
sViPhone
p2553
I126
sV\u4e0b\u5468\u4e00
p2554
I2
sV\u614e\u9632
p2555
I2
sV\u4f18\u8d28
p2556
I4
sV\u5f53\u5c5e
p2557
I2
sV\u6b27\u76df
p2558
I2
sV\u8f68\u9053
p2559
I2
sV\u6392\u884c
p2560
I2
sV\u4f83\u4f83\u800c\u8c08
p2561
I2
sV\u5185\u5730
p2562
I4
sV\u4e9a\u6d32
p2563
I2
sV\u603b\u548c
p2564
I2
sV\u78b0\u649e
p2565
I2
sV\u5f88\u9614
p2566
I2
sV\u97ad\u7b56
p2567
I2
sV\u6b21
I16
sV\u56f0\u6270
p2568
I2
sV\u2027
I2
sVCEO
p2569
I8
sV\u7b49\u5230
p2570
I6
sV\u4e11\u964b
p2571
I2
sV\u4f18\u8d8a
p2572
I2
sV\u9cc4
I2
sV\u8c01\u9020
p2573
I2
sV\u4e13\u9898
p2574
I2
sV\u8bca\u4e3a
p2575
I2
sV\u5343\u547c\u4e07\u5524
p2576
I2
sV\u53ef\u80fd
p2577
I38
sV\u6df1\u5165
p2578
I6
sV\u9891\u7387
p2579
I2
sV\u6885\u82b1
p2580
I2
sV\u4e0b\u8f66
p2581
I2
sV\u7206
I4
sV\u5f69\u4fe1
p2582
I2
sV\u4e0b\u8f7d
p2583
I58
sV\u7ecf\u9a8c\u603b\u7ed3
p2584
I2
sV\u79d1\u6c13
p2585
I2
sV\u5f00\u6625
p2586
I2
sV\u7ea0\u7ed3
p2587
I2
sV\u54f2\u5b66
p2588
I2
sV\u4e3a\u751f
p2589
I2
sV\u6700\u4e3a
p2590
I2
sV\u76ee\u6807
p2591
I4
sV\u53d8\u56de
p2592
I2
sV\u679c\u7c89
p2593
I16
sV\u5199\u4fe1
p2594
I2
sV\u65e9\u4e0a
p2595
I2
sV\u5343\u767e\u5ea6
p2596
I2
sV\u591a\u4f4d
p2597
I2
sV\u5f03
I2
sVSpam
p2598
I2
sV\u671d\u9c9c
p2599
I6
sV\u5927\u793c
p2600
I2
sV\u96be\u7528
p2601
I2
sV\u6390
I2
sV\u591a\u4f59
p2602
I2
sV\u5e94\u7528
p2603
I124
sV\u7164\u6cb9
p2604
I2
sV\u53d1\u4f5c
p2605
I4
sV\u5f3a\u608d
p2606
I6
sV\u597d\u8bc4
p2607
I2
sV\u6d88\u4ea1
p2608
I2
sV\u5435
I2
sV561
p2609
I2
sV\u6c34\u6027
p2610
I2
sV\u8d4c\u535a
p2611
I2
sV\u5efa\u8bae
p2612
I12
sV\u601d\u5fd6
p2613
I2
sV\u6d4f
I2
sV\u4ece
I86
sV\u65b0\u4e00\u4ee3
p2614
I2
sV\u89d2\u5ea6\u770b
p2615
I2
sV\u5efa\u8bbe
p2616
I6
sV\u53bf\u653f\u5e9c
p2617
I2
sV\u62cd\u7acb
p2618
I2
sV\u6982\u5ff5
p2619
I8
sV\u7528\u4e8e
p2620
I2
sV\u65e9\u4e8e
p2621
I4
sV\u4e00\u51fa
p2622
I2
sV\u5c71\u5be8
p2623
I10
sV\u8425\u5229
p2624
I2
sV\u4f55\u4ee5
p2625
I2
sV\u65e0\u65b0
p2626
I4
sV\u53cb\u4eba
p2627
I4
sV\u7bb4\u8a00
p2628
I2
sV\u4e0d\u89c1
p2629
I2
sV\u88c1\u5224
p2630
I2
sV(
I22
sV\u4ee3\u5de5
p2631
I14
sVU8832
p2632
I2
sV64666565
p2633
I2
sV\u4e4b\u5916
p2634
I4
sV\u65e5\u665a
p2635
I2
sVIPHONE
p2636
I2
sV\u5b95\u673a
p2637
I2
sV\u4ebf\u6237
p2638
I2
sV\u56de\u7b54
p2639
I4
sV\u63a5\u53e3
p2640
I4
sVRosner
p2641
I2
sV\u5730\u6c9f\u6cb9
p2642
I4
sV\u505a\u6cd5
p2643
I4
sV\u6df1\u57cb
p2644
I2
sV\u89c1\u9762
p2645
I2
sV\u4e0d\u8981
p2646
I16
sV\u7f51\u76d8
p2647
I2
sV\u9664\u6b64\u4e4b\u5916
p2648
I2
sV\u7aef
I4
sV\u6c57\u6c34
p2649
I2
sV\u5fc5\u987b
p2650
I8
sVImpossible
p2651
I2
sV\u63a5\u53d7
p2652
I2
sV\u5341\u56fd
p2653
I2
sV\u5feb
I22
sV\u62ff
I20
sVofficials
p2654
I2
sV\u4e09\u6240
p2655
I2
sV\u65e9\u4e9b\u65f6\u5019
p2656
I2
sV\u975e\u5e38
p2657
I62
sV\u6df1\u5733
p2658
I2
sVGood
p2659
I2
sV\u7ba1\u7406
p2660
I8
sV\u5531
I6
sV\u8d28\u91cf
p2661
I6
sV\u4e2d\u5b66\u751f
p2662
I2
sV\u8d27\u8272
p2663
I2
sV\u559c\u611f
p2664
I2
sV\u53ca
I36
sV\u9ab7\u9ac5
p2665
I4
sV\u65e0\u6570
p2666
I2
sVMeeker
p2667
I2
sV\u5c71\u5cf0
p2668
I2
sV\u5e73\u677f
p2669
I6
sV2.45
p2670
I2
sViPod
p2671
I24
sV\u7cfb\u7edf
p2672
I52
sV\u6307\u70b9
p2673
I2
sV\u4f9d\u7167
p2674
I2
sV\u5c81
I14
sV\u4f5c\u6218
p2675
I2
sV\u73a9\u5bb6
p2676
I4
sV\u738b\u5cf0
p2677
I2
sV\u73a9\u610f
p2678
I2
sV\u65f6\u957f
p2679
I6
sV\u4e22
I2
sV\u6b4c\u8bcd
p2680
I4
sVYahoo
p2681
I2
sV\u94b1
I10
sV\u63a5\u529b
p2682
I2
sV\u4e00\u573a
p2683
I8
sV\u8d5a\u94b1
p2684
I4
sV\u65e5\u672c
p2685
I14
sV\u5148
I18
sV\u7eff\u8272
p2686
I2
sV\u611f\u89c9
p2687
I10
sV\u540d\u4eba
p2688
I2
sV24505
p2689
I2
sVShareKey
p2690
I6
sV\u4fee\u6539
p2691
I6
sV\u65e5\u671f
p2692
I4
sV\u611f\u89e6
p2693
I8
sV\u751f\u65e5
p2694
I2
sV\u97e9\u56fd
p2695
I2
sV\u9009
I2
sV\u7ec4\u7ec7
p2696
I4
sV\u5f15\u8d77
p2697
I6
sVDiscuz
p2698
I4
sV\u65f6\u95f4
p2699
I34
sV\u9a9a
I2
sVcctime
p2700
I2
sV\u91cd\u8981
p2701
I32
sV\u82f9\u679c\u516c\u53f8
p2702
I10
sV\u4e0d\u884c
p2703
I6
sV\u63d0\u9ad8
p2704
I6
sV\u5fcd\u4e0d\u4f4f
p2705
I2
sVPPT
p2706
I2
sV\u6325\u6cea
p2707
I2
sV\u540d\u4e3a
p2708
I4
sV\u91cd\u89c6
p2709
I4
sVi
I2
sV\u76f4\u5230
p2710
I2
sV\u5f85\u4eba
p2711
I2
sV\u4e0d\u8be6
p2712
I2
sV\u4e0d\u8bed
p2713
I2
sV\u4e00\u540d
p2714
I2
sV\u8b66\u62a5
p2715
I4
sV\u65b0\u95fb\u8054\u64ad
p2716
I2
sV\u963f\u59e8
p2717
I2
sV\u6765\u8bf4
p2718
I10
sV\u591a
I66
sV\u7535\u5b50\u6742\u5fd7
p2719
I2
sViOS
p2720
I78
sV\u5e73\u65b9
p2721
I2
sV\u76f4\u51fb
p2722
I4
sV\u4e0a\u67b6
p2723
I2
sV\u7edf\u6cbb\u9636\u7ea7
p2724
I2
sV\u963f\u59c6
p2725
I2
sV\u53f2\u63d0\u592b
p2726
I2
sV\u6253\u4ea4\u9053
p2727
I2
sV\u4e0d\u8ba9
p2728
I2
sV\u597d\u4e0d\u597d
p2729
I6
sV\u98ce\u66b4
p2730
I2
sV\u6765\u8bb2
p2731
I2
sV\u4fe1
I4
sV\u80e1\u9002
p2732
I6
sV\u5305\u9500\u5546
p2733
I2
sV\u4e00\u5468
p2734
I10
sV\u8054\u7cfb\u4eba
p2735
I6
sV\u6740\u5bb3
p2736
I2
sV\u6362\u53d6
p2737
I2
sV\u8fd9\u79cd
p2738
I12
sV\u6e90\u5934
p2739
I2
sV\u9ec4\u5065\u7fd4
p2740
I2
sV980
p2741
I2
sV\u4f18\u89c6
p2742
I8
sV\u9881\u53d1
p2743
I2
sV\u7231\u5fc3
p2744
I4
sV\u6742\u5fd7
p2745
I2
sV\u4e0a\u6709
p2746
I2
sV\u53d8\u5316
p2747
I2
sV\u81ea\u559c
p2748
I2
sV\u5706\u5934
p2749
I2
sVROM
p2750
I2
sVengadget
p2751
I2
sV\u6602\u8d35
p2752
I2
sV\u8521\u5eb7\u6c38
p2753
I2
sV?
I6
sV\u63a5\u5165
p2754
I6
sV\u591a\u6b21
p2755
I2
sV\u53d1\u9001\u7ed9
p2756
I2
sV\u6253
I16
sV\u51c6\u5907
p2757
I10
sV\u516c\u5171\u8bbe\u65bd
p2758
I2
sVMicrosoft
p2759
I2
sVfreedom
p2760
I2
sV\u53d8\u5366
p2761
I2
sV\u6295\u8d44\u989d
p2762
I2
sVUI
p2763
I4
sV\u4e0a\u6765
p2764
I2
sV\u593a\u53d6
p2765
I2
sVUC
p2766
I88
sV\u8393
I2
sV\u793a\u7231
p2767
I2
sV\u53e6\u5916
p2768
I14
sVpc
p2769
I2
sV\u8001\u7684\u8fa3
p2770
I2
sV\u8f66\u578b
p2771
I2
sV\u70ed\u70b9
p2772
I4
sV\u8d39\u7528
p2773
I2
sV\u4e0d\u5165\u6d41
p2774
I2
sVhr
p2775
I2
sV\u6b21\u6570
p2776
I2
sV\u8bf4\u5230\u5e95
p2777
I2
sV\u8fd0\u8425
p2778
I28
sV\u731b\u70c8
p2779
I2
sV\u4e07\u6237
p2780
I6
sV\u6536\u89c6
p2781
I2
sV\u8bdd\u8d39
p2782
I2
sV\u6545\u6211\u5728
p2783
I2
sV\u6df7
I2
sV\u63d0\u524d
p2784
I2
sV\u4e3a\u51c6
p2785
I4
sV\u6d4f\u89c8\u5668
p2786
I104
sV\u4e13\u573a
p2787
I2
sV\u4fdd\u9669\u7bb1
p2788
I2
sVartlog
p2789
I2
sV\u584c\u9677
p2790
I2
sV\u80fd\u5426
p2791
I10
sV\u673a\u6cb9
p2792
I4
sV\u5b98
I4
sV\u4eba\u9009
p2793
I2
sV\u8fdb\u884c
p2794
I44
sV\u79cb\u5b63
p2795
I2
sV\u7231\u5e93
p2796
I10
sV\u5f00\u62d3
p2797
I2
sV\u4eca\u540e
p2798
I6
sV\u5403\u5b8c\u996d
p2799
I2
sV\u516d\u4e00
p2800
I2
sV\u4f55\u51b5
p2801
I2
sV\u7edd\u5bf9
p2802
I2
sV\u56fd\u4e8b\u8bbf\u95ee
p2803
I2
sV\u7ed3\u5408\u4f53
p2804
I2
sV\u53d1\u552e
p2805
I6
sV\u4ec0\u4e48\u6837
p2806
I2
sV\u822c
I6
sV\u70ab\u9177
p2807
I2
sV\u6b64\u5916
p2808
I2
sV\u670d\u52a1\u5668
p2809
I6
sV\u573a
I2
sV\u8c08\u5224
p2810
I2
sV\u65b0\u751f
p2811
I2
sV\u6e38\u6cf3
p2812
I2
sV\u5c41\u8bdd
p2813
I6
sV\u5173\u7cfb
p2814
I18
sV\u674e\u660e
p2815
I2
sV\u5f00\u5fae\u4fe1
p2816
I2
sVGoggle
p2817
I2
sV\u6253\u6253
p2818
I2
sV\u65b9\u4fbf\u5feb\u6377
p2819
I2
sVRaiders
p2820
I2
sV\u300b
I74
sV\u8df5\u8e0f
p2821
I4
sV\u6b22\u547c
p2822
I2
sV\u52a0\u8f7d
p2823
I6
sV\u5168\u529b
p2824
I2
sV\u770b\u8fc7
p2825
I4
sV\u4e09\u9e7f
p2826
I2
sV\u6210\u529f
p2827
I32
sV\u662f
I628
sV\u5bcc\u88d5
p2828
I2
sV\u7ec8\u7aef
p2829
I24
sV\u60c5\u51b5
p2830
I12
sV\u5e76\u975e
p2831
I4
sV\u6444\u5f71
p2832
I2
sV\u4141
I2
sV10.
p2833
I4
sV\u6539\u7248
p2834
I2
sV\u5fc3\u65f7\u795e\u6021
p2835
I2
sV\u7535\u8111\u62a5
p2836
I2
sV\u4e0d\u7528
p2837
I6
sV108
p2838
I2
sVG4
p2839
I2
sV\u5f55
I2
sV\u6559
I4
sV100
p2840
I14
sV\u635f\u4eba\u5229\u5df1
p2841
I2
sV\u8fd0\u7b97
p2842
I2
sV\u5546\u52a1
p2843
I2
sV\u8be6\u7ec6
p2844
I16
sV\u4ee4\u4eba\u53d1\u6307
p2845
I2
sV\u6ee1\u5934\u767d\u53d1
p2846
I2
sVAfraid
p2847
I2
sV\u7b80\u5386
p2848
I6
sV\u5206\u5f97
p2849
I2
sV\u62ff\u5230
p2850
I2
sV11128
p2851
I2
sVG9
p2852
I2
sVBeta1
p2853
I6
sV\u6323\u94b1
p2854
I2
sV\u4e3b\u89d2
p2855
I4
sV\u4e5f\u597d
p2856
I2
sV\u5e3d\u5b50
p2857
I2
sV\u832c
I2
sVFlurry
p2858
I2
sV\u8868\u660e
p2859
I2
sVSugarSync
p2860
I2
sV\u91cd\u751f
p2861
I2
sV\u9b3c
I2
sV\u767d\u8272
p2862
I8
sV\u4e0a\u98ce
p2863
I2
sV\u5c24\u4e3a
p2864
I2
sV\u8bfb\u4e66
p2865
I4
sV\u4ee5\u4e3a
p2866
I6
sV\u6ca1\u80fd
p2867
I2
sV\u672a\u679c
p2868
I2
sV\u4ee5\u4e0b
p2869
I6
sV\u4ee5\u4e0a
p2870
I6
sV\u6e29\u5dde
p2871
I2
sV\u4e3b\u8981
p2872
I2
sV\u56e2\u4f53
p2873
I2
sV\u904d\u5730\u5f00\u82b1
p2874
I2
sVLie
p2875
I2
sV\u7206\u53d1\u5f0f
p2876
I2
sVChrome
p2877
I2
sV1.2012
p2878
I2
sV\u7559\u5b58
p2879
I6
sV\u5a92
I2
sV\u672a\u6765
p2880
I14
sV\u60f3\u8981
p2881
I12
sV\u9047\u51b7
p2882
I2
sV\u8fbe\u6210
p2883
I4
sV\u638c\u4e0a
p2884
I8
sV\u7b2c\u4e00\u6b21
p2885
I4
sV\u5e93\u514b
p2886
I2
sV\u6539\u53d8
p2887
I12
sV\u63ed\u9732
p2888
I2
sV\u5957\u56fe
p2889
I2
sV\u9610\u8ff0
p2890
I2
sV\u67c4
I2
sV\u5893\u5730
p2891
I2
sV\u524d
I28
sV\u5929\u8bed
p2892
I6
sV\u7b80\u5355
p2893
I6
sV\u53f0\u4e0a
p2894
I2
sV\u65e0\u987b
p2895
I4
sV\u652f\u6301\u7387
p2896
I4
sVAll
p2897
I2
sV\u5fcd\u53d7
p2898
I2
sV\u672a\u6709
p2899
I2
sV\u683c\u5c40
p2900
I2
sV\u7b2c\u4e8c\u53e5
p2901
I2
sV\u5149\u5b66
p2902
I2
sV\u83b7\u8d60
p2903
I2
sV\u4fbf\u6377
p2904
I2
sV\u524d\u6709
p2905
I2
sV\u643a\u5e26
p2906
I2
sVbefore
p2907
I2
sV\u51c6\u786e\u7387
p2908
I2
sV\u5b8c\u5584
p2909
I4
sV\u79f0\u53f7
p2910
I2
sV10.7
p2911
I2
sV\u9047\u5230
p2912
I8
sV\u5b8c\u5b8c\u5168\u5168
p2913
I4
sV,
I98
sV\u6a21\u5f0f
p2914
I8
sV\u4e2b\u4eec
p2915
I2
sV\u5927\u8086
p2916
I4
sVPath
p2917
I2
sV\u77e5\u6653
p2918
I2
sV\u85aa\u6c34
p2919
I2
sV\u91cd
I2
sV\u516c\u4f17
p2920
I4
sV\u770b\u8d34
p2921
I2
sV\u4e34\u65f6\u5de5
p2922
I6
sV\u62ef\u6551
p2923
I2
sV\u6bd4\u5c14
p2924
I2
sV\u534a\u5929
p2925
I2
sV\u53d1\u5e03\u4f1a
p2926
I36
sV\u6bcf\u6b21
p2927
I10
sV\u7b11
I10
sV\u56e0\u4e3a
p2928
I56
sV\u65b0\u578b
p2929
I2
sV\u5b58\u91cf
p2930
I2
sV\u6ca1\u4ec0\u4e48
p2931
I2
sV\u516c\u4fe1
p2932
I2
sV\u806a\u660e\u4eba
p2933
I2
sV\u5f00\u53d1\u8005
p2934
I64
sV\u548c\u8c10
p2935
I2
sV\u683c\u5f0f
p2936
I10
sV\u5e78\u8fd0
p2937
I2
sV\u585e\u73ed
p2938
I2
sV\u62ff\u51fa
p2939
I2
sV\u517c\u5bb9
p2940
I6
sV\u906d\u53d7
p2941
I2
sVmissray
p2942
I2
sV\u4ece\u4e1a\u8005
p2943
I8
sV\u5996\u9b54\u5316
p2944
I2
sV\u82f1\u624d
p2945
I2
sV\u4fde
I20
sV\u7684\u786e
p2946
I4
sV\u4ece\u800c
p2947
I4
sV\u4e2b\u4e2b
p2948
I2
sV\u76d6\u697c
p2949
I2
sVmessages
p2950
I2
sV\u8be6\u8be2
p2951
I2
sV\u66f4\u7d27
p2952
I2
sV\u6210\u50cf
p2953
I2
sV\u738b
I2
sV\u522b\u5fd8\u4e86
p2954
I2
sV\u5bc6\u96c6
p2955
I2
sV\u670d\u52a1\u5546
p2956
I4
sV\u6709\u7740
p2957
I4
sV\u7b2c\u4e94\u671f
p2958
I2
sV\u7ebd\u7ea6\u65f6\u62a5
p2959
I2
sV\u5e93\u53cb
p2960
I2
sV\u7531\u6765
p2961
I2
sV\u906d\u5230
p2962
I2
sV\u57c3\u53ca
p2963
I2
sV\u5382\u5546
p2964
I24
sV\u7248\u6743\u6cd5
p2965
I2
sV\u62db\u8058\u542f\u4e8b
p2966
I2
sV\u6bdb
I2
sV\u5360
I2
sV\u77e3
I2
sV\u673a\u9047
p2967
I4
sV\u6bcb\u5eb8\u7f6e\u7591
p2968
I2
sVmini
p2969
I4
sV\u529b\u4e0d\u4ece\u5fc3
p2970
I2
sV\u5c06\u4f1a
p2971
I2
sV\u516c\u4ed4
p2972
I2
sV\u5927
I76
sV\u4e0d\u5b9a\u671f
p2973
I4
sVPOS
p2974
I8
sV\u652f
I2
sV\u674e\u5f00\u590d
p2975
I2
sV\u4eba\u6c14
p2976
I2
sV\u4eba\u6c11
p2977
I22
sV\u53f7\u53ec
p2978
I2
sV\u8def\u5728\u4f55\u65b9
p2979
I2
sV\u5c55
I4
sV\u516c\u4ea4
p2980
I4
sV\u8bf4\u5531
p2981
I2
sV\u6539\u5199
p2982
I2
sVAppleap
p2983
I2
sV\u5177
I14
sV\u663e\u793a
p2984
I18
sV\u4f53\u5236
p2985
I2
sV\u4f9d
I2
sV\u771f\u96be
p2986
I2
sV\u90a3
I40
sV\u70b9\u8bc4
p2987
I4
sV\u533a
I2
sV11
p2988
I8
sV\u8d27\u5e01
p2989
I2
sV\u5f88\u68d2
p2990
I4
sV13
p2991
I2
sV\u5ba2\u6237
p2992
I12
sV8022
p2993
I2
sV\u8425\u4e1a\u5385
p2994
I2
sV\u9762
I2
sV\u62e5\u6709
p2995
I10
sV\u5f15\u4eba\u5165\u80dc
p2996
I2
sVOver
p2997
I4
sV\u4e0a\u6d77\u957f\u5f81\u533b\u9662
p2998
I2
sV\u5768
I2
sV\u5305\u7ed9
p2999
I4
sV\u60f3\u8c61
p3000
I2
sV\u8bed\u8a00
p3001
I2
sV\u6e38\u620f\u673a
p3002
I2
sV\u91cd\u70b9
p3003
I6
sV\u795e\u901a\u5e7f\u5927
p3004
I2
sV03
p3005
I2
sV00
p3006
I6
sV06
p3007
I2
sV04
p3008
I4
sV\u77e5\u60c5
p3009
I4
sV09
p3010
I4
sV\u5feb\u8baf
p3011
I2
sVChoice
p3012
I2
sV\u65b0\u51a0
p3013
I2
sV\u5973\u6027
p3014
I6
sVC
I2
sV\u5168\u56fd
p3015
I8
sV\u53d1\u51fa
p3016
I6
sV\u4e0d\u7136
p3017
I4
sV\u539f\u59cb
p3018
I2
sV\u534a\u5f84
p3019
I2
sV\u5218\u5ca9
p3020
I2
sV\u53d7\u76ca\u8005
p3021
I2
sV\u611a\u8822
p3022
I2
sV\u7092\u8fc7
p3023
I2
sV\u81ea\u8be9
p3024
I2
sV\u5168\u573a
p3025
I2
sV\u662f\u4ece
p3026
I2
sV\u82f1\u6587
p3027
I22
sV\u6cb9\u4ef7
p3028
I2
sV\u79ef\u7d2f
p3029
I4
sV\u5c42\u9762
p3030
I4
sV\u8ba2\u5355
p3031
I2
sV\u95f9\u949f
p3032
I6
sV\u70b9
I38
sVC2
p3033
I2
sVC1
p3034
I2
sVC7
p3035
I2
sVC6
p3036
I6
sVC5
p3037
I4
sV\u8c03\u6574
p3038
I2
sV\u641e\u5b9a
p3039
I4
sV\u4fbf\u643a
p3040
I2
sV\u4e16\u754c\u676f
p3041
I8
sV\u6f14\u8bb2
p3042
I20
sV\u7591\u4f3c
p3043
I2
sV\u529e\u6709
p3044
I2
sV\u5bcc\u8d35
p3045
I2
sV\u5e94\u8be5
p3046
I40
sV\u4f5c
I6
sVCo
p3047
I4
sV\u5408\u5f71
p3048
I2
sV\u60f3\u8d77
p3049
I4
sV\u521d\u6b65
p3050
I2
sV\u7f3a\u70b9
p3051
I2
sV\u666e\u53ca\u7387
p3052
I2
sV\u6cc4\u6f0f
p3053
I2
sV\u5f97\u4e8f
p3054
I2
sV\u6709\u9650
p3055
I4
sV\u4f9b\u5e94\u5546
p3056
I2
sV\u5148\u524d
p3057
I2
sVit
p3058
I4
sVin
p3059
I2
sV\u672c\u571f
p3060
I4
sV\u706b\u661f
p3061
I2
sV\u8f6c\u7ed9
p3062
I2
sV\u7f34\u8d39
p3063
I4
sV\u66f4\u7a77
p3064
I2
sV\u4efb\u53ae
p3065
I2
sVV1
p3066
I8
sVV5
p3067
I8
sV\u672c\u5730
p3068
I4
sV\u5206\u5b50
p3069
I2
sVVC
p3070
I6
sV\u53cc\u6838
p3071
I8
sVVP
p3072
I2
sV\u6597\u6cd5
p3073
I2
sVVS
p3074
I2
sV\u5e38\u597d
p3075
I2
sV\u4e0d\u4e89\u6c14
p3076
I2
sV\u4f1a\u7406\u53bf
p3077
I2
sV\u9ed1\u773c\u5708
p3078
I2
sV\u4e50
I8
sV\u636e\u4f20
p3079
I10
sVVs
p3080
I2
sV\u62c5\u4efb
p3081
I2
sV\u53d7\u5230
p3082
I2
sV800
p3083
I2
sVNative
p3084
I2
sV\u624b\u672f
p3085
I2
sV\u7d27\u968f\u5176\u540e
p3086
I2
sV\u5ffd\u60a0
p3087
I2
sV\u624b\u673a
p3088
I380
sV\u56f4\u89c2
p3089
I8
sV\u8bfa\u57fa\u4e9a
p3090
I90
sV\u610f\u4e49
p3091
I4
sV\u7ed3\u679c
p3092
I18
sV\u8774\u8776
p3093
I2
sV\u6f02\u4eae
p3094
I10
sV\u5168\u540d
p3095
I2
sV\u96c4\u8d77
p3096
I2
sV\u5546\u4e1a\u94f6\u884c
p3097
I2
sV\u7389\u6811
p3098
I2
sV\u50cf
I18
sV\u4f7f\u52b2
p3099
I2
sV\u7ec6\u8282
p3100
I12
sV\u51e0\u7bc7
p3101
I2
sV\u6210\u5458
p3102
I6
sV\u5ef6\u7f13
p3103
I2
sV\u800c\u975e
p3104
I4
sVwww
p3105
I4
sV\u63a8\u5e7f
p3106
I12
sV\u72d0\u72f8
p3107
I2
sV\u300f
I26
sV\u4f55\u5728
p3108
I2
sV\u4f7f\u7528
p3109
I64
sV\u5229\u6da6
p3110
I2
sV\u770b\u89c1
p3111
I2
sV\u6881\u5b81
p3112
I2
sV\u6218\u4e89
p3113
I4
sV\u7a0b\u5ea6
p3114
I6
sV\u5348\u591c
p3115
I2
sV\u53c2\u8003
p3116
I6
sV\u5b8c\u5168
p3117
I16
sV\u8fa8\u522b
p3118
I2
sV\u7761
I2
sV\u7ed3\u675f
p3119
I2
sV\u7a0b\u5e8f
p3120
I18
sV\u82e6\u5fc3
p3121
I2
sV\u4f46\u662f
p3122
I54
sVWWDC
p3123
I20
sV\u6253\u9020
p3124
I4
sV\u6570\u636e\u5206\u6790
p3125
I4
sV\u88c5\u4e2a
p3126
I4
sVShawn
p3127
I2
sV\u64ad
I4
sV\u5916\u56fd\u7c4d
p3128
I2
sV\u6570\u636e
p3129
I48
sV\u89c6\u9891
p3130
I50
sV11.29
p3131
I2
sV11.28
p3132
I2
sVDNA
p3133
I2
sV11.22
p3134
I2
sV\u57cb
I2
sV\u8ffd\u51fb
p3135
I2
sV\u9ed1
I4
sV\u9632\u60a3\u4e8e\u672a\u7136
p3136
I2
sV229
p3137
I4
sV\u89e3\u51b3
p3138
I4
sVZ
I2
sV\u656c\u4e1a
p3139
I2
sV\u6709\u94b1
p3140
I6
sV\u9ed1\u540d\u5355
p3141
I2
sV\u684c\u9762\u80cc\u666f
p3142
I2
sV\u51e0\u5929
p3143
I2
sV\u4f55\u53bb\u4f55\u4ece
p3144
I2
sV\u4e0b\u4e00\u4ee3
p3145
I2
sV\u4e86
I730
sV\u7efc\u827a
p3146
I4
sV\u5168\u65b9\u4f4d
p3147
I2
sVqwerty
p3148
I4
sV\u5730\u4e0b
p3149
I4
sV\u7ea6
I12
sV\u8c03\u67e5
p3150
I8
sV\u7537
I10
sV\uff3b
I4
sV\u7efc\u5408\u6392\u540d
p3151
I2
sV\u5012\u4e0b
p3152
I2
sV\u52d8\u6d4b
p3153
I2
sV\u7740\u5206
p3154
I2
sV\u70ed\u8840
p3155
I2
sV\u77ff\u5de5
p3156
I6
sV\u65d7\u5e1c
p3157
I2
sV\u7ecf\u6d4e
p3158
I12
sV\u4f1a\u7528
p3159
I2
sVphone
p3160
I2
sVWin
p3161
I6
sV\u4e92\u8054\u7f51
p3162
I174
sV\u9605\u8bfb\u5668
p3163
I10
sV\u6bd4\u5982
p3164
I16
sV\u8868\u60c5
p3165
I2
sV\u6c83
I4
sV\u76f8\u7ee7
p3166
I2
sV\u7279\u6027
p3167
I8
sV\u4e16\u535a\u56ed
p3168
I4
sV\u4e8e\u5a01
p3169
I2
sV\u5371\u673a
p3170
I2
sV\u8868\u6f14
p3171
I2
sV\u5207\u5165
p3172
I4
sV\u901a\u8baf\u5f55
p3173
I14
sV\u4e70\u6765
p3174
I2
sVWM
p3175
I2
sV\u53ef\u7231
p3176
I6
sV\u52a1\u5b9e
p3177
I2
sV\u89c1
I8
sVGMIC
p3178
I14
sV\u4e92\u76f8\u653b\u51fb
p3179
I2
sV\u5fc3\u60c5
p3180
I2
sVPlus
p3181
I6
sV\u4e70\u5f97\u8d77
p3182
I2
sV\u53bb\u4e16
p3183
I6
sV\u6295\u4e0a
p3184
I2
sV\u8001\u4eba
p3185
I12
sV\u6c90\u6d74\u9732
p3186
I2
sV\u4f01\u4e1a\u5bb6
p3187
I4
sV\u9707\u60ca
p3188
I2
sV\u8ddf\u7740
p3189
I8
sV\u516b\u4e2a
p3190
I2
sV\u9002\u7528
p3191
I4
sV\u8054\u7f51
p3192
I8
sVWebkit
p3193
I2
sV\u96f7\u519b
p3194
I6
sV\u5148\u5165
p3195
I2
sV\u7b2c\u4e00\u624b
p3196
I2
sV\u5546\u52a1\u4eba\u58eb
p3197
I2
sV\u7edd\u5999
p3198
I2
sV\u60a3\u6709
p3199
I2
sV\u7ed9\u529b
p3200
I2
sVdecipher
p3201
I2
sV\u706f\u706b\u9611\u73ca
p3202
I2
sV\u70ed\u70b9\u8bdd\u9898
p3203
I2
sV\u5f00\u95e8
p3204
I2
sV\u8fc7\u6765
p3205
I4
sV\u8ba1\u7b97\u5668
p3206
I2
sV\u4f3c\u4e4e
p3207
I20
sVTechnology
p3208
I4
sV\u5c3c\u514b
p3209
I2
sV\u63a8\u51fa
p3210
I50
sV\u6d77\u62a5
p3211
I2
sVWhen
p3212
I2
sV\u7c73\u7c89
p3213
I2
sV\u641e\u6e05\u695a
p3214
I2
sV\u4ef7\u683c
p3215
I22
sVSCDMA
p3216
I2
sV\u8001\u4fde
p3217
I2
sV\u521b\u65b0
p3218
I22
sV\u4ea4\u53cb
p3219
I4
sV\u7528
I88
sVMobile20
p3220
I2
sVVisa
p3221
I2
sV\u4e00\u5929\u5230\u665a
p3222
I2
sV\u59cb
I2
sV\u90d1
I2
sV\u6240\u5f97
p3223
I2
sV\u8463\u4e8b\u957f
p3224
I2
sV\u6cef\u706d
p3225
I2
sV\u53d1\u5c55
p3226
I46
sV\u6709\u6548\u671f
p3227
I2
sV\u5316\u8eab
p3228
I2
sV\u5c31\u662f
p3229
I66
sV\u539f\u5fae\u535a
p3230
I4
sV\u5f71\u54cd\u529b
p3231
I8
sV\u6c42\u8bc1
p3232
I2
sV\u7a0d
I2
sV\u521b\u6536
p3233
I2
sVPresto
p3234
I2
sV\u7b2c\u4e8c\u5bb6
p3235
I2
sV\u6e29\u5e8a
p3236
I2
sV\u535a\u4e3b
p3237
I2
sV\u5206\u5728
p3238
I2
sV\u5185\u5bb9
p3239
I34
sV\u6bcf\u65e5
p3240
I4
sV\u4e45
I2
sV140
p3241
I2
sV\u58f0\u671b
p3242
I2
sV\u7edd\u5883
p3243
I4
sV14.
p3244
I2
sV\u5e74\u9f84
p3245
I2
sV\u9cb2\u9e4f
p3246
I4
sV\u95e8
I12
sV\u9886\u5148\u5730\u4f4d
p3247
I2
sV\u56db\u4e2a
p3248
I2
sV\u9648\u7ecf\u7406
p3249
I2
sVA500
p3250
I2
sV\u5e03\u5c40
p3251
I8
sV\u6570\u636e\u6316\u6398
p3252
I2
sV\u809a\u5b50
p3253
I2
sV\u5ba1
I2
sV\u6280\u672f\u652f\u6301
p3254
I2
sV\u6709\u5f85
p3255
I2
sV\u59cb\u4e8e
p3256
I2
sV\u539f\u5730
p3257
I2
sV\u4f30\u8ba1
p3258
I8
sV\u800c\u662f
p3259
I10
sV\u7fb9
I2
sVmail
p3260
I2
sV\u5b83
I38
sV\u903c
I32
sV\u65c5\u884c
p3261
I2
sV\u56db\u661f\u7ea7
p3262
I2
sV\u63a8\u52a8
p3263
I4
sV\u4ece\u4e8b
p3264
I2
sV\u62db
I4
sV\u8d5a
I2
sV\u5148\u53bb
p3265
I2
sV\u52a8\u6447
p3266
I2
sV\u6025\u505c
p3267
I2
sV\u9020\u6210
p3268
I4
sV\u6a21\u5757
p3269
I2
sV\u539a\u7231
p3270
I4
sV\u68a6\u60f3
p3271
I4
sV\u8bf7\u52a0
p3272
I2
sV\u6709
I322
sV\u8ffd\u5c3e
p3273
I2
sV\u8bda\u5b9e
p3274
I6
sV\u5192
I2
sV\u624b\u6bb5
p3275
I8
sV\u6240\u5c5e
p3276
I2
sV\u53d1\u5fae
p3277
I6
sV5250
p3278
I2
sV\u518d\u89c1
p3279
I2
sV\u5efa\u7acb
p3280
I6
sV\u7b49\u5f85
p3281
I2
sV\u6a21\u578b
p3282
I2
sV\u6027\u4fb5\u72af
p3283
I2
sV\u67d0\u79cd
p3284
I4
sV\u65f6\u62a5
p3285
I2
sVG
I44
sV\u513f\u7ae5\u8282
p3286
I6
sV\u4f69\u7279\u62c9
p3287
I2
sV\u8fc7\u654f
p3288
I2
sVorg
p3289
I4
sV\u4eba\u6570
p3290
I2
sV\u91cd\u7ec4
p3291
I2
sV\u53e6
I10
sV\u96e8
I2
sVApp
p3292
I34
sV\u5b58\u6ee1
p3293
I2
sV\u6309\u952e
p3294
I6
sV\u8054\u7cfb
p3295
I20
sV\u6b64\u523b
p3296
I4
sV\u62b1
I6
sV\u53d1\u5e03
p3297
I94
sV\u65b0\u7406\u5ff5
p3298
I2
sV\u5a36
I6
sV\u641c\u6551
p3299
I4
sV\u7535\u6c60
p3300
I12
sV\u819c
I2
sV\u5f20\u5411\u4e1c
p3301
I2
sV\u91cd\u7f6e
p3302
I2
sV\u884c\u52a8
p3303
I2
sV\u5341\u51e0\u5bb6
p3304
I4
sV\u68b3\u7406
p3305
I2
sV\u526f\u603b\u88c1
p3306
I16
sV10
p3307
I38
sV\u8d56\u4ee5\u751f\u5b58
p3308
I2
sV12
p3309
I8
sV15
p3310
I4
sV17
p3311
I6
sV16
p3312
I2
sV19
p3313
I4
sV18
p3314
I2
sV\u7cbe\u795e\u75c5
p3315
I2
sV\u8def
I6
sV1.
p3316
I6
sV\u7ec4\u88c5
p3317
I2
sV\u524d\u5929
p3318
I4
sV\u4e24\u4e0d\u8bef
p3319
I2
sV\u524d\u5934
p3320
I2
sV\u7092\u80a1
p3321
I2
sV\u5355\u4e2a
p3322
I2
sV\u8941\u8913\u4e4b\u4e2d
p3323
I2
sVDS
p3324
I2
sV\u91d1\u878d\u4e1a
p3325
I2
sV\u592a\u7cbe\u5f69
p3326
I2
sV\u524d\u5915
p3327
I2
sV\u6293\u4f4f
p3328
I2
sV\u8d6b\u7136
p3329
I4
sV\u96be
I2
sV200
p3330
I2
sV\u5251
I2
sV\u56fe\u4e66\u9986
p3331
I2
sV\u521a\u521a
p3332
I24
sV\u8fd8
I106
sV\u6539\u6539
p3333
I2
sV\u54ea
I4
sV\u884c\u5217
p3334
I2
sV\u674e\u6d9b
p3335
I2
sV\u5f88\u676f
p3336
I2
sV\u539f\u56e0
p3337
I18
sV\u524d\u5ea6
p3338
I4
sV\u9ad8\u4e8e
p3339
I4
sV\u56fe\u6587\u5e76\u8302
p3340
I2
sV\u8d2f\u5f7b\u843d\u5b9e
p3341
I2
sVWO
p3342
I2
sV\u7684\u7684
p3343
I4
sV\u663e\u7136
p3344
I4
sV\u62a5\u7eb8
p3345
I12
sVWe
p3346
I4
sV\u4e00\u6210\u4e0d\u53d8
p3347
I4
sVWi
p3348
I10
sVRIM
p3349
I18
sV\u5168\u5e02
p3350
I2
sV\u57ce\u7ba1
p3351
I2
sV\u4eab\u6709
p3352
I2
sV\u794e
I4
sV\u51f9\u51f8
p3353
I2
sV\u6700\u65b0\u7248
p3354
I2
sV\u4f8b\u5982
p3355
I6
sV\u52a1\u5fc5
p3356
I2
sV\u597d\u4e45
p3357
I4
sV\u7ea2\u5916
p3358
I2
sV\u5e02\u573a
p3359
I48
sV\u6570\u636e\u6d41
p3360
I2
sV\u8f6c\u773c
p3361
I2
sV\u5468\u8fb9
p3362
I2
sV\u4e11\u6076
p3363
I2
sV\u5bb6\u7528
p3364
I2
sV\u6392\u7ebf
p3365
I4
sV\uff0d
I6
sV\u53c2\u4f1a\u8005
p3366
I2
sV\u8fd9\u8bdd
p3367
I2
sV\u804c\u8d23
p3368
I2
sV\u518d\u8fc7
p3369
I2
sV\u81ea\u5b9a\u4e49
p3370
I8
sV\u4eba\u9645\u5173\u7cfb
p3371
I2
sV\u786c\u4ef6
p3372
I34
sV\u8bc4\u4ef7
p3373
I2
sV\u7535\u5b50\u8bbe\u5907
p3374
I2
sV\u5206\u522b
p3375
I6
sV\u597d\u4e8b
p3376
I4
sV\u5546\u5e97
p3377
I50
sV\u9053
I10
sV\u5355
I8
sV\u5206\u5272
p3378
I2
sV\u5c1a\u672a
p3379
I4
sV\u90e8
I4
sV\u53ea
I52
sV\u8d8a\u72f1
p3380
I12
sV\u591a\u4efb\u52a1
p3381
I2
sV\u5ba3\u5e03
p3382
I14
sV\u4f8b\u5916
p3383
I2
sV\u9053\u8def
p3384
I2
sV\u5357\u65b9\u5468\u672b
p3385
I2
sV\u72ec\u88c1
p3386
I2
sV\u7578\u5f62
p3387
I2
sV\u6b64\u540e
p3388
I2
sV\u5b83\u4eec
p3389
I4
sV\u96f7\u540c
p3390
I2
sV\u5927\u672c\u8425
p3391
I6
sV\u6708\u79df\u8d39
p3392
I2
sV\u6ce8\u518c
p3393
I16
sV\u66f4\u72e0
p3394
I2
sV\u56fe\u7247
p3395
I20
sV\u5206\u53d1
p3396
I2
sV\u9884\u89c1
p3397
I2
sV\u996d\u9986
p3398
I2
sV^
I12
sV\u7279\u6548
p3399
I4
sV\u5168
I10
sV\u4e70\u623f
p3400
I2
sV\u6570
I6
sV\u81f3
I10
sV\u4e3e\u884c
p3401
I12
sV1100
p3402
I4
sV\u7167\u660e
p3403
I2
sV\u8bc4\u4f30
p3404
I2
sV\u9707\u64bc
p3405
I6
sV\u5802\u5802
p3406
I2
sV\u65b0\u589e
p3407
I16
sV\u6708\u5e95
p3408
I2
sV\u7b2c\u4e00\u671f
p3409
I2
sV\u5165\u4fb5\u8005
p3410
I2
sV\u4f17
I2
sV\u521b\u610f
p3411
I12
sV1896
p3412
I2
sV\u7ea2
I6
sV\u73b0\u72b6
p3413
I10
sVpay
p3414
I2
sVs
I6
sV\u753b
I4
sV\u73b0\u72b6\u53ca
p3415
I4
sV\u4e07\u90e8
p3416
I2
sV\u6d41\u7545
p3417
I6
sV\u6d77\u666f
p3418
I2
sV\u76f8\u7b26
p3419
I2
sV\u6025
I6
sV\u63a7\u4eec
p3420
I2
sV\u4eba\u624d
p3421
I2
sV\u9ece\u660e\u524d
p3422
I4
sV\u516c\u5b89\u5c40
p3423
I6
sV\u4ee5\u4eba\u4e3a\u672c
p3424
I2
sV\u7a0d\u540e
p3425
I2
sV\u8170\u75bc
p3426
I2
sV\u4e86\u89e3
p3427
I24
sV\u624b\u6cd5
p3428
I2
sV\u9879
I2
sV\u8bba\u6587
p3429
I2
sV\u4e00
I52
sV\u767d\u8d39
p3430
I2
sVFollow5
p3431
I10
sV\u5957\u5957
p3432
I2
sV\u641c
I6
sV\u89c6\u91ce
p3433
I2
sV\u51e0\u7387
p3434
I2
sV\u5c1a\u65e0
p3435
I2
sV\u592a\u9ed1
p3436
I2
sV\u7136\u540e
p3437
I18
sV\u793a\u8303
p3438
I2
sV\u65e0\u5730\u81ea\u5bb9
p3439
I2
sV4
I74
sV\u4e0d\u7ba1
p3440
I8
sV\u532a\u5937\u6240\u601d
p3441
I2
sV\u7b49\u4f60\u62ff
p3442
I2
sV\u4f7f
I6
sV\u95e8\u69db
p3443
I10
sV\u56f0\u96be
p3444
I4
sV\u4e0d\u7b97
p3445
I2
sV\u5bf9
I116
sV\u5168\u5c40
p3446
I2
sV\u4e24\u5468\u5e74
p3447
I12
sV\u57fa\u672c\u8def\u7ebf
p3448
I2
sV\u6309
I6
sV\u4f18\u79c0
p3449
I6
sV\u9884\u8a00
p3450
I2
sV\u7d27\u6025
p3451
I6
sV\u4e13\u6ce8
p3452
I4
sV\u4ebf\u90e8
p3453
I2
sV\u4e0a\u4e0b\u5b66
p3454
I2
sV\u6682\u5b9a
p3455
I2
sV\u4e2a\u4eba\u7528\u6237
p3456
I2
sV\u65e0\u9700
p3457
I2
sV\u6e38\u620f
p3458
I44
sV\u5427
I64
sV\u6bcf\u6708
p3459
I2
sV\u804c\u4f4d
p3460
I2
sVGeek
p3461
I4
sV\u4f8b\u5b50
p3462
I2
sV\u611f\u6fc0\u4e0d\u5c3d
p3463
I2
sV\u80e1\u60a0
p3464
I2
sV\u6ca1\u8f66
p3465
I4
sV\u56f4\u8116
p3466
I12
sV\u77e5\u540d
p3467
I4
sV\u542c\u6b4c
p3468
I2
sV\u5751
I2
sV\u7ffb\u65b0
p3469
I2
sV\u5426\u5219
p3470
I2
sV\u963f\u535c\u675c\u62c9
p3471
I2
sV\u5916\u9732
p3472
I2
sVImages
p3473
I2
sV\u4e3e\u8bc1
p3474
I2
sV\u65e0\u975e
p3475
I2
sV\u5174\u8da3
p3476
I10
sV\u4e0a\u9762
p3477
I6
sV\u51e4\u51f0\u536b\u89c6
p3478
I2
sV\u50cf\u662f
p3479
I2
sV\u4efb\u5730
p3480
I2
sV\u539f\u521b
p3481
I8
sV\u6587
I2
sV\u6c89\u75db
p3482
I2
sV\u89e3\u5bc6
p3483
I6
sV\u56fd\u4ea7
p3484
I4
sV\u5b9e\u884c
p3485
I4
sVMacBook
p3486
I4
sV\u8bed\u8a00\u7248
p3487
I2
sV5230
p3488
I2
sV\u7ec6\u8bfb
p3489
I4
sV5235
p3490
I2
sV\u7d2b\u56ed
p3491
I2
sV\u9884\u8ba1
p3492
I2
sV\u6740\u6bd2\u8f6f\u4ef6
p3493
I12
sV\u6c42
I16
sV\u88c5
I6
sV\u6cd5\u62c9\u5229
p3494
I2
sVplusapp
p3495
I2
sV\u6cd5\u9662
p3496
I4
sV\u5c0f\u4e09
p3497
I4
sVGecko
p3498
I2
sV\u50b2\u6c14
p3499
I2
sV\u5883\u754c
p3500
I2
sV\u79cd\u7c7b
p3501
I2
sV\u901a\u9053
p3502
I2
sV\u9e21
I2
sV\u8bf4\u597d
p3503
I2
sV98.1
p3504
I2
sV\u6c83\u5179
p3505
I2
sVOvi
p3506
I28
sV\u4ed6
I72
sV483
p3507
I2
sV480
p3508
I2
sV\u5c0f\u4e8b
p3509
I2
sV\u9884\u8b66
p3510
I2
sV\u592a\u725b
p3511
I2
sV\u5927\u8d5b
p3512
I8
sV\u5669\u8017
p3513
I2
sV\u65e0\u9650
p3514
I6
sV\u4e8e\u5ddd
p3515
I2
sV\u5750\u4e0a
p3516
I4
sV\u5408\u4f19\u4eba
p3517
I2
sV\u804c\u4e1a
p3518
I12
sV\u51dd\u805a\u529b
p3519
I2
sV\u9752\u6d77
p3520
I2
sV\u6c5f\u6e56
p3521
I6
sV\u901a\u8fc7
p3522
I18
sV\u51cc\u6668
p3523
I8
sV\u4e0d\u65f6
p3524
I2
sV\u6b4c\u66f2
p3525
I4
sV\u4e14
I6
sVSIM
p3526
I2
sV\u56fd\u5185
p3527
I74
sV\u79f0\u4e3a
p3528
I2
sV\u65b9
I2
sV\u8d35
I6
sV\u62f7\u8d1d
p3529
I2
sV\u5206\u4eab
p3530
I38
sV\u900f\u652f
p3531
I2
sV\u5fc5\u5c06
p3532
I2
sV\u9053\u5177
p3533
I2
sV\u72d7
I4
sV\u8d85\u591a
p3534
I4
sV\u963f\u62c9\u4f2f\u6587
p3535
I2
sV\u7b7e\u7ea6
p3536
I4
sV\u4f4e\u4e0b
p3537
I2
sV\u65e0\u89c6
p3538
I2
sV\u4e3b\u9898
p3539
I18
sV\u5173\u6ce8
p3540
I48
sV\u5927\u8fde
p3541
I2
sV\u51e0\u5757\u94b1
p3542
I2
sV\u5bf9\u6bd4
p3543
I4
sV\u4e3b\u9875
p3544
I2
sV\u4e0d\u6562
p3545
I4
sV\u542b\u4e49
p3546
I2
sV\u624b\u5934
p3547
I2
sV\u5217
I6
sViPhon
p3548
I2
sV\u4f4e\u4ef7
p3549
I2
sV\u6218\u58eb
p3550
I2
sV\u4e2a\u4eba\u4fe1\u606f
p3551
I2
sV\u707e\u533a
p3552
I2
sV5000
p3553
I2
sVNFC
p3554
I8
sVK
I4
sV\u5b63\u5ea6
p3555
I4
sV\u5784\u65ad
p3556
I6
sV\u8bbe\u7f6e
p3557
I6
sV\u7559
I2
sV\u9752\u6da9
p3558
I2
sV\u2463
I2
sV\u5d1b\u8d77
p3559
I8
sV\u6076\u610f
p3560
I2
sV\u8fd8\u597d
p3561
I2
sV\u6cd5\u89c4
p3562
I2
sV\u63a7\u5236
p3563
I2
sV\u6625\u5929
p3564
I6
sV\u51b3\u7b56
p3565
I2
sV\u3016
I2
sV\u5c0f\u5077
p3566
I8
sV\u672a\u77e5
p3567
I2
sV\u5b9e\u9645
p3568
I4
sV\u65e7\u91d1\u5c71
p3569
I2
sV\u7eb5
I2
sV\u5fc5\u7531
p3570
I2
sV\u70ab\u8000
p3571
I2
sV\u5f02\u89c1
p3572
I2
sV\u7b2c\u4e00\u7bc7
p3573
I2
sVBTV
p3574
I2
sVRoger
p3575
I2
sV\u8d25\u7b14
p3576
I2
sV\u9e21\u8840
p3577
I2
sV\u903b\u8f91
p3578
I2
sV\u5473\u9053
p3579
I2
sV\u610f\u5916
p3580
I2
sV\u5973\u751f
p3581
I2
sV\u706b\u7206
p3582
I2
sV\u4e2d\u5fc3
p3583
I22
sV\u7b7e\u7f72
p3584
I2
sV\u91cd\u65b0
p3585
I12
sV!
I14
sV\u62a2
I8
sV\u68a6
I4
sV\u4ed4\u7ec6
p3586
I2
sV\u8d85\u58f0
p3587
I2
sV\u4f4e\u4fd7
p3588
I2
sV\u76f8\u673a
p3589
I4
sV\u7f16\u8f91\u5668
p3590
I2
sV\u76f8\u4ea4
p3591
I2
sV\u4e2a\u6027
p3592
I2
sV\u65e5\u8bb0
p3593
I2
sV\u590d\u6d3b
p3594
I2
sV\u9891\u9891
p3595
I8
sV\u4e0b\u6587
p3596
I2
sV\u8de8
I2
sV\u8352
I2
sV\u6bd4\u4f8b
p3597
I4
sV\u5012\u584c
p3598
I2
sV\u9ad8\u5371
p3599
I2
sV\u597d\u53cb
p3600
I4
sV\u5404
I12
sV\u8f6f\u6587
p3601
I4
sV\u4e00\u957f\u4e32
p3602
I2
sVthrough
p3603
I2
sV\u65e0\u8bba
p3604
I4
sV\u8e22\u51fa
p3605
I4
sV\u5bf9\u5916\u5f00\u653e
p3606
I4
sV24
p3607
I4
sV25
p3608
I4
sV26
p3609
I2
sV27
p3610
I4
sV20
p3611
I14
sV21
p3612
I10
sV\u5f7b\u5e95
p3613
I8
sV\u54ea\u6015
p3614
I2
sV28
p3615
I2
sV\u6709\u81f4
p3616
I2
sVlate
p3617
I2
sV\u9ed1\u5e03
p3618
I2
sV\u56fe\u6d4b
p3619
I2
sV\u7b14\u4e0b
p3620
I2
sV\u73b0\u573a\u76f4\u64ad
p3621
I2
sV2.
p3622
I8
sV\u5468\u4e8c
p3623
I2
sV\u516c\u5f00
p3624
I2
sV\u9a6c\u4e0a
p3625
I2
sV\u6c5f\u6c11
p3626
I2
sV\u4e24\u6b21
p3627
I2
sV\u8bd1
I2
sV\u52bf\u5fc5
p3628
I2
sV\u624b\u7535\u7b52
p3629
I2
sV\u9104\u57ce\u53bf
p3630
I2
sV\u53d1\u6148\u60b2
p3631
I2
sV\uff09
I144
sV\u6574\u53e5\u8f93\u5165
p3632
I2
sV\u88ab\u8bc9
p3633
I2
sV\u5c40\u9650
p3634
I2
sV\u7279\u4e48
p3635
I2
sVWires
p3636
I2
sVFlas
p3637
I2
sV\u8001\u5468
p3638
I6
sV\u50ac
I4
sV1.74
p3639
I2
sV\u706b\u7130
p3640
I4
sVE5
p3641
I2
sV\u6570\u76ee
p3642
I2
sVE3
p3643
I4
sV\u8fbe
I12
sVProtect
p3644
I2
sV\u7f51\u9875
p3645
I4
sV\u5c3e\u5df4
p3646
I2
sVP1000
p3647
I2
sV\u65b0\u6d6a
p3648
I32
sV\u72c2\u7b11
p3649
I2
sV\u795d
I2
sV\u5e73
I2
sV\u597d\u50cf
p3650
I6
sV\u9875\u9762
p3651
I8
sV\u4e0b\u6765
p3652
I2
sV\u8d2d\u7269
p3653
I2
sV\u5982\u6709
p3654
I2
sV\u4e0d\u66fe
p3655
I2
sV\u6c14\u5019
p3656
I2
sV18701874794
p3657
I2
sV\u94f6\u884c
p3658
I20
sV180
p3659
I2
sV189
p3660
I2
sVX6
p3661
I2
sVX7
p3662
I2
sVtoo
p3663
I2
sV\u516c\u5e03
p3664
I10
sVXL
p3665
I2
sVWP7
p3666
I14
sV\u611f\u67d3
p3667
I8
sV\u6625\u5b63
p3668
I4
sV\u6574\u7406
p3669
I6
sVXP
p3670
I2
sV\u8015\u8018
p3671
I2
sV\u900f\u660e
p3672
I4
sV\u4eba\u624b
p3673
I2
sV\u95ef
I2
sV\u5927\u91cf
p3674
I20
sV\u8bfb
I6
sV\u697c
I2
sV\u5220\u6389
p3675
I2
sV\u6309\u89c4\u5b9a
p3676
I2
sV\u9633\u5149
p3677
I2
sV\u544a\u8bc9
p3678
I12
sV\u5982\u679c
p3679
I70
sV\u5e72\u6d3b
p3680
I2
sV\u91cd\u6784
p3681
I2
sV\u793e\u4f1a\u4e3b\u4e49
p3682
I2
sV\u667a\u5546
p3683
I4
sV\u9648\u656c\u65b0
p3684
I2
sVKik
p3685
I2
sV\u5237\u5361\u673a
p3686
I2
sV\u8def\u8fb9
p3687
I2
sV\u6613\u89c2
p3688
I10
sV\u56db\u5468
p3689
I2
sV\u4e0d\u662f
p3690
I68
sV\u5ffd\u7565
p3691
I2
sV\u89c4\u5b9a
p3692
I2
sV\u4eba\u7c7b
p3693
I4
sV\u6a21\u4eff
p3694
I6
sV\u79d1\u4e3b\u4efb
p3695
I2
sV\u501f\u9274
p3696
I2
sV\u906d
I4
sV\u6536\u85cf
p3697
I12
sV\u5341\u5468\u5e74
p3698
I2
sV\u57cb\u5934\u82e6\u5e72
p3699
I2
sV\u4e3a\u4ec0\u4e48
p3700
I26
sV\u9752\u697c
p3701
I4
sV\u901a\u8bdd
p3702
I2
sV\u4e00\u7a9d\u8702
p3703
I2
sV\u5199
I26
sV\u5408\u4e00
p3704
I2
sV\u504f\u7231
p3705
I2
sV\u5f15\u64ce
p3706
I2
sV\u767e\u5ea6
p3707
I30
sV8
I16
sVMagic
p3708
I2
sV\u51e4\u51f0\u7f51
p3709
I14
sVDCCI
p3710
I2
sV\u5927\u8086\u5ba3\u4f20
p3711
I2
sV\u4e24\u6d3e
p3712
I2
sV\u786e\u5b9a
p3713
I2
sV\u786e\u5b9e
p3714
I20
sV\u6316\u6398
p3715
I2
sV\u611f\u60c5
p3716
I2
sV\u7adf
I2
sV\u4e71\u7801
p3717
I2
sV\u901a\u8baf
p3718
I10
sV\u589e\u503c
p3719
I6
sV\u8d66
I2
sV\u536b\u58eb
p3720
I6
sV\u5fc3\u7cfb
p3721
I2
sV\u641c\u7d22
p3722
I16
sV\u4ea4\u4e92
p3723
I14
sV\u7792\u5929\u8fc7\u6d77
p3724
I2
sV\u8ba1\u7b97\u6280\u672f
p3725
I2
sV\u6e05\u534e
p3726
I4
sV\u8868\u73b0
p3727
I8
sV.5.6
p3728
I4
sV\u5e05\u5446\u4e86
p3729
I2
sV\u6d41\u6c13
p3730
I4
sV\u6e38\u5c71\u73a9\u6c34
p3731
I2
sV\u606d\u559c
p3732
I2
sV\u67d0\u67d0
p3733
I4
sVfang
p3734
I2
sV\u4e0d\u614e
p3735
I2
sV\u7ae5\u5fc3
p3736
I2
sV\u6743\u76ca
p3737
I2
sV\u7559\u4e0b
p3738
I6
sV\u5c31\u7b97
p3739
I4
sV\u5949
I4
sV\u62c5\u5fc3
p3740
I4
sV\u56db\u5305
p3741
I2
sV\u8c01\u7ed9\u6211
p3742
I2
sVnttdocomo
p3743
I2
sV\u526f
I2
sV\u5927\u9646
p3744
I8
sV\u7535\u73a9
p3745
I2
sV\u611f\u6069
p3746
I2
sV\u65f6
I20
sV\u65e9\u70b9\u513f
p3747
I2
sV\u822c\u7684
p3748
I2
sV\u638f
I2
sV\u6ca1\u94b1
p3749
I2
sV\u4e0d\u60f3
p3750
I2
sV\u878d\u6c47
p3751
I2
sV\u5bb9\u5fcd
p3752
I2
sV\u6324
I2
sV\u8d77\u5e8a
p3753
I6
sVFlyFlow
p3754
I2
sV\u5fc5\u7136
p3755
I4
sV\u7325\u7410
p3756
I2
sV\u96c4\u9e70
p3757
I2
sV\u5408\u4f5c
p3758
I50
sV963
p3759
I2
sV\u8bbe\u7acb
p3760
I2
sV\u6ee1\u5934\u5927\u6c57
p3761
I2
sV\u534a\u4e2a
p3762
I2
sV\u4efd
I4
sV\u5230\u5904
p3763
I4
sV\u7559\u4f4f
p3764
I2
sV\u6c11
I4
sV\u7ade\u4e89
p3765
I4
sV\u4e92
I2
sV\u8ba1\u8d39
p3766
I2
sV\u5fb7\u56fd
p3767
I6
sV\u8fc7\u7a0b
p3768
I4
sV\u90ae
I4
sV\u6a2a\u884c
p3769
I2
sV\u6781\u81f4
p3770
I6
sV\u6d3b
I2
sV\u901a\u8a71
p3771
I2
sV\u6bd4
I14
sV\u7406\u5149
p3772
I2
sV\u5236\u56fe
p3773
I4
sV\u53cc\u65b9
p3774
I4
sV\u52aa\u529b
p3775
I4
sV\u65b0\u624b\u673a
p3776
I4
sV\u5e7d\u9ed8
p3777
I2
sV\u64cd\u86cb
p3778
I4
sV\u5973
I6
sV\u611f\u6168
p3779
I8
sV\u7403\u961f
p3780
I2
sV\u540c\u4e8b
p3781
I2
sV\u6ca1\u620f
p3782
I2
sV\u51e0\u6bb5
p3783
I2
sV\u597d\u542c
p3784
I2
sV\u7ea7\u522b
p3785
I2
sV\u83ab\u5c5e
p3786
I2
sV\u96be\u9898
p3787
I2
sV\u8001\u677f\u5a18
p3788
I2
sV\u7eda\u4e3d
p3789
I2
sV\u5927\u7b11\u8bdd
p3790
I2
sV\u56db\u51e4
p3791
I2
sVRobert
p3792
I2
sV\u8bc4\u5934\u8bba\u8db3
p3793
I2
sV\u8fd1
I2
sV\u8d34
I8
sV\u5750\u57ab
p3794
I2
sV\u529e\u7406
p3795
I2
sVMobile2
p3796
I26
sV\u8f66
I6
sV\u522b\u4eba
p3797
I10
sV\u548b\u529e
p3798
I2
sV\u7701
I4
sVgoogle
p3799
I2
sVJava
p3800
I4
sV\u8fd9\u91cc
p3801
I22
sV\u4e0d\u6362
p3802
I2
sVback
p3803
I2
sV\u7279\u7ea6
p3804
I2
sVCSDN
p3805
I4
sV\u5417
I36
sV\u5600\u5495
p3806
I2
sV\u56fa\u4ef6
p3807
I4
sV\u51e0\u6b3e
p3808
I4
sVper
p3809
I2
sV\u6c34\u8d27
p3810
I10
sV\u8bbe
I2
sV300
p3811
I8
sV\u6293\u5230
p3812
I2
sV\u5c0f\u4f17
p3813
I2
sVDavis
p3814
I2
sV\u9020\u7eb8
p3815
I2
sV\u6761
I10
sV\u65e0\u8bba\u662f
p3816
I8
sV\u52e4\u594b
p3817
I2
sV\u5f53\u6743\u8005
p3818
I2
sV\u897f\u5355
p3819
I2
sV\u7ad9\u70b9
p3820
I10
sV\u589e\u52a0
p3821
I10
sV\u4e1a\u5185\u4eba\u58eb
p3822
I2
sV\u5730\u70b9
p3823
I8
sV\u7455\u75b5
p3824
I2
sV\u8054\u60f3
p3825
I6
sV\u8bc1\u660e
p3826
I2
sV\u5973\u738b
p3827
I2
sV\u4e2d\u5956
p3828
I2
sV\u9762\u7eb1
p3829
I2
sV\u8bb0\u8005
p3830
I18
sV\u6295\u5165
p3831
I4
sV\u6301\u7eed
p3832
I6
sV\u9c9c\u95fb
p3833
I2
sV\u56fe\u6848
p3834
I2
sV\u793e\u4f1a\u79d1\u5b66
p3835
I2
sVCome
p3836
I2
sV\u4e0d\u62a5
p3837
I2
sVophone
p3838
I2
sV\u8336\u676f
p3839
I2
sV\u4e2d\u5916
p3840
I2
sV\u79df
I2
sV\u52a8\u529b
p3841
I2
sV\u7ed3\u76df
p3842
I4
sV\u4efb\u4f55
p3843
I18
sV\u4ed8\u51fa
p3844
I2
sV\u79bb\u5f00
p3845
I2
sV\u86cb\u7cd5
p3846
I2
sVActionScript
p3847
I2
sV\u56fe\u6807
p3848
I2
sV\u6069\u7279
p3849
I2
sV\u51fa\u5e2d
p3850
I4
sV\u6b63\u89e3
p3851
I2
sV\u624d\u7528
p3852
I2
sV\u6cbb\u56fd
p3853
I2
sV\u9ed1\u5ba2
p3854
I6
sV\u6ed1\u52a8
p3855
I2
sV\u6709\u70b9\u513f
p3856
I2
sV\u591f
I10
sV%
I50
sV\u4f18\u60e0
p3857
I4
sV\u5ea7\u7387
p3858
I2
sVMac
p3859
I8
sV\u4fbf\u5229
p3860
I2
sV\u5c11\u4e4b\u53c8\u5c11
p3861
I2
sVTXT
p3862
I4
sV\u4e0d\u80fd\u4e0d
p3863
I2
sV\u89c4\u5f8b
p3864
I4
sV\u65d7\u4e0b
p3865
I8
sV\u8fdb\u4e00\u6b65
p3866
I6
sV\u884c\u4e3a
p3867
I10
sV2002
p3868
I2
sV2000
p3869
I4
sV\u9875
I4
sV\u767b\u9646
p3870
I16
sV2004
p3871
I4
sV2009
p3872
I6
sV\u9006\u8f6c
p3873
I2
sV\u53bb\u5e74
p3874
I12
sV\u5408
I2
sV\u4e00\u65b9\u9762
p3875
I2
sV\u62a2\u7968
p3876
I2
sV\u5b64\u513f
p3877
I2
sV\u9a97
I8
sV\u73b0\u6709
p3878
I2
sV\u9690\u7792
p3879
I4
sV\u60ef\u7528
p3880
I2
sV\u66b4\u9732
p3881
I2
sVXOYO
p3882
I2
sV\u5956\u52b1
p3883
I4
sV\u8d8a\u662f
p3884
I2
sV\u5df4\u58eb
p3885
I2
sV\u6709\u8bef
p3886
I4
sV\u4fe1\u8d56
p3887
I2
sV\u8bcd
I2
sVCamera360
p3888
I2
sV\u7948\u798f
p3889
I2
sV\u4e0b\u6c34
p3890
I2
sVE63
p3891
I2
sV\u76df
I2
sV\u8c03\u7814
p3892
I2
sV\u64ad\u62a5
p3893
I4
sV7.2
p3894
I4
sVFalse
p3895
I4
sV\u5468\u672b
p3896
I4
sV\u4ea4\u6d41\u5e73\u53f0
p3897
I2
sV\u589e\u5f3a\u7248
p3898
I2
sV\u7070
I4
sVIE10
p3899
I2
sV\u7ea6\u5408
p3900
I2
sV\u5efa\u6811
p3901
I2
sV\u535a\u5f08
p3902
I2
sV\u6293\u5c0f\u5077
p3903
I2
sV\u6240\u5728\u5730
p3904
I2
sV\u76d2\u996d
p3905
I2
sV\u751f\u8005
p3906
I4
sV\u514d\u8d39
p3907
I38
sV\u51cf\u5f31
p3908
I2
sV\u8349\u6839
p3909
I2
sV\u65b9\u6848
p3910
I4
sV\u56fd\u5916
p3911
I16
sV\u67aa
I2
sV\u623f\u5b50
p3912
I4
sV\u9119\u4eba
p3913
I2
sV\u8d85\u51fa
p3914
I4
sV\u4e2d\u56fd
p3915
I116
sV\u603b
I8
sVTM
p3916
I2
sV\u7ec4
I2
sV\u5408\u4f5c\u8005
p3917
I2
sV\u98de\u8c61
p3918
I2
sV39
p3919
I8
sV\u53d7\u4f24
p3920
I2
sV\u5fae\u8f6f
p3921
I30
sV32
p3922
I8
sV31
p3923
I2
sV30
p3924
I10
sV36
p3925
I6
sV35
p3926
I2
sV3.
p3927
I6
sV\u5c11\u6797\u5bfa
p3928
I4
sV\u6392\u961f
p3929
I2
sV\u5f04
I6
sV\u7387
I2
sV\u516c\u544a
p3930
I8
sVS60v5
p3931
I2
sV\u5f3a\u70c8\u63a8\u8350
p3932
I6
sV\u529d
I2
sV\u731c
I4
sV\u51e0\u767e\u4e07
p3933
I2
sV\u4f53\u4f1a
p3934
I4
sV\u9891\u9053
p3935
I2
sV\u5e74\u8f7b
p3936
I4
sV\u2026
I102
sV\u72c2\u70ed
p3937
I2
sV\u7efc\u5408\u75c7
p3938
I2
sV\u5f97\u5230
p3939
I6
sV\u6cb9
I2
sV\u7834\u4ea7
p3940
I2
sV\u4e3a
I96
sV\u771f\u8bdd
p3941
I4
sV\u771f\u8bda
p3942
I2
sV\u624b\u673a\u53f7\u7801
p3943
I2
sV\u5bb6\u60f3
p3944
I2
sV\u4ea7\u54c1\u7ebf
p3945
I2
sVMarketplace
p3946
I6
sV\u7075\u4e18\u53bf
p3947
I2
sV\u6ee1\u610f
p3948
I8
sV\u8bf7
I68
sV\u72b9\u8c6b
p3949
I2
sV\u526f\u603b\u7ecf\u7406
p3950
I2
sV\u745e\u661f
p3951
I8
sV\u65e0\u6cd5\u8bbf\u95ee
p3952
I2
sV\u4e0d\u8db3\u4e3a\u5947
p3953
I2
sV\u8d77\u5230
p3954
I2
sV\u571f
I2
sV\u4e0d\u6c42
p3955
I2
sV\u63d0\u7ed9
p3956
I2
sV\u5957\u4ef6
p3957
I2
sV\u8eba
I2
sV\u4ee4\u4eba\u9ad8\u5174
p3958
I2
sV\u79c0
I2
sV\u5979\u4eec
p3959
I2
sV\u4f5c\u8327\u81ea\u7f1a
p3960
I2
sV\u5e97\u91cc
p3961
I2
sV\u6bb4\u6253
p3962
I2
sV\u4ebf\u7f8e\u5143
p3963
I10
sV\u8ba1\u7b97\u673a
p3964
I2
sV\u5bf9\u624b
p3965
I2
sV\u6628\u5929\u4e0b\u5348
p3966
I2
sV\u65e0\u804a
p3967
I2
sV\u66f4\u662f
p3968
I8
sV\u53bb\u5f80
p3969
I2
sV3.1.2
p3970
I2
sV\u56fd\u5bb6
p3971
I18
sV\u62a2\u52ab\u72af
p3972
I2
sV\u5f00\u62d3\u7cbe\u795e
p3973
I2
sV\u7167\u7167
p3974
I2
sV\u53ef\u601c
p3975
I8
sV\u8fd8\u539f
p3976
I2
sV\u53ef\u6015
p3977
I4
sV\u5f62\u5bb9
p3978
I2
sV\u67b6\u6784
p3979
I2
sV\u539f\u5219
p3980
I4
sVll
p3981
I2
sV\u5730\u6bef\u5f0f
p3982
I2
sV\u67b6\u5b50\u8f66
p3983
I2
sV12.05
p3984
I2
sV<
I2
sV\u5b88\u62a4
p3985
I4
sV\u65b0\u4f5c
p3986
I4
sV\u53e3\u4eba
p3987
I2
sV\u5927\u90e8\u5206
p3988
I8
sV\u89c4\u5219
p3989
I4
sV\u89c4\u5212
p3990
I2
sV\u505c
I2
sV\u975e
I12
sVAdobe
p3991
I8
sV\u70ed\u95e8
p3992
I2
sV\u66f4\u65b0
p3993
I34
sV\u8001\u5cb3
p3994
I2
sV\u5927\u591a\u6570
p3995
I2
sV\u738b\u660c\u6210
p3996
I2
sV\u70ed\u95f9
p3997
I6
sV\u5982
I12
sV\u4eba\u7528
p3998
I6
sV\u9177\u6d3e
p3999
I4
sV\u5730\u533a
p4000
I4
sV\u7f51\u901f
p4001
I2
sV\u51e4\u821e
p4002
I2
sV\u54e5\u4f26\u6bd4\u4e9a
p4003
I2
sV\u51e0\u671f
p4004
I2
sVred
p4005
I2
sV\u52a8\u5f39
p4006
I2
sV\u6d8c\u73b0\u51fa
p4007
I2
sV589
p4008
I2
sV\u53ef\u60dc
p4009
I2
sV\u533a\u95f4
p4010
I4
sV\u4e0e\u4f60\u540c\u5728
p4011
I2
sV\u529b\u91cf
p4012
I4
sV\u529f\u80fd
p4013
I76
sV\u62a5\u6848
p4014
I2
sV\u4ef6
I2
sVAcer
p4015
I2
sV\u7406\u8bba
p4016
I2
sV\u56fe\u6587
p4017
I16
sV\u4e0d\u6ee1
p4018
I4
sV\u5708
I2
sV\u6536\u8d2d
p4019
I12
sV\u5c59
I2
sV\u72fc\u6765\u4e86
p4020
I4
sV\u8bc4\u5956
p4021
I2
sV\u62e6\u622a
p4022
I6
sV\u6b20
I2
sV\u800c\u8a00
p4023
I2
sV\u6728
I6
sV\u7fa4\u96c4
p4024
I2
sV\u6587\u4ef6\u7cfb\u7edf
p4025
I2
sV\u597d\u591a
p4026
I4
sV\u53d1\u4e00
p4027
I2
sV\u94f6\u8054
p4028
I8
sVAssociation
p4029
I2
sV\u5fc3
I2
sV\u7cbe\u8bfb
p4030
I2
sV\u597d\u597d
p4031
I10
sV\u97f3\u4e50
p4032
I4
sV\u4e50\u8da3
p4033
I2
sV\u4e8b\u4e1a\u90e8
p4034
I2
sVipad
p4035
I6
sV\u589e\u5f3a
p4036
I8
sV\u4ee5\u540e
p4037
I18
sV\u7406\u5ff5
p4038
I4
sV\u4e00\u53ea
p4039
I4
sV\u97f3
I2
sV\u6ce1\u6912
p4040
I2
sV\u70b9\u949f
p4041
I2
sV\u6765\u6e90
p4042
I4
sV\u91d1\u94b1
p4043
I2
sV\u641c\u72d7
p4044
I6
sV\u641c\u72d0
p4045
I48
sV\u5de6\u8fb9
p4046
I2
sV\u4e8e
I40
sV\u6211
I408
sVPad
p4047
I2
sV\u5976\u5976
p4048
I2
sV\u89e6\u63a7
p4049
I2
sV\u4e92\u52a8
p4050
I4
sV\u5173\u673a
p4051
I2
sV\u6d88\u8d39
p4052
I4
sV\u590d\u6742
p4053
I2
sV\u5b69\u5b50
p4054
I18
sV\u4eba\u7406
p4055
I2
sV\u5fc3\u9178
p4056
I4
sV\u68c0\u51fa
p4057
I2
sV\u79bb\u53bb
p4058
I2
sV\u63d0
I2
sV\u5367\u5e95
p4059
I2
sV\u6454\u5012
p4060
I2
sV\u7070\u5ea6
p4061
I2
sV\u5b9a\u8bba
p4062
I2
sV\u66fe
I8
sV\u6210\u4e3a
p4063
I26
sV\u8f93\u5165\u6cd5
p4064
I26
sV\u5256\u6790
p4065
I8
sV\u8336\u6c34
p4066
I2
sV\u524d\u4eba
p4067
I2
sV\u53ef\u662f
p4068
I2
sV\u7fa4\u91cc
p4069
I2
sV\u4f20\u5947
p4070
I2
sV\u535a\u5ba2
p4071
I16
sV\u5236\u5f0f
p4072
I2
sV\u7b2c\u4e8c\u4e2a
p4073
I2
sV\u65b9\u6cd5
p4074
I2
sV\u89e6\u6478
p4075
I4
sV\u5546\u4e1a
p4076
I4
sV\u4e0a\u56fe
p4077
I2
sV\u56f4\u7740
p4078
I2
sV\u6570\u7801
p4079
I14
sV\u53c2\u4e0e\u8005
p4080
I2
sV\u6539\u4e0e
p4081
I2
sV394174531
p4082
I2
sV\u9e1f\u8bed
p4083
I2
sV\u6267\u884c\u529b
p4084
I2
sV\u672c\u5e74\u5ea6
p4085
I2
sV\u8001\u5a46
p4086
I2
sV\u7eaa\u5ff5
p4087
I10
sV\u5fc3\u7406
p4088
I2
sV\u2013
I2
sV\u897f\u5929
p4089
I2
sV\u4ee5\u53ca
p4090
I18
sV\u51ef\u6492\u5927\u5e1d
p4091
I2
sV\u8bba
I2
sV\u66f4\u6362
p4092
I4
sV\u623f
I2
sV\u4e09\u8005
p4093
I2
sV\u4f4d\u7f6e
p4094
I12
sV\u4f4d
I14
sVLBS
p4095
I24
sV\u7761\u5230
p4096
I2
sVS
I28
sV\u672c\u4e66
p4097
I2
sV\u64ad\u6620
p4098
I2
sV\u5438\u5f15\u529b
p4099
I2
sV\u8054\u53d1\u79d1\u7531
p4100
I2
sV\u7b2c\u4e8c\u4ee3
p4101
I2
sV\u5bfc\u81f4
p4102
I6
sV\u5468\u9e3f
p4103
I4
sV\u4e2d\u5348
p4104
I4
sVUMD
p4105
I2
sV\u5899
I2
sV\u4e0b\u697c
p4106
I2
sV\u4ee5\u524d
p4107
I6
sV\u5927\u5b66\u751f
p4108
I14
sV\u5730\u7406\u4f4d\u7f6e
p4109
I2
sV\u62ff\u4e0b
p4110
I4
sV\u4e49\u52a1
p4111
I2
sV\u76f8\u6bd4
p4112
I4
sV\u5207\u6362
p4113
I8
sV\u589e\u591a
p4114
I2
sV\u95ea\u6e38\u5730\u5e26
p4115
I2
sVCenter
p4116
I2
sV\u5dee\u5f02
p4117
I2
sV\u73af\u7403
p4118
I4
sV\u59b9\u59b9
p4119
I2
sV\u8fb9
I4
sV\u6652
I4
sV\u4e50\u8baf
p4120
I2
sV\u5c0f\u5c0f
p4121
I2
sV\u77ed\u4fe1
p4122
I24
sV\u641c\u7d22\u5f15\u64ce
p4123
I2
sV\u8001\u5bb6
p4124
I2
sV\u51a0\u519b
p4125
I2
sV\u8fdc\u4e0d\u5982
p4126
I4
sV\u81ea\u52a8\u8bb0\u5fc6
p4127
I2
sV\u91cd\u5927\u610f\u4e49
p4128
I2
sV)
I32
sV\u4e07\u80fd
p4129
I2
sV\u624b\u673a\u6e38\u620f
p4130
I2
sVSOS
p4131
I2
sV\u600e\u4e48\u529e
p4132
I2
sVMBP
p4133
I2
sV\u4eba\u7269
p4134
I4
sV\u5929\u97f3
p4135
I4
sVios
p4136
I2
sV\u6c6a\u5c0f\u83f2
p4137
I2
sV\u76f8\u4e92
p4138
I2
sV\u7ec8\u6781
p4139
I2
sV\u9686\u91cd
p4140
I2
sV\u4f1a\u5fc3\u4e00\u7b11
p4141
I2
sV\u5927\u7c7b
p4142
I2
sV\u6708\u4efd
p4143
I14
sV\u6069
I2
sV\u5229\u76ca
p4144
I2
sV\u65e0\u7ebf\u9f20\u6807
p4145
I2
sV\u867d
I2
sV\u8868\u793a
p4146
I16
sV\u5bf9\u65b9
p4147
I6
sV\u5fd9
I2
sV\u6293
I4
sV\u5b57\u4f53
p4148
I10
sV\u98ce\u666f\u5982\u753b
p4149
I2
sV\u4ee3\u53f7
p4150
I6
sV\u4e0b
I54
sV\u94a5\u5319
p4151
I4
sV282
p4152
I2
sV\u6708\u524d
p4153
I2
sV\u54c7
I2
sV\u7f51\u94f6
p4154
I8
sV\u63d0\u793a
p4155
I12
sV\u6d6e\u4e91
p4156
I2
sV\u8d62
I4
sV\u6076\u6027\u7ade\u4e89
p4157
I2
sV\u6709\u8da3
p4158
I4
sV\u9ad8\u8d35
p4159
I2
sV\uff01
I432
sV\u9053\u5fb7
p4160
I2
sV\u79f0\u4f5c
p4161
I2
sV\u56de\u9988
p4162
I4
sV\u8702\u62e5\u800c\u81f3
p4163
I4
sV\u561b
I4
sV\u501f
I6
sV\u7ecf\u7406
p4164
I8
sV\u5f62\u5f0f
p4165
I2
sV\u5c0f\u5fc3
p4166
I2
sV\u5df2\u5bf9
p4167
I2
sV\u59d3\u540d
p4168
I2
sVFring
p4169
I2
sV\u516c\u53f8
p4170
I68
sV\u9ad8\u5c42
p4171
I2
sV\u6ce1\u6cab
p4172
I2
sV\u5730\u5740
p4173
I56
sV\u4e13\u9898\u7814\u7a76
p4174
I2
sV\u5c0f\u5fb7
p4175
I2
sV\u9ad8
I26
sV\u5f15\u6e21
p4176
I2
sVbyread
p4177
I2
sV\u963f\u6839\u5ef7\u961f
p4178
I2
sV\u96be\u9053
p4179
I12
sV\u8f83\u5927
p4180
I2
sV|
I30
sV\u8ba4\u771f
p4181
I2
sV\u70ed\u9177
p4182
I2
sV\u56db\u5927
p4183
I2
sV\u8be6\u60c5
p4184
I8
sV\u8721\u70db
p4185
I2
sVTOP50
p4186
I2
sV\u5f00
I4
sV\u9694\u79bb
p4187
I2
sV\u80f8\u53e3
p4188
I4
sV\u9635\u5b50
p4189
I2
sV\u4f5c\u8005
p4190
I30
sV\u5c60\u6237
p4191
I4
sV\u9648\u83ca\u7ea2
p4192
I2
sV\u5feb\u901f
p4193
I6
sV\u5ba3\u4f20\u7247
p4194
I2
sV\u62c9\u6d3b
p4195
I2
sV\u6c38\u798f
p4196
I26
sV1980
p4197
I2
sV\u4e0d\u77e5\u5929\u9ad8\u5730\u539a
p4198
I2
sV\u622a\u6b62\u65e5
p4199
I2
sV\u4e2d\u5171
p4200
I2
sV\u8d2d\u4e70
p4201
I6
sV\u901f\u5ea6
p4202
I20
sV700
p4203
I2
sV\u5927\u5e08
p4204
I4
sV\u7edd\u4e0d
p4205
I2
sV\u8bd9\u8c10
p4206
I4
sV\u5c06\u53cb
p4207
I2
sV\u5982\u6b64
p4208
I20
sV\u4f60
I214
sV\u56de\u987e
p4209
I6
sV\u535a\u58eb
p4210
I2
sV\u5730\u56fe
p4211
I4
sV\u6218\u573a
p4212
I4
sV\u7269
I2
sV\u94c3\u58f0
p4213
I4
sV\u8d8a\u6162
p4214
I2
sV\u79ef\u6781
p4215
I2
sV\u67e5\u8be2
p4216
I6
sV\u6015
I2
sV\u95e8\u7968
p4217
I6
sV\u6253\u4e0d\u5f00
p4218
I2
sV\u90fd\u53d7\u4e86
p4219
I2
sV48
p4220
I2
sV45
p4221
I2
sV42
p4222
I2
sV40
p4223
I8
sV41
p4224
I4
sV4.
p4225
I6
sV\u7814\u7a76
p4226
I2
sV\u60c5\u4eba
p4227
I2
sV\u59b9\u5b50
p4228
I4
sV\u4e30\u529f\u4f1f\u7ee9
p4229
I2
sV\u613f
I10
sV\u6570\u5b57\u5316
p4230
I2
sV\u9a7e\u4e34
p4231
I2
sV\u67d0
I20
sV\u5c48\u6307\u53ef\u6570
p4232
I2
sV\u6865
I2
sV\u8001\u5927
p4233
I4
sV\u73cd\u91cd
p4234
I8
sV\u662f\u5426
p4235
I32
sV\u4ed6\u4eec
p4236
I46
sV\u5373
I8
sV\u8001\u5934
p4237
I4
sV\u64ad\u653e
p4238
I16
sV\u52a0\u901f
p4239
I2
sV\u897f\u65b9
p4240
I2
sV\u5982\u540c
p4241
I4
sV\u91cd\u542f
p4242
I8
sV\u516c\u6d4b
p4243
I2
sVG7
p4244
I2
sVG6
p4245
I2
sVG5
p4246
I4
sV\u8d60\u9001
p4247
I4
sVG3
p4248
I4
sVG2
p4249
I4
sVG1
p4250
I6
sV\u79d1\u6280\u53f2
p4251
I2
sV\u53d1\u751f
p4252
I10
sVG8
p4253
I2
sV\u60ca\u559c
p4254
I2
sV@
I20
sVGS
p4255
I16
sV\u4e24\u5929
p4256
I4
sV\u5206\u7ed9
p4257
I4
sVGB
p4258
I6
sV\u957f\u65f6\u95f4
p4259
I2
sVGO
p4260
I8
sV\u8bdd
I18
sV\u9488\u5bf9
p4261
I6
sV\u5bb6\u59d0
p4262
I2
sV.....
p4263
I8
sVGo
p4264
I4
sV\u6a2a\u8de8
p4265
I2
sV\u63a5\u8fd1
p4266
I2
sV\u4eb2\u81ea
p4267
I2
sV\u515a\u4e2d\u592e
p4268
I2
sV\u535a\u6709
p4269
I2
sV\u97e9\u8bed
p4270
I2
sV\u82cf\u4e39
p4271
I2
sV\u5b9e\u9a8c\u5ba4
p4272
I2
sV\u8c0e\u8a00
p4273
I2
sV\u6280\u672f
p4274
I32
sV\u5237
I6
sV\u4e2d\u534e\u6148\u5584\u603b\u4f1a
p4275
I2
sV\u89e3\u51b3\u95ee\u9898
p4276
I2
sV\u4e09\u5343\u5e74
p4277
I2
sV\u5728\u751f\u6d3b\u4e2d
p4278
I2
sV\u89c6
I2
sV\u6ca1\u5546\u91cf
p4279
I2
sV\u6f5c\u5fc3
p4280
I2
sV\u79e6
I12
sV\u7740\u7528
p4281
I2
sV\u4e0d\u660e\u6717
p4282
I2
sV\u8f70\u52a8
p4283
I2
sV\u5f80\u5f80
p4284
I6
sV\u91cc\u9762
p4285
I14
sV\u53d7\u76ca
p4286
I2
sV\u4eba\u4eba
p4287
I6
sV\u7981\u6b62
p4288
I2
sV\u5403\u996d
p4289
I8
sV\u5bc2\u5bde
p4290
I2
sV\u4efb\u5929\u5802
p4291
I6
sVDevices
p4292
I2
sV\u52ff\u6270
p4293
I10
sV\u6848\u4f8b
p4294
I2
sV\u9177\u56fe
p4295
I2
sV\u4e91\u8ba1\u7b97
p4296
I6
sV\u591a\u4e2a
p4297
I2
sV\u56fd\u60c5
p4298
I2
sVTopics
p4299
I2
sV\u81f3\u4e8e
p4300
I4
sVbaidu
p4301
I2
sV\u81ea\u8eab
p4302
I2
sVMcAfee
p4303
I4
sV\u95ea\u4eae
p4304
I2
sV\u9636\u6bb5\u6027
p4305
I2
sV\u503e\u529b
p4306
I2
sV\u5f62\u6001
p4307
I2
sV\u53f0\u6e7e
p4308
I2
sV\u590f\u91ce\u521a
p4309
I2
sV\u7a00\u5947\u53e4\u602a
p4310
I4
sV\u8ddf\u5e16
p4311
I4
sV\u4e0d\u540c
p4312
I8
sV\u676f
I6
sV\u9000\u51fa
p4313
I2
sV\u56fa
I2
sV\u8d26\u53f7
p4314
I10
sV\u9879\u76ee\u7ba1\u7406
p4315
I2
sV\u535a\u6587
p4316
I6
sV\u6c14\u6124
p4317
I2
sV\u7f3a\u5931
p4318
I2
sV\u5220
I2
sVHero
p4319
I2
sV\u4e1c\u897f
p4320
I22
sV\u661f\u5df4\u514b
p4321
I2
sV\u535a\u65b9
p4322
I2
sV\u770b\u7535\u89c6
p4323
I2
sV\u73a9\u6e38\u620f
p4324
I2
sV\u9010\u5e74
p4325
I2
sVMobile
p4326
I128
sV\u5dee\u522b
p4327
I2
sV\u9010\u6e10
p4328
I2
sV\u7535\u5b50\u5546\u52a1
p4329
I4
sV\u5df2\u6709
p4330
I2
sV\u53cc\u5203
p4331
I2
sV\u575b\u4e3b
p4332
I2
sV\u56db\u65b9
p4333
I4
sV\u62dc\u8bfb
p4334
I2
sV\u89c4\u6a21
p4335
I4
sV\u51e0\u5f20
p4336
I2
sV\u521b\u4e1a
p4337
I2
sV\u4ece\u672a
p4338
I2
sV\u778e
I2
sV\u5e10\u53f7
p4339
I4
sV\u9f3b\u7956
p4340
I2
sV\u8001\u767e\u59d3
p4341
I4
sV\u8d22\u7ecf\u9891\u9053
p4342
I2
sV\u4ecb\u610f
p4343
I2
sV\u540e\u8005
p4344
I2
sV\u8fd8\u6b3e
p4345
I4
sVW
I6
sV\u4e24\u5bb6
p4346
I2
sV\u8bfa\u8bb0
p4347
I2
sV\u5361
I8
sVBTW
p4348
I2
sVVia
p4349
I8
sV\u5565
I20
sV\u76f8\u540c
p4350
I4
sVPhoto
p4351
I2
sV\u7406\u667a
p4352
I2
sV\u5206\u7c7b
p4353
I4
sV\u75be\u75c5
p4354
I4
sV\u4f7f\u7528\u8005
p4355
I2
sV\u9633\u6027
p4356
I2
sV\u54ea\u513f
p4357
I2
sV\u624b\u673a\u95e8\u6237
p4358
I4
sV\u5c0f\u624b
p4359
I2
sV\u89e3\u51b3\u65b9\u6848
p4360
I4
sV\u5f15\u53d1
p4361
I2
sV\u9996\u9875
p4362
I4
sV\u5766\u7387
p4363
I2
sV\u200b
I2
sVSearch
p4364
I2
sV\u6295\u653e
p4365
I2
sV\u5341\u56db\u4e94\u5c81
p4366
I2
sV\u5173\u5fc3
p4367
I6
sV\u81ea\u884c
p4368
I8
sV\u6f0f\u6d1e
p4369
I2
sV\u9632\u6b62
p4370
I6
sV\u5df2\u662f
p4371
I2
sVGalaxy
p4372
I2
sV\u4e09
I10
sV\u500d
I4
sV\u9f13
I2
sV\u719f\u6089
p4373
I4
sV-
I146
sV\u5f62\u6210
p4374
I2
sV\u727a\u7272
p4375
I2
sV\u8212\u9002
p4376
I2
sV\u4f18\u52bf
p4377
I6
sV\u5927\u8e0f\u6b65
p4378
I2
sV\u6392\u51fa
p4379
I2
sV\u51e0\u5e74
p4380
I4
sV\u62d6
I4
sV\u4f01\u4e1a
p4381
I28
sV\u7adf\u7136
p4382
I4
sV\u4e9a\u9a6c\u900a
p4383
I2
sV\u8054\u5408
p4384
I4
sV\u5230\u5e95
p4385
I22
sV\u8d27\u5e01\u5316
p4386
I2
sV\u548b
I4
sVFlash
p4387
I28
sV\u6210\u763e
p4388
I2
sV\u601d\u8003
p4389
I2
sV\u88c2\u53d8
p4390
I4
sV\u6b63\u786e
p4391
I6
sV\u4e0d\u51c6
p4392
I2
sV\u5149\u7ebf
p4393
I2
sV\u771f\u4ed6\u5988
p4394
I2
sV\u8bb8\u591a
p4395
I12
sV\u4ea4\u7ed9
p4396
I2
sVWEB
p4397
I2
sV\u964c
I28
sV\u5f52
I2
sV\u5f20\u5b66\u53cb
p4398
I2
sV\u4f18\u5316
p4399
I8
sV\u66ff\u6362
p4400
I4
sV\u95ee\u4e16
p4401
I4
sV\u56fd\u65d7
p4402
I2
sV\u5e7f\u544a\u516c\u53f8
p4403
I2
sV\u4e0d\u518d
p4404
I4
sV\u75be\u63a7\u4e2d\u5fc3
p4405
I2
sV\u7b2c\u4e00\u4ee3
p4406
I2
sV\u6df1
I4
sV\u5fae\u8f6f\u7684
p4407
I12
sV\u7b80\u76f4
p4408
I6
sV\u793c\u54c1
p4409
I2
sV\u7b2c\u4e00\u4ef6
p4410
I4
sVTop10
p4411
I2
sV\u73b0\u5b9e
p4412
I6
sV\u6982\u5ff5\u8bbe\u8ba1
p4413
I2
sV\u5c0f\u65f6
p4414
I18
sViOS5
p4415
I4
sV\u5e7f\u544a\u4e3b
p4416
I4
sV\u7b2c\u4e00\u4e2a
p4417
I2
sV\u4e0d\u5149
p4418
I2
sV\u7b54\u6848
p4419
I2
sV\u7406\u6027
p4420
I2
sV\u70b8
I4
sV365
p4421
I2
sV360
p4422
I60
sV\u5904\u82b1
p4423
I2
sV\u8c46\u74e3
p4424
I2
sV\u5bf9\u6b64
p4425
I2
sV\u5199\u9053
p4426
I2
sV\u5168\u76d8
p4427
I4
sV\u5cb3\u56fd\u950b
p4428
I2
sV\u626f
I4
sV\u533f\u540d\u6027
p4429
I2
sV\u5d2d\u65b0
p4430
I2
sV\u65b9\u5411
p4431
I2
sV\u7c7b
I20
sV\u7a7f
I4
sVTrident
p4432
I2
sV\u521a\u624d
p4433
I6
sV\u300e
I26
sV\u6392\u5728
p4434
I2
sV\u51fa\u8272
p4435
I6
sV\u60a3\u4e0a
p4436
I2
sV\u76f8\u53cd
p4437
I2
sV\u4e0a\u95e8\u670d\u52a1
p4438
I2
sV\u4e07\u52ab\u4e0d\u590d
p4439
I2
sV\u57fa\u672c\u4e0a
p4440
I4
sV\u8f6f\u4ef6\u8bc4\u6d4b
p4441
I2
sV\u90e8\u95e8
p4442
I8
sV\u9b54
I2
sV\u6392\u540d
p4443
I6
sVcatch
p4444
I2
sV\u6765
I72
sV\u6316\u51fa
p4445
I2
sV\u6709\u4e8b\u76f8\u6c42
p4446
I2
sV\u51b2\u51fb\u6ce2
p4447
I2
sV4528
p4448
I2
sV\u77ed\u77ed
p4449
I2
sV\u540c\u884c
p4450
I10
sV\u770b\u4e0d\u5230
p4451
I4
sV\u4e89\u593a\u6218
p4452
I2
sV\u6682
I2
sVAria
p4453
I2
sV\u5c11
I10
sV\u6717
I2
sV\u4e2d\u6bd2
p4454
I4
sV\u2019
I10
sV\u4f17\u591a
p4455
I18
sV\u5185\u88e4
p4456
I2
sV\u7280\u5229
p4457
I2
sV\u8be6\u5b9e
p4458
I2
sV\u8c31
I14
sV\u8bbf\u95ee\u91cf
p4459
I4
sV\u90fd\u5e02
p4460
I2
sV\u9646\u7eed
p4461
I4
sVS60V3
p4462
I6
sV\u5c1a\u4e0d
p4463
I2
sV\u672c\u7740
p4464
I2
sV\u81f4\u4f7f
p4465
I2
sV\u6697\u85cf
p4466
I2
sV\u641e\u7b11
p4467
I2
sV\u7247\u5c3e\u66f2
p4468
I2
sV\u6d3b\u4e0b\u53bb
p4469
I2
sV\u7b7e\u5230\u5904
p4470
I2
sV\u4e24\u5c81
p4471
I2
sV\u8bf4
I126
sV\u4f1a\u573a
p4472
I12
sV\u5854
I2
sV\u4e0d\u53ef
p4473
I6
sV\u822a\u73ed
p4474
I4
sV\u7279\u4e3a
p4475
I2
sV\u51e0\u5bb6
p4476
I2
sV\u827e\u6ecb\u75c5
p4477
I6
sV\u968f\u8eab\u643a\u5e26
p4478
I2
sV\u603b\u88c1
p4479
I4
sV\u75db\u82e6
p4480
I6
sV\u611f\u52a8
p4481
I2
sV\u5168\u7403
p4482
I52
sV\u9ebb
I2
sV\u521d\u4f53\u9a8c
p4483
I2
sVD
I2
sV\u4f46
I48
sV\u63a5\u89e6
p4484
I4
sV\u6258
I4
sV\u4f20\u7edf\u5a92\u4f53
p4485
I4
sV\u7528\u6237\u91cf
p4486
I2
sV59
p4487
I2
sV58
p4488
I2
sV55
p4489
I2
sV51
p4490
I2
sV50
p4491
I8
sV53
p4492
I2
sV\u9650\u989d
p4493
I2
sV\u4e70
I14
sV5.
p4494
I4
sV\u4e0b\u5217
p4495
I2
sV\u5d29\u584c
p4496
I2
sV\u5706\u8111
p4497
I2
sV\u65f6\u4ee3
p4498
I16
sV\u65b9\u821f\u5b50
p4499
I6
sV\u4f1a\u5458
p4500
I14
sV\u4ed6\u5988\u7684
p4501
I2
sVHD
p4502
I4
sV\u8f6c\u773c\u95f4
p4503
I2
sV\u62a5\u540d
p4504
I4
sV\u66f4\u597d
p4505
I2
sV\u5fc3\u4e2d
p4506
I2
sV\u5265\u524a
p4507
I2
sV\u611f\u5230
p4508
I4
sV\u7535\u98ce\u6247
p4509
I2
sV\u5a01\u7279
p4510
I2
sV9.23
p4511
I2
sV\u4f1a\u540e
p4512
I2
sV\u66f4\u591a
p4513
I38
sV\u7f51
I36
sV\u5e2e\u5fd9
p4514
I16
sV\u603b\u7f16\u5ba4
p4515
I2
sV\u9000\u56de
p4516
I2
sV\u7279\u4ef7
p4517
I2
sV\u6bd5\u7adf
p4518
I2
sV\u64a4\u4e0b
p4519
I2
sV\u62a5\u544a
p4520
I22
sV\u51fa
I26
sV\u6700
I98
sV\u8d8a\u591a
p4521
I4
sV\u53d1\u73b0
p4522
I44
sV\u68c0\u6d4b
p4523
I4
sV\u9a6c\u5316\u817e
p4524
I4
sV\u5168\u7528
p4525
I2
sV\u7ec8\u7a76\u4f1a
p4526
I2
sV\u5b81\u9759
p4527
I2
sV\u4e24\u5e74
p4528
I4
sV\u731c\u6d4b
p4529
I6
sV\u5e2e\u5e2e
p4530
I2
sV\u4e0b\u5348
p4531
I18
sV\u5341\u8db3
p4532
I2
sVGodaddy
p4533
I2
sV\u7f3a\u5c11
p4534
I2
sV\u5df2\u6210
p4535
I2
sV\u8d85\u6e05
p4536
I2
sV\u4e00\u90e8
p4537
I14
sV6
I18
sV\u4e0d\u52a8
p4538
I4
sV\u6124\u7136
p4539
I4
sV\u9aa4\u51b7
p4540
I2
sV\u65b0\u7248
p4541
I10
sV\u6c11\u653f\u90e8
p4542
I2
sV\u53e3
I2
sV\u611f\u53f9
p4543
I2
sVTop1
p4544
I2
sV\u5077\u53d6
p4545
I2
sV\u4e00\u8d77
p4546
I30
sV\u591c\u4e0d\u80fd\u5bd0
p4547
I2
sV\u8303
I2
sV\u6bcf\u4e2a
p4548
I10
sV\u667a\u6167
p4549
I2
sV\u540d
I14
sV\u9762\u4e34
p4550
I4
sV\u6dfb\u52a0
p4551
I2
sV\u76f8\u5173
p4552
I18
sVRTMPT
p4553
I2
sV\u5ea6
I4
sV\u5c6f\u8d27
p4554
I2
sVwhen
p4555
I2
sV\u8c6a\u534e
p4556
I2
sV\u6293\u6355
p4557
I2
sV\u9776\u5b50
p4558
I2
sV\u7279\u4f9b
p4559
I6
sVRTMPE
p4560
I2
sV\u96c7\u4f63
p4561
I2
sV\u5171\u4eab
p4562
I8
sV\u65b9\u5757
p4563
I2
sVBend
p4564
I2
sV\u963f\u803f
p4565
I4
sV\u4f7f\u547d
p4566
I4
sV\u56e0\u6b64
p4567
I4
sV\u8ba4\u4e3a
p4568
I22
sV\u4e0d\u5230
p4569
I12
sV\u4e0b\u53bb
p4570
I6
sV\u6388\u6743
p4571
I2
sV\u5a01\u731b
p4572
I6
sV\u4f24\u4ea1\u4eba\u6570
p4573
I2
sV\u53cd\u89c2
p4574
I2
sV\u88c5\u6ee1
p4575
I6
sV\u4e00\u8def
p4576
I2
sV1808
p4577
I2
sV\u8bc4\u65b0
p4578
I2
sV\u8981
I68
sV\u58a8\u8ff9
p4579
I2
sV\u4ee5\u6765
p4580
I2
sVSHSH
p4581
I2
sV\u6574\u4f53
p4582
I4
sV\u5b85
I4
sVMeeGo
p4583
I4
sV1949
p4584
I2
sV\u53f7\u7801
p4585
I2
sV\u73b0\u573a
p4586
I28
sV\u88ab
I100
sV\u4e00\u822c
p4587
I2
sV\u5168\u7a0b
p4588
I10
sV\u827a\u672f\u5bb6
p4589
I2
sV\u73b0\u5728
p4590
I72
sV\u7f3a
I6
sV\u5236\u6b62
p4591
I2
sV\u642d\u7406
p4592
I2
sV\u524d\u7aef
p4593
I2
sV\u7ecf
I2
sV\u5173\u952e\u70b9
p4594
I6
sV\u6012\u65a5
p4595
I2
sV\u5ba4\u5185
p4596
I2
sV\u5355\u4efb\u52a1
p4597
I2
sV\u610f\u601d
p4598
I2
sV\u76f8\u5e94
p4599
I2
sV\u534f\u8bae
p4600
I2
sV\u5145\u6ee1
p4601
I4
sV\u70ae\u8005
p4602
I2
sV\u4ed8\u6e05
p4603
I2
sV\u8f6c\u53d1
p4604
I102
sV\u79d2\u8868
p4605
I2
sV\u5fb7\u6bd4
p4606
I2
sV\u6298\u817e
p4607
I6
sVIwata
p4608
I2
sV\u524d\u4e09\u7532
p4609
I2
sV\u7535\u4fe1
p4610
I14
sV\u6d8c\u5165
p4611
I2
sV\u6295\u8d44\u4eba
p4612
I8
sV\u4fdd\u969c
p4613
I2
sV\u53c2\u5dee\u4e0d\u9f50
p4614
I2
sV\u4e4b\u8def
p4615
I6
sV\u6765\u5f80
p4616
I2
sV[
I26
sV\u4e0a\u65b9
p4617
I2
sV\u638c\u6743
p4618
I2
sV\u63d0\u4f9b
p4619
I50
sV\u95e8\u7981\u7cfb\u7edf
p4620
I2
sV\u590d\u5408
p4621
I4
sV\u8bdd\u8bed\u6743
p4622
I2
sV\u6c38\u4e45
p4623
I4
sV\u6210\u7acb
p4624
I2
sV\u8bd7\u6717\u8bf5
p4625
I2
sV\u901f\u901f
p4626
I2
sV\u516d\u6708
p4627
I2
sV\u539f\u7406
p4628
I2
sV\u957f\u8896
p4629
I2
sV\u4e3b\u89c2\u81c6\u65ad
p4630
I2
sViphone
p4631
I10
sV\u9700\u6c42
p4632
I12
sV\u975e\u8bda
p4633
I10
sVOpera
p4634
I42
sV\u62ab\u4e0a
p4635
I2
sV\u7f8e\u9662
p4636
I2
sV\u597d\u6b79
p4637
I4
sV\u5c4e
I2
sV\u656c\u8bf7\u671f\u5f85
p4638
I2
sVPush
p4639
I2
sVAigel
p4640
I2
sVFamily
p4641
I10
sVwlhmusicman
p4642
I2
sV\u611f\u67d3\u8005
p4643
I2
sV\u5c71\u897f
p4644
I2
sV\u6574\u4e2a
p4645
I10
sV\u9876
I4
sV\u5408\u4f5c\u4f19\u4f34
p4646
I6
sV\u671f
I4
sV\u5e02\u9762\u4e0a
p4647
I2
sV1
I62
sV\u76f8\u5f53
p4648
I8
sV\u534a\u5c0f\u65f6
p4649
I2
sV\u73a9\u8f6c
p4650
I6
sV\u63d0\u4ea4
p4651
I2
sV\u7f72\u540d
p4652
I2
sV\u8fd0\u52a8
p4653
I2
sV\u5085\u6cd7\u822a
p4654
I2
sV\u9152\u5e97
p4655
I6
sV\u57ce\u5e02
p4656
I6
sV\u4e0d\u5c11
p4657
I2
sV\u58f6
I2
sV\u601d\u8def
p4658
I2
sV\u4ea7\u54c1\u8bbe\u8ba1
p4659
I2
sV\u8d85
I10
sV\u5a31\u4e50
p4660
I8
sV\u611f\u5e94
p4661
I2
sV\u582a\u79f0
p4662
I4
sVCNNIC
p4663
I2
sV\u6d69\u54e5
p4664
I2
sV\u7ba1
I2
sV\u884c\u5c38\u8d70\u8089
p4665
I2
sV\u6d41\u52a8
p4666
I4
sV\u5c3c\u739b
p4667
I10
sV87
p4668
I2
sV\u7acb
I2
sV\u8fd9
I184
sVShazam
p4669
I4
sV\u7edf\u6cbb
p4670
I4
sVname
p4671
I4
sV\u600e\u4e48\u6837
p4672
I4
sV\u4e0d\u5f97
p4673
I2
sV\u91cd\u5ea6
p4674
I2
sV\u6597
I2
sV\u4e24\u53e5
p4675
I2
sV\u7f8e
I2
sV\u8ff7\u4eba
p4676
I2
sV\u4e24\u53f0
p4677
I2
sV\u8bc1\u5b9e
p4678
I4
sV\u5973\u4e3b
p4679
I2
sV\u91cd\u5e86
p4680
I4
sV\u731c\u60f3
p4681
I6
sV\u9ed1\u6697
p4682
I10
sV\u636e\u606f
p4683
I2
sV\u4f20\u627f
p4684
I2
sV\u6742\u8bf4
p4685
I2
sV\u523b
I4
sV\u4f53\u7cfb
p4686
I2
sV\u94fe\u63a5
p4687
I4
sV\u4e16\u754c
p4688
I18
sV\u914d\u7f6e
p4689
I8
sV\u52a8\u6f2b
p4690
I2
sV\u4f59
I4
sV\u7531\u4e8e
p4691
I14
sVBattery
p4692
I2
sV\u5458\u5de5
p4693
I12
sV\u795e\u9a6c
p4694
I4
sVTouch
p4695
I16
sV\u4e8b\u5b9e\u8bc1\u660e
p4696
I2
sV\u6b7b\u6c14\u6c89\u6c89
p4697
I2
sV\u793e\u533a
p4698
I6
sV\u6708
I48
sV\u5988\u5988
p4699
I2
sV\u4ee3\u66ff
p4700
I2
sVios4
p4701
I2
sVios6
p4702
I2
sV\u8715\u53d8
p4703
I2
sV\u7248\u672c\u53f7
p4704
I4
sV\u5728
I428
sV\u72d7\u8840
p4705
I2
sV\u5e2e\u5230
p4706
I2
sV\u62c9\u5927
p4707
I2
sV\u4e25\u91cd
p4708
I8
sVEnterprise
p4709
I2
sVPDF
p4710
I2
sV\u67dc\u53f0
p4711
I2
sV...22
p4712
I2
sV\u4e5f\u7f62
p4713
I2
sV\u7b80\u79f0
p4714
I2
sV\u5361\u5df4\u65af\u57fa
p4715
I4
sV\u5706\u5fc3
p4716
I2
sV\u7eaa\u5ff5\u65e5
p4717
I2
sV\u62db\u8058
p4718
I4
sV\u201d
I246
sV\u4e0d\u5e78
p4719
I6
sV\u5e2e\u52a9
p4720
I2
sV\u611f\u53d7
p4721
I6
sV\u9738\u6c14
p4722
I4
sV\u5b9d\u8d35
p4723
I2
sV\u4e2d\u6587
p4724
I12
sV\u8f68\u8ff9
p4725
I2
sV\u627e\u5230
p4726
I16
sV\u676d\u5dde\u5e02
p4727
I4
sV\u5f80\u4e0a\u63d0
p4728
I2
sV\u5728\u7ecf\u6d4e\u4e0a
p4729
I2
sV\u89c4\u6a21\u6027
p4730
I2
sV\u7b2c\u4e8c\u79cd
p4731
I2
sV\u6ce1\u59b9
p4732
I2
sV\u4e0d\u5e38
p4733
I2
sV\u76ce\u7136
p4734
I2
sV\u53d1\u7ed9
p4735
I2
sV\u4e2d\u65b0
p4736
I4
sV\u6f0f\u6597
p4737
I2
sV\u56fe
I26
sV\u638c\u63a7
p4738
I2
sV\u63d2\u4ef6
p4739
I6
sV\u666e\u53ca
p4740
I4
sVResearch
p4741
I2
sV\u6c99\u9f99
p4742
I14
sV\u96f7\u7535
p4743
I2
sVhack
p4744
I2
sV\u98df\u54c1
p4745
I2
sV\u4f7f\u5f97
p4746
I2
sV\u5730\u65b9
p4747
I12
sV\u5904\u7406
p4748
I6
sV\u94bb
I2
sV\u4e13\u4e3a
p4749
I2
sV\u5185\u810f
p4750
I2
sV\u5947\u864e
p4751
I12
sV\u4e13\u4e1a
p4752
I10
sV\u5ac1\u8863
p4753
I2
sV\u96a7\u9053
p4754
I2
sV\u56e7
I2
sV\u4e0d\u5982
p4755
I2
sV\u91cd\u5851
p4756
I2
sV\u5c4f\u5e55
p4757
I10
sV\u5168\u7ebf
p4758
I2
sV\u5367\u69fd
p4759
I2
sV\u7c7b\u4f3c
p4760
I6
sV\u4e0d\u597d
p4761
I8
sVSatoru
p4762
I2
sV\u4ea7\u4e1a\u94fe
p4763
I8
sV\u6392\u5e8f
p4764
I10
sV\u5730
I18
sV\u6d41
I4
sV\u8d77\u6765
p4765
I14
sV\u6d17\u53d1\u6c34
p4766
I2
sV\u5012\u6570
p4767
I2
sV\u5148\u751f
p4768
I10
sV\u5c0f\u6da8
p4769
I2
sVYoutube
p4770
I2
sV\u8f6c\u578b
p4771
I4
sV\u6210\u7ee9
p4772
I4
sV22
p4773
I4
sV\u95f9\u813e\u6c14
p4774
I2
sV\u79bb\u5a5a
p4775
I2
sV\u4e0d\u591f
p4776
I8
sV\u91cd\u5927
p4777
I8
sV\u6545\u4e8b
p4778
I6
sV\u84dd\u7259
p4779
I6
sV\uff0c
I3938
sV6.
p4780
I4
sV\u60f3\u4e0d\u5230
p4781
I2
sV60
p4782
I4
sV61
p4783
I4
sV\u76f8\u5bf9
p4784
I4
sV64
p4785
I6
sVTop100
p4786
I2
sV\u91cd\u590d
p4787
I2
sV\u4f4d\u4e8e
p4788
I2
sV\u8baf
I4
sV\u5de5\u4f5c
p4789
I24
sVBug
p4790
I4
sV500
p4791
I2
sV\u6c5f\u5317
p4792
I2
sV\u6742\u8c08
p4793
I4
sV\u5927\u6742\u70e9
p4794
I2
sV\u5c11\u5e74\u513f\u7ae5
p4795
I2
sV\u4e24\u540d
p4796
I4
sV\u6838\u5fc3
p4797
I10
sV\u878d\u5408
p4798
I14
sV\u4e0b\u53f0
p4799
I2
sV\u5931\u8d25
p4800
I8
sV\u5450\u558a
p4801
I2
sV\u66f4\u52a0
p4802
I12
sV\u628a
I50
sV\u5de5\u4fe1
p4803
I2
sV\u6f5c\u529b
p4804
I4
sV\u788e
I6
sV\u5411
I8
sV\u4e2d\u56fd\u79fb\u52a8
p4805
I40
sV\u4f60\u5bb6
p4806
I2
sV\u5e26\u6765
p4807
I10
sV\u56fd\u6c11
p4808
I2
sV\u5230\u573a
p4809
I2
sV\u65b0
I74
sV\u4ed8\u6b3e
p4810
I2
sV\u6084\u7136
p4811
I4
sV\u6b3a\u9a97
p4812
I2
sV\u89e3\u7b54
p4813
I2
sVNimbuzz
p4814
I2
sVIP
p4815
I2
sVIT
p4816
I8
sV\u6708\u7ecf
p4817
I4
sV\u674e
I4
sVDream
p4818
I2
sVID
p4819
I2
sVIs
p4820
I2
sV\u8270\u96be
p4821
I6
sV\u8eab\u4efd\u8bc1\u4ef6
p4822
I2
sV\u5e72\u8d27
p4823
I8
sV\u540c\u80de
p4824
I2
sV\u5e26\u6709
p4825
I2
sV\u5883\u5730
p4826
I2
sVTop50
p4827
I2
sV\u5356
I4
sVHttps
p4828
I2
sV\u5357\u975e
p4829
I2
sV\u5408\u7406
p4830
I6
sVJobs
p4831
I6
sV\u73a9
I14
sV\u8eab
I2
sV\u9762\u4e16
p4832
I2
sV\u9876\u4e00\u4e0b
p4833
I2
sVblog
p4834
I4
sV\u5bb9
I2
sV\u5f97\u653e
p4835
I2
sV\u9a84\u50b2
p4836
I8
sV\u522b\u7684
p4837
I2
sV\u89d2\u5ea6
p4838
I12
sV11672
p4839
I2
sV\u63a2\u79d8
p4840
I2
sV\u817e\u8baf\u7f51
p4841
I6
sVyubo
p4842
I2
sV\u684c\u9762
p4843
I12
sV\u94c1\u7c89
p4844
I2
sV\u89c9\u5f97
p4845
I42
sVMaster
p4846
I2
sV\u6d59\u6c5f
p4847
I4
sVW3C
p4848
I2
sV\u5c0f\u7c73
p4849
I38
sV\u4e2b
I2
sV\u5c0f\u5929\u4f7f
p4850
I2
sVIE9
p4851
I2
sV\u6349
I10
sV\u9500\u91cf
p4852
I2
sV\u952e\u76d8
p4853
I18
sV\u82e6\u77ed
p4854
I4
sV\u5386\u53f2
p4855
I4
sV\u51e0\u5341
p4856
I4
sV\u53d7\u5bb3\u8005
p4857
I2
sVof
p4858
I2
sVRovio
p4859
I2
sV\u676f\u5177
p4860
I20
sV\u7f8e\u91d1
p4861
I2
sV\u8bc4\u6d4b
p4862
I32
sV\u8f6c\u544a
p4863
I2
sV\u624b\u4e2d
p4864
I2
sV\u62e8\u4e91\u89c1\u65e5
p4865
I4
sV\u5ba0\u7269
p4866
I2
sVIE7
p4867
I2
sVWidgets
p4868
I2
sV\u5076\u50cf
p4869
I2
sV\u5f20
I4
sV\u9ad8\u6da8
p4870
I2
sVUED
p4871
I2
sV\u8001\u5976\u5976
p4872
I2
sV\u534f\u8c03
p4873
I2
sV\u590d\u53d1
p4874
I2
sV\u5141\u8bb8
p4875
I6
sV\u5ad6\u5a3c
p4876
I6
sV\u9650\u91cf
p4877
I2
sV\u8f6c\u5411
p4878
I2
sV\u6ee1\u573a
p4879
I2
sV\u4f60\u597d
p4880
I2
sVMission
p4881
I2
sV\u61c2\u5356
p4882
I2
sV\u4fdd\u91cd
p4883
I4
sV\u4ea6\u80fd\u8986\u821f
p4884
I2
sV\u611f
I6
sV4.1
p4885
I4
sV4.0
p4886
I6
sV4.3
p4887
I10
sV4.2
p4888
I4
sV\u6062\u590d
p4889
I2
sV5
I66
sV\u56fe\u50cf
p4890
I2
sV\u8981\u95fb
p4891
I2
sV\u6d59\u6c5f\u7701
p4892
I2
sV\u4f7f\u7528\u8d39
p4893
I2
sV\u5343\u91cc
p4894
I4
sV\u6807\u9898
p4895
I2
sV\u7237\u7237
p4896
I2
sV\u5b87\u9f99
p4897
I2
sV\u5fd7\u5411
p4898
I2
sV\u6700\u9ad8
p4899
I8
sV\u65b9\u5f0f
p4900
I18
sV\u5fae\u667a
p4901
I2
sV\u8bba\u575b
p4902
I56
sV\u7cdf\u7cd5
p4903
I4
sV\u51fa\u9762
p4904
I4
sVUCWeb
p4905
I2
sV\u6761\u4ef6
p4906
I2
sV\u6743\u5229
p4907
I4
sV\u62a2\u5148
p4908
I2
sV\u63a5\u9f99
p4909
I2
sV\u5c3d\u53ef\u80fd
p4910
I2
sV\u673a
I10
sVpresentation
p4911
I2
sV\u6d3e
I6
sV\u9644
I6
sV\u54ed\u8bc9
p4912
I2
sV\u6572\u5b9a
p4913
I4
sV\u4f59\u989d
p4914
I4
sVJoshua
p4915
I2
sV\u9884\u9632
p4916
I2
sV\u73ed
I2
sV\u5e74
I74
sV\u745e\u4fe1
p4917
I2
sV\u6bcf\u5929
p4918
I14
sV\u5b9e\u9a8c\u6027
p4919
I2
sV\u6743\u529b
p4920
I4
sV\u65b0\u6587
p4921
I2
sV\u6d4b\u8bd5\u7248
p4922
I2
sV\u7acb\u573a
p4923
I2
sV
I4
sVwhat
p4924
I2
sV\u6700\u65b0\u6d88\u606f
p4925
I4
sV\u4f55\u4ee5\u582a
p4926
I12
sV\u915d\u917f
p4927
I2
sV\u6bcf\u5904
p4928
I2
sV\u72ac
I4
sVavast
p4929
I4
sV\u8bf4\u660e
p4930
I18
sV\u4e4b\u95f4
p4931
I10
sVKPI
p4932
I2
sV\u706b
I2
sV\u5f00\u653e\u5e73\u53f0
p4933
I10
sV\u5b8c\u7f8e
p4934
I10
sV\u6682\u65f6
p4935
I4
sV\u5370\u5ea6
p4936
I4
sV\u65b0\u65e7
p4937
I2
sV\u7ec4\u6210\u90e8\u5206
p4938
I2
sV\u5acc\u7591
p4939
I4
sV\u7cfb\u7edf\u8fdb\u7a0b
p4940
I2
sV\u5c01
I2
sV\u60c5\u6000
p4941
I2
sV\u51fa\u9662
p4942
I2
sVReader
p4943
I4
sV\u4ef7\u503c
p4944
I16
sV\u56fe\u4e66
p4945
I2
sV\u674e\u9e3f\u7ae0
p4946
I2
sV\u7a7a\u8bdd
p4947
I4
sV\u83b7
I4
sV\u7b2c\u4e00\u5bb6
p4948
I2
sV\u751a\u81f3
p4949
I6
sV\u56fe\u4e3a
p4950
I2
sV\u7bc7
I2
sV\u53d7
I6
sV\u5f53\u9762
p4951
I2
sVG14
p4952
I2
sVG13
p4953
I2
sVG12
p4954
I2
sVG11
p4955
I2
sVG10
p4956
I2
sV\u8fc7\u5206
p4957
I2
sV\u592a\u5f3a\u5927
p4958
I2
sV\u8fd9\u4e9b\u5e74\u6765
p4959
I4
sV\u524d\u63d0
p4960
I2
sVv
I2
sV\u6216\u8bb8
p4961
I4
sV\u89e3\u6790
p4962
I2
sVpony
p4963
I2
sV\u8fbe\u5230
p4964
I18
sV\u5206\u6790\u5e08
p4965
I2
sV\u533b\u9662
p4966
I2
sV\u9634\u8c0b
p4967
I2
sV\u7d27\u5f20
p4968
I2
sV\u7c7b\u522b
p4969
I2
sV\u518d\u6b21
p4970
I12
sV\uff1f
I496
sV\u7406\u7531
p4971
I4
sV\u82f1\u56fd\u4f26\u6566
p4972
I2
sV\u820d\u4e0d\u5f97
p4973
I4
sV\u738b\u9053
p4974
I2
sV\u5bd3\u610f
p4975
I2
sV\u66fe\u7ecf
p4976
I12
sV\u73a9\u827a\u513f
p4977
I2
sVDesire
p4978
I12
sV\u51b3\u5b9a
p4979
I16
sV\u75d5\u8ff9
p4980
I2
sV\u6240\u6709
p4981
I30
sV\u624d
I52
sV\u5fc3\u808c\u6897\u585e
p4982
I2
sV\u66f4\u4e0a
p4983
I2
sV\u7b3c\u5b50
p4984
I2
sV\u73b0\u4efb
p4985
I2
sV\u900a\u8272
p4986
I2
sVPlayer
p4987
I2
sV\u5076\u5c14
p4988
I2
sV\u4e91\u76d8
p4989
I4
sV\u6d45\u663e\u6613\u61c2
p4990
I2
sV\u6b64\u6b21
p4991
I10
sV\u5168\u602a
p4992
I2
sV\u5173\u4e8e
p4993
I16
sV\u8bda\u631a
p4994
I2
sV\u7535\u5546
p4995
I4
sV\u8fd8\u7b97
p4996
I2
sV\u84dd\u6d77
p4997
I2
sV\u5408\u683c
p4998
I2
sV\u65b0\u673a
p4999
I2
sV\u6e20\u9053
p5000
I10
sV
I18
sV\u5fd8\u8bb0
p5001
I8
sV\u672c\u7ad9
p5002
I2
sV\u56fd\u738b
p5003
I4
sV\u6ce8\u610f
p5004
I6
sVSilverlight
p5005
I2
sV\u4eba\u5de5
p5006
I2
sV\u6c42\u6551\u4fe1
p5007
I2
sV\u53d1\u6765
p5008
I6
sV\u9762\u5bf9
p5009
I2
sV\u8881\u4f1f
p5010
I2
sV\u94f6\u884c\u5361
p5011
I4
sV\u521b\u5efa
p5012
I2
sV\u53ea\u662f
p5013
I30
sV\u8ba4\u5b9a
p5014
I4
sV\u51fa\u9519
p5015
I2
sV\u51fa\u95e8
p5016
I2
sV\u63a5\u4e0b\u6765
p5017
I2
sV\u76d7\u7248
p5018
I4
sV\u5565\u65f6\u5019
p5019
I2
sV\u4e00\u9897
p5020
I2
sV\u9ec4\u91d1
p5021
I2
sV\u522b
I8
sV\u8c23\u8a00
p5022
I4
sV\u4fe1\u53f7\u5f3a\u5ea6
p5023
I2
sV\u6d77\u5916
p5024
I6
sV\u538b\u6839\u513f
p5025
I2
sV\u5b8c\u6574
p5026
I6
sV\u4e8c\u624b
p5027
I2
sV\u6851\u5947
p5028
I2
sV\u77e5\u540d\u5ea6
p5029
I2
sV\uff08
I114
sV\u62bd\u67e5
p5030
I2
sVIndian
p5031
I2
sV\u5de5\u5177
p5032
I6
sV\u51e0\u4ebf
p5033
I4
sV\u5b58\u5728
p5034
I14
sV"
I30
sV\u6709\u4f55\u611f\u60f3
p5035
I2
sV\u4f7f\u7528\u91cf
p5036
I2
sV\u529e\u516c
p5037
I2
sV\u65b0\u6625
p5038
I2
sV\u53d1\u660e
p5039
I2
sV\u98d8\u8fc7
p5040
I4
sVN97
p5041
I4
sV\u51e0\u4ef6
p5042
I2
sV\u8d54
I2
sV\u6574\u5408
p5043
I2
sV\u9886\u5148
p5044
I4
sV\u542f\u52a8
p5045
I4
sV\u70ed
I2
sV\u8bb8\u4e45
p5046
I2
sV\u5f88\u5feb
p5047
I8
sV\u8ba8\u538c
p5048
I6
sV\u4e3e
I2
sVmobile2
p5049
I2
sViBook
p5050
I4
sV\u5be5\u5be5
p5051
I2
sV\u63d2\u5165
p5052
I2
sV\u5438\u8d39
p5053
I2
sV\u52a3\u52bf
p5054
I2
sV\u8ddd\u79bb
p5055
I8
sV\u624b\u52bf
p5056
I4
sV\u516c\u6d4b\u7248
p5057
I2
sV\u843d\u5bde
p5058
I2
sV\u767e\u89c6\u901a
p5059
I2
sV\u5347\u7ea7
p5060
I18
sV\u8d2b\u7a77
p5061
I2
sV\u5c0f\u72d7
p5062
I2
sV\u6b63\u76f4
p5063
I2
sV\u4e09\u4e2a\u4ee3\u8868
p5064
I2
sVUC7
p5065
I6
sV\u7f16\u7801
p5066
I2
sV\u6df1\u547c\u5438
p5067
I2
sV7.
p5068
I4
sV72
p5069
I2
sV70
p5070
I8
sV\u516c\u7ea6
p5071
I2
sV\u8ff7\u57ce
p5072
I2
sV\u51e0\u4e4e
p5073
I6
sV\u5854\u9632\u4f1a
p5074
I2
sV\u6b7b
I8
sV\u4f55\u65b9
p5075
I2
sV\u4e8e\u662f
p5076
I4
sV\u68a6\u5e7b
p5077
I2
sV\u622a\u81f3
p5078
I2
sV\u901d\u8005
p5079
I4
sV\u4eba\u5bb6
p5080
I10
sV\u8bbe\u5b9a
p5081
I4
sV\u63a5
I2
sV\u5974\u5f79
p5082
I4
sV\u5e26\u7ed9
p5083
I2
sVBerg
p5084
I2
sV\u8463\u79d8
p5085
I2
sV\u4e8b\u5b9e\u4e0a
p5086
I4
sV\u63d0\u5347
p5087
I18
sV\u6536
I2
sV\u515c\u552e
p5088
I2
sV\u633a
I8
sV\u8001\u72fc
p5089
I2
sV18901039349
p5090
I4
sV\u4f55\u65f6
p5091
I2
sVValue
p5092
I2
sV\u9ad8\u76db
p5093
I2
sV\u95e8\u53e3
p5094
I8
sV\u8d44\u6e90
p5095
I2
sV\u5df2\u7136
p5096
I2
sV\u95e8\u6237\u7f51\u7ad9
p5097
I2
sV\u77ed
I2
sV\u65b0\u52a0\u5761
p5098
I2
sV\u4e00\u7968
p5099
I2
sV\u2014
I120
sV\u5305
I12
sV\u90e8\u843d
p5100
I6
sVN950
p5101
I4
sV\u55ef
I6
sV\u7ecf\u5e38
p5102
I14
sV2.2
p5103
I18
sV2.1
p5104
I2
sV2.0
p5105
I90
sV\u9009\u9879
p5106
I4
sV\u8111\u5b50
p5107
I2
sV\u5371\u5bb3
p5108
I2
sV\u4e1c\u839e
p5109
I2
sV\u7edd\u65e0
p5110
I2
sV\u6cbb\u75c5
p5111
I2
sV\u63d0\u53ca
p5112
I2
sV\u6574\u53e5
p5113
I2
sV\u6d41\u8fde\u5fd8\u8fd4
p5114
I2
sV\u7684\u4e48
p5115
I2
sV\u5199\u6587\u7ae0
p5116
I4
sV\u8270\u8f9b
p5117
I4
sV\u4e70\u5b98
p5118
I2
sV\u6d3b\u513f
p5119
I2
sV\u9274\u4e8e
p5120
I4
sV\u7ec8\u4e8e
p5121
I8
sV\u5bf9\u4f4d
p5122
I2
sV\u5e1d\u56fd
p5123
I2
sV\u53ef\u4ee5
p5124
I110
sV\u5947\u8ff9
p5125
I2
sV\u516d\u70b9\u534a
p5126
I4
sV\u5c3d\u4eab\u4e91
p5127
I2
sV\u672c\u5730\u5316
p5128
I2
sV\u6210\u672c
p5129
I10
sV\u62a5
I4
sV\u5bf9\u4e8e
p5130
I16
sV\u589e\u957f\u7387
p5131
I4
sV\u80e1\u5b50
p5132
I2
sV\u4eab\u5e74
p5133
I6
sV\u9053\u7406
p5134
I4
sV\u597d\u770b
p5135
I2
sVpm
p5136
I2
sV\u53ef\u4f4e
p5137
I2
sV\u63d0\u5230
p5138
I2
sV\u8f6c\u4e0b
p5139
I2
sV\u98de\u804a
p5140
I4
sV1862
p5141
I2
sV\u5de5\u573a
p5142
I2
sV\u4e0d\u5f97\u4e0d
p5143
I2
sV\u7f3a\u4e4f
p5144
I4
sV\u82e5
I4
sVVesterbacka
p5145
I2
sV\u9648\u65b0
p5146
I2
sV\u968f\u65f6\u968f\u5730
p5147
I4
sV\u9664\u975e
p5148
I2
sV\u5168\u6743
p5149
I2
sV\u6709\u610f\u8005
p5150
I4
sV\u5f88\u591a
p5151
I56
sVCity
p5152
I2
sV\u4f5c\u4e1a\u672c
p5153
I2
sV\u672c\u6708
p5154
I6
sV\u5e16\u5b50
p5155
I4
sV\u53ef\u4f9b
p5156
I4
sV\u7acb\u523b
p5157
I2
sV\u672c\u671f
p5158
I2
sV\u7f8e\u8a89
p5159
I2
sVshirt
p5160
I2
sV\u6b65\u67aa
p5161
I2
sV\u6076\u884c
p5162
I2
sV\u5b8c\u6210
p5163
I4
sV9
I18
sV\u524d\u671f
p5164
I2
sV\u5f88\u5927
p5165
I4
sV\u524d\u6765
p5166
I4
sV\u53ea\u80fd
p5167
I14
sVAbout
p5168
I2
sV\u540e\u9762
p5169
I2
sV\u592e\u89c6
p5170
I4
sV\u9886\u57df
p5171
I8
sV\u8ffd\u6367
p5172
I2
sV\u601d\u91cf
p5173
I2
sV\u5230\u4f4d
p5174
I2
sV\u8ffd\u6355
p5175
I2
sV\u672c\u6765
p5176
I2
sV\u5230\u65f6\u5019
p5177
I2
sV\u732b
I4
sV\u6bcf\u5929\u665a\u4e0a
p5178
I2
sV\u53d1\u6325
p5179
I2
sViTouch
p5180
I2
sV\u4e24\u4f4d
p5181
I4
sV\u591a\u8bf4\u65e0\u76ca
p5182
I2
sV\u6d41\u4ea7
p5183
I2
sVNokia
p5184
I28
sVWM7
p5185
I2
sVChocolate
p5186
I2
sV\u963f\u91cc
p5187
I6
sV\u6b3e
I10
sV\u6b3e\u9879
p5188
I2
sV\u5f55\u97f3
p5189
I2
sVAir
p5190
I8
sV\u65f6\u5e38
p5191
I2
sV\u88c5\u7f6e
p5192
I2
sV\u603b\u989d
p5193
I2
sV\u7535\u89c6\u5267
p5194
I4
sV\u673a\u4f1a\u96be\u5f97
p5195
I2
sV\u7070\u732a
p5196
I2
sV\u6124\u6012
p5197
I4
sV\u63d0\u51fa
p5198
I2
sV\u8c22\u7f6a
p5199
I2
sV3.5
p5200
I4
sV3.3
p5201
I2
sV3.0
p5202
I2
sV3.1
p5203
I2
sV\u793e\u4ea4
p5204
I16
sVEmail
p5205
I2
sV\u4e00\u5473
p5206
I2
sV\u8ffd\u601d
p5207
I8
sV\u53d1\u6398
p5208
I2
sV\u76db\u5178
p5209
I2
sV\u8d2f\u7a7f
p5210
I2
sV\u5bb6\u4f19
p5211
I8
sV\u8bbe\u5907
p5212
I38
sV\u7b2c\u4e00\u5c4a
p5213
I2
sV\u7b49
I80
sV\u4f55\u6765
p5214
I2
sV\u90bb\u8baf
p5215
I2
sV\u8d70\u8001\u8def
p5216
I2
sV\u65e2
I2
sV\u6d3b\u5316
p5217
I2
sV\u5df2
I36
sV\u4e89\u8bae
p5218
I2
sV\u7f29\u77ed
p5219
I2
sV\u5dc5\u5cf0
p5220
I2
sV\u65f6\u56e0
p5221
I2
sV\u5bb6\u4ea7
p5222
I4
sV\u6570\u5343
p5223
I2
sV\u5b9e\u9645\u4e0a
p5224
I2
sV\u901a
I6
sV\u524d\u65b9
p5225
I2
sVTiger
p5226
I2
sV\u793e\u4f1a
p5227
I16
sV\u5de5\u5546
p5228
I2
sV\u5439\u725b
p5229
I4
sV\u6c14\u7403
p5230
I2
sV\u6619\u82b1\u4e00\u73b0
p5231
I2
sV\u8d44\u6df1
p5232
I2
sV\u7ea2\u6bef
p5233
I2
sV\u4e24\u4e2a
p5234
I20
sVhttps
p5235
I2
sV\u4eba\u58eb
p5236
I14
sV\u6267\u653f
p5237
I2
sV\u4fc3\u8fdb
p5238
I2
sV\u5355\u72ec
p5239
I2
sV\u671d\u9633\u533a
p5240
I2
sV\u6d3b\u52a8
p5241
I36
sV\u68c0\u7d22
p5242
I2
sV\u6760
I2
sV\u2462
I2
sV\u56db\u70b9
p5243
I4
sV\u53cb\u85cf
p5244
I2
sV\u5b88\u4fe1
p5245
I2
sV\u4e4b\u5bb6
p5246
I4
sV\u5f00\u53d1\u6210\u672c
p5247
I2
sV\u5168\u65b0
p5248
I14
sV\uff1b
I126
sV\u6323
I2
sV\u4ea6
I4
sV\u7ed1\u5b9a
p5249
I6
sV\u6269\u5c55
p5250
I6
sV\u53cd\u9988
p5251
I2
sV\u4e8c\u6708
p5252
I2
sV\u4ea4\u6d41
p5253
I4
sV\u5c34\u5c2c
p5254
I2
sV\u542c\u5230
p5255
I4
sV\u5168\u6587
p5256
I4
sV\u771f\u662f\u592a
p5257
I2
sV\u84dd\u5929\u767d\u4e91
p5258
I2
sV\u6d3b\u5230
p5259
I2
sV\u6bcf\u5e74
p5260
I4
sV\u5f71\u54cd
p5261
I6
sV\u521d\u59cb
p5262
I2
sV\u5916\u6765
p5263
I2
sV\u8363
I4
sV\u6709\u6ca1\u6709
p5264
I10
sV\u8bd5\u8bd5
p5265
I2
sV\u6311\u6218
p5266
I4
sV\u8d85\u7ea7
p5267
I6
sV\u548c\u8c10\u793e\u4f1a
p5268
I2
sV\u5220\u9664
p5269
I22
sV\u6743\u5a01
p5270
I2
sV\u9051\u8bba
p5271
I2
sV010
p5272
I2
sV\u6dd8\u5b9d
p5273
I4
sV\u54a8\u8be2
p5274
I2
sV\u7528\u6237\u6570\u91cf
p5275
I2
sV\u6c38\u5eb7
p5276
I4
sV\u4e70\u4e0d\u8d77
p5277
I4
sV\u4e24
I4
sV\u7535\u5f71
p5278
I2
sV\u653e
I2
sV\u8d70\u5411
p5279
I4
sV\u68cb
I4
sV\u5bb3\u6015
p5280
I2
sVP
I12
sV\u9ad8\u7aef
p5281
I2
sV\u5197\u957f
p5282
I2
sV\u65f6\u5019
p5283
I42
sV\u9632\u706b
p5284
I2
sV\u5509
I12
sV\u8bbf\u95ee
p5285
I4
sV\u54c8\u54c8
p5286
I8
sV\u6392
I4
sV\u4eab\u53d7
p5287
I2
sV\u751f\u6001\u7cfb\u7edf
p5288
I4
sV\u539f\u6587
p5289
I4
sV\u5806\u780c
p5290
I2
sV\u5f3a\u70c8\u8981\u6c42
p5291
I2
sV\u53e6\u4e00\u65b9\u9762
p5292
I2
sV\u641c\u51fa
p5293
I2
sV\u4eb5\u73a9
p5294
I2
sV\u5173\u95ed
p5295
I14
sV\u54c8
I6
sVLinuxTOY
p5296
I2
sV\u4f60\u4eec
p5297
I42
sV\u4ea4\u4e92\u6027
p5298
I2
sV\u522b\u6025
p5299
I2
sVInsight
p5300
I2
sV\u591a\u8c22
p5301
I2
sV\u5dee
I12
sV\u9ad8\u7a7a
p5302
I2
sVPalm
p5303
I2
sV\u4ffa
I2
sV\u518d\u56de\u9996
p5304
I2
sV\u5206\u6790
p5305
I14
sV\u6c47\u603b
p5306
I6
sVapp
p5307
I2
sV\u76f8\u4fe1
p5308
I6
sV\u674e\u5f64
p5309
I2
sV\u7aa5\u63a2
p5310
I2
sV\u4e09\u89d2\u604b
p5311
I2
sV\u4e09\u767e\u540d
p5312
I2
sV\u884c\u60c5
p5313
I4
sVfrom
p5314
I6
sV\u4f24
I6
sV&
I4
sV\u7ecf\u5386
p5315
I6
sV\u5e86\u8d3a
p5316
I2
sV\u9ad8\u7ba1
p5317
I2
sV\u7247\u533a
p5318
I6
sV\u73b0\u767e\u89c6\u901a
p5319
I4
sV\u4efb\u610f
p5320
I2
sV\u516c\u5171\u9891\u9053
p5321
I2
sV\u95ee\u5377
p5322
I2
sV\u5c55\u53f0
p5323
I2
sVPizero
p5324
I2
sV\u8f6f\u4ef6
p5325
I104
sV\u54c8\u54c8\u54c8
p5326
I4
sV\u4e5d\u5bab
p5327
I2
sV0.8
p5328
I2
sV\u5e05
I6
sV\u4ea4\u6362
p5329
I2
sVFeature
p5330
I2
sV\u805a\u9910
p5331
I4
sV\u771f
I22
sV\u50f5\u5c38
p5332
I2
sV\u672c\u6b21
p5333
I2
sV\u589e\u901f
p5334
I2
sV\u6210\u4eba\u4e4b\u7f8e
p5335
I2
sV\u4ec5\u4ec5
p5336
I8
sV\u4e00\u8f88\u5b50
p5337
I2
sV\u4e13\u5bb6
p5338
I2
sV1888
p5339
I2
sV\u638c\u767e
p5340
I2
sV\u9886\u5bfc
p5341
I22
sV\u4ee3\u7406
p5342
I2
sVWordPress
p5343
I4
sV\u7231\u65bd\u5fb7
p5344
I2
sV\u7279\u522b
p5345
I10
sV\u9690\u55bb
p5346
I2
sV\u674e\u8001\u5e08
p5347
I2
sV\u8bf4\u6cd5
p5348
I2
sV13.
p5349
I2
sV\u5982\u4e0b
p5350
I4
sV\u6210
I6
sV\u5f53\u524d\u7248\u672c
p5351
I2
sV\u539f\u6709
p5352
I2
sV17000
p5353
I2
sV\u5ab2\u7f8e
p5354
I4
sV\u503c\u5f97
p5355
I20
sVShell
p5356
I4
sV\u91c7\u8bbf
p5357
I6
sV\u539f\u672c
p5358
I2
sV\u4e0d\u5927\u53ef\u80fd
p5359
I2
sV\u62c5\u5f53
p5360
I2
sV\u9ad8\u98ce\u9669
p5361
I2
sV\u865a\u5e7b\u6027
p5362
I2
sV\u6731\u5229\u5b89
p5363
I2
sV\u300a
I72
sV\u76d7\u7a83
p5364
I2
sV\u554a
I76
sV\u4f4e
I2
sV\u671f\u76fc
p5365
I2
sV\u4e0d\u4fbf
p5366
I2
sV\u65f6\u523b
p5367
I2
sV\u65b0\u4e00\u8f6e
p5368
I2
sV\u6a21\u677f
p5369
I4
sV5.0.1
p5370
I2
sV\u4ee3
I6
sV\u5f53\u5929
p5371
I2
sV\u4e00\u906d
p5372
I2
sV\u539f\u6765
p5373
I2
sV8.
p5374
I4
sV\u77e5\u66f4\u9e1f
p5375
I2
sV80
p5376
I6
sV86
p5377
I2
sV\u8fdc\u7a0b
p5378
I6
sV\u4e0d\u4f46
p5379
I2
sV\u5360\u9886
p5380
I2
sV\u6027
I4
sV\u6469\u6258\u7f57\u62c9
p5381
I20
sV\u5750\u7b49
p5382
I2
sV\u8981\u80fd
p5383
I2
sV\u7528\u8fc7
p5384
I4
sV\u519b\u72ac
p5385
I2
sV\u6216\u8005
p5386
I16
sV\u6ca1\u542c\u8bf4\u8fc7
p5387
I2
sV\u5982\u4eca
p5388
I2
sV\u6700\u8fd1
p5389
I22
sV\u6700\u8fdf
p5390
I2
sV\u53d8\u9769
p5391
I14
sV\u52b2\u677e
p5392
I2
sV\u79c1\u81ea
p5393
I2
sV\u55a7\u5bbe\u593a\u4e3b
p5394
I2
sV\u671f\u5f85\u5df2\u4e45
p5395
I2
sV\u5531\u7ea2
p5396
I2
sV\u8ffd\u6c42
p5397
I2
sV\u4e0d\u4f1a
p5398
I34
sV\u91cd\u4f24
p5399
I2
sVcmmb
p5400
I4
sV\u9ad8\u5fb7\u5e74
p5401
I2
sV\u522b\u63d0
p5402
I2
sV\u79fb\u52a8\u7528\u6237
p5403
I2
sV\u6253\u7834\u5e38\u89c4
p5404
I2
sV\u4e0d\u4ec5
p5405
I4
sVSNDA
p5406
I2
sV\u9ad8\u901f\u94c1\u8def
p5407
I2
sV\u8bf4\u4e0d\u5b9a
p5408
I2
sV\u8425\u9500
p5409
I14
sV1500
p5410
I4
sV\u7ba1\u9053\u5de5
p5411
I2
sV\u4e0d\u4ea4
p5412
I2
sVItunes
p5413
I2
sV\u5982\u4f55
p5414
I30
sV\u53eb\u505a
p5415
I2
sV\u82b1\u94b1
p5416
I2
sVKB
p5417
I4
sV\u4e0d\u4e86
p5418
I10
sV\u60ca\u4eba
p5419
I2
sV\u81ea\u98df\u5176\u679c
p5420
I2
sV\u82f1\u5bf8
p5421
I4
sV\u90a3\u8fb9
p5422
I2
sV\u4e2d\u7535
p5423
I2
sVKV
p5424
I2
sV\u665a\u95f4
p5425
I2
sVPeter
p5426
I2
sV\u91d1\u94b1\u8c79
p5427
I2
sV1.5
p5428
I8
sV1.0
p5429
I4
sV1.2
p5430
I2
sV1.3
p5431
I2
sV\u516c\u76ca
p5432
I2
sV\u5934\u8111
p5433
I2
sV\u6027\u4ef7\u6bd4
p5434
I4
sV6700
p5435
I2
sV\u8fc7\u540e
p5436
I2
sV\u5df2\u7ecf
p5437
I80
sV\u751f
I6
sV\u843d\u5730
p5438
I2
sV\u4e0d\u4e45
p5439
I2
sV\u6469\u6258
p5440
I2
sV\u6770\u51fa
p5441
I4
sV\u73b0
I8
sV=
I36
sV\u4f20\u7edf
p5442
I10
sV\u7559\u610f
p5443
I4
sV\u4eba\u547d
p5444
I4
sV\u7ecf\u5178
p5445
I8
sV\u5171\u52c9
p5446
I2
sV\u6765\u4e34
p5447
I2
sV\u516d\u95f4\u623f
p5448
I2
sV\u7b97\u8ba1
p5449
I2
sV\u9762\u524d
p5450
I2
sV\u7f14\u9020\u8005
p5451
I2
sV\u4e0d\u4e0a
p5452
I2
sV\u907f\u514d
p5453
I2
sV\u4eba\u5458
p5454
I4
sV\u95f4
I6
sV\u4f11\u95f2
p5455
I2
sV\u4e70\u5356
p5456
I2
sV\u6c9f\u901a
p5457
I2
sV\u5584\u5f85
p5458
I2
sV\u7535\u5b50
p5459
I4
sV\u5c0f\u888b\u9f20
p5460
I2
sV\u54ea\u4e2a
p5461
I10
sV\u60f3\u7740
p5462
I2
sV6000
p5463
I2
sV\u7eaa\u5ff5\u7248
p5464
I2
sV\u9f8c\u9f8a
p5465
I2
sV\u9ad8\u7ea7
p5466
I10
sVLegend
p5467
I2
sV\u5546
I4
sV\u534a
I2
sV\u5177\u8bf4
p5468
I2
sV\u4e0d\u5feb
p5469
I2
sV\u755c\u7272
p5470
I2
sV\u62a5\u4ef7
p5471
I4
sVGPS
p5472
I2
sVqq
p5473
I2
sV\u8be5
I34
sV\u5370\u5237
p5474
I2
sV\u6068
I2
sV\u516c\u7136
p5475
I2
sV\u5b8c\u6bd5
p5476
I2
sV\u8d76
I2
sV\u843d\u540e
p5477
I4
sV\u5783\u573e\u7ad9
p5478
I2
sV\u5206\u6210
p5479
I8
sV\u70e7\u5236
p5480
I2
sV\u8d76\u56de
p5481
I2
sV\u51ed\u501f
p5482
I4
sV\u90e8\u624b\u673a
p5483
I2
sV\u56fd\u52a1\u9662
p5484
I2
sV\u54ea\u4e9b
p5485
I6
sV\u8c37\u6b4c
p5486
I4
sV\u5149\u662f
p5487
I2
sV\u62a5\u4e1a
p5488
I2
sV\u53ea\u8981
p5489
I10
sV720
p5490
I2
sV\u7b7e\u5230
p5491
I2
sV\u6bd4\u7279\u7387
p5492
I2
sV\u6551
I2
sVwebapp
p5493
I2
sV\u7ea6\u70ae
p5494
I4
sV\u4ea4\u6613
p5495
I2
sV\u4f9d\u7136
p5496
I6
sV\u5fc5\u5907
p5497
I2
sV\u515c\u5e95
p5498
I2
sV\u671f\u5f85
p5499
I20
sV\u97f3\u6807
p5500
I2
sV\u5171\u540c
p5501
I14
sV\u6ca1
I34
sVIE8
p5502
I2
sV\u8e22
I4
sV\u949e\u7968
p5503
I6
sV\u6fc0\u60c5
p5504
I2
sV\u7247\u573a
p5505
I2
sV\u9ed8\u8ba4
p5506
I4
sV\u6218\u7565
p5507
I2
sV\u54b1
I2
sV\u519b\u7528
p5508
I2
sV\u5bfb\u627e
p5509
I2
sV\u6bcf
I10
sV\u98de\u884c
p5510
I4
sV\u514d\u8d39\u9001
p5511
I2
sV\u751f\u6548\u65e5
p5512
I2
sV\u6b64
I30
sV\u5609\u5bbe
p5513
I2
sV\u4ecb\u7ecd
p5514
I4
sVwill
p5515
I2
sV\u5374
I18
sV\u4e92\u8054\u7f51\u7edc
p5516
I2
sV~
I46
sV\u5236\u9020\u8005
p5517
I2
sV\u5343\u4e07\u522b
p5518
I2
sV\u6b7b\u6d3b
p5519
I2
sV\u5fc5\u5b9a
p5520
I4
sV\u4e0d
I222
sV\u5730\u7403
p5521
I4
sV\u65e0\u803b\u4e4b\u5f92
p5522
I2
sV\u901f\u5ea6\u5feb
p5523
I2
sV\u5185\u90e8
p5524
I4
sV\u4eba\u5219
p5525
I2
sV\u8d1f\u8d23
p5526
I2
sV\u88f8\u5954
p5527
I2
sV\u67d0\u4eba
p5528
I6
sV\u719f\u7ec3
p5529
I2
sV\u8d44\u672c
p5530
I4
sV\u67d0\u4e9b
p5531
I6
sV\u89c4\u77e9
p5532
I2
sV\u523a\u6fc0
p5533
I4
sV\u4e8b
I20
sV\u7ea2\u536b\u5175
p5534
I2
sV\u5992\u5fcc
p5535
I2
sV\u56db\u79cd
p5536
I4
sV\u7ea2\u6b4c
p5537
I2
sV\u5f3a\u8eab\u5065\u4f53
p5538
I2
sV\u963f\u72f8
p5539
I6
sV\u7eff\u6c34\u9752\u5c71
p5540
I2
sV\u57fa\u672c\u65b9\u9488
p5541
I2
sV\u603b\u4e66\u8bb0
p5542
I2
sV\u9648\u6e90
p5543
I2
sV\u6b64\u6765
p5544
I2
sV\u6b64\u6761
p5545
I2
sVT
I6
sVLOGO
p5546
I4
sV\u64e6\u8fb9\u7403
p5547
I4
sV\u5c45\u7136
p5548
I18
sV\u643a\u624b
p5549
I2
sV\u5218\u6625
p5550
I2
sV\u975e\u5e38\u5c11
p5551
I2
sV\u6574\u5929
p5552
I4
sV\u94bb\u77f3
p5553
I2
sV\u672c\u571f\u5316
p5554
I2
sV11.
p5555
I2
sV\u690d\u7269
p5556
I2
sV\u6324\u6ee1
p5557
I2
sV\u56e0\u7231
p5558
I2
sV110
p5559
I2
sV\u5b89\u88c5
p5560
I24
sV118
p5561
I2
sV\u6751\u6c11
p5562
I2
sV\u4e58\u5ba2
p5563
I4
sV\u53cb\u8c0a
p5564
I2
sV\u8fdb\u5316\u8bba
p5565
I2
sV\u9053\u6b49
p5566
I4
sV\u4e2a\u4f53
p5567
I2
sV\u6765\u6e90\u4e8e
p5568
I4
sV\u76f8\u6bd4\u4e4b\u4e0b
p5569
I4
sV\u8131\u9896\u800c\u51fa
p5570
I2
sV\u5148\u671f
p5571
I2
sV\u82cf\u5065
p5572
I2
sV\u5377\u8f74
p5573
I2
sV\u5404\u81ea
p5574
I2
sV\u53d1\u6bdb
p5575
I2
sV\u76db\u5927
p5576
I4
sV\u6f02\u767d
p5577
I2
sV\u672a\u96e8\u7ef8\u7f2a
p5578
I2
sV\u7279\u5728
p5579
I2
sV\u8d34\u819c
p5580
I2
sV\u6570\u5b57
p5581
I6
sV\u65b0\u4f53\u9a8c
p5582
I2
sV\u4f8b
I2
sV\u5f90\u65b9
p5583
I2
sV\u51fa\u8def
p5584
I2
sV\u6295\u7968
p5585
I14
sV\u627f\u8ba4
p5586
I2
sV\u51fb\u4e2d
p5587
I2
sV\u4f20
I4
sV\u8c22
I2
sV\u8bf4\u4e0d\u5f97
p5588
I2
sV\u7edf\u79f0
p5589
I2
sV\u6570\u5b66
p5590
I2
sV\u5c42
I2
sV\u627f\u8bfa
p5591
I4
sV\u4e2a\u4eba
p5592
I18
sV\u8033\u673a
p5593
I2
sV\u5730\u76d8
p5594
I2
sV\u8bed\u97f3\u8f93\u5165
p5595
I4
sV\u504f\u597d
p5596
I2
sV\u65b9\u4fbf
p5597
I8
sV\u8d44\u6599
p5598
I12
sVConsumer
p5599
I2
sV\u5148\u7779\u4e3a\u5feb
p5600
I2
sV\u7d22\u8981
p5601
I2
sV\u8bc1\u4e66
p5602
I6
sVTee
p5603
I4
sV\u521b\u53e3
p5604
I2
sV\u6628\u5929\u665a\u4e0a
p5605
I2
sV\u53cc\u4f11
p5606
I2
sV\u5947\u8469
p5607
I4
sV\u5e01
I2
sV\u7b80\u6d01
p5608
I6
sV\u7686
I2
sV\u517b\u6d3b
p5609
I2
sV\u4e2d\u56fd\u533a
p5610
I6
sV\u591a\u5a92\u4f53
p5611
I2
sVElectronics
p5612
I2
sV\u529e
I4
sV\u5a01\u6b66
p5613
I2
sV\u63a5\u901a
p5614
I2
sV\u6d77\u5b8f\u5144
p5615
I2
sV\u53c8
I56
sV\u5973\u5b50
p5616
I2
sV\u4e92\u76f8
p5617
I10
sVCDMA2000
p5618
I2
sV\u5c3a\u5bf8
p5619
I2
sV\u66f4\u8fdb\u4e00\u6b65
p5620
I2
sV\u5e7f\u544a\u5546
p5621
I2
sV\u9020\u578b
p5622
I2
sV\u5973\u5b69
p5623
I8
sV\u6000\u5ff5
p5624
I2
sV\u5012\u817e
p5625
I2
sV\u6b64\u524d
p5626
I4
s.