(dp1
V\u52b1\u5fd7
p2
I6
sV\u51fa\u6765
p3
I64
sV\u7b2c\u4e8c
p4
I2
sV\u8fd8\u8981
p5
I8
sVHeights
p6
I2
sV\u5e73\u5b89
p7
I2
sV\u9006\u5883
p8
I8
sV\u540c\u6d32
p9
I2
sV\u5438\u7eb3
p10
I48
sV\u4f5c\u5f0a
p11
I2
sV\u7f14\u9020
p12
I4
sV\u7a33\u56fa
p13
I48
sV\u79d1\u6280\u9886\u57df
p14
I2
sV\u94f6\u5b50
p15
I2
sVVengeance
p16
I2
sV\u8c08
I2
sV\u5438
I2
sV\u7ebf
I2
sV\u53cd
I4
sV\u724c
I2
sV\u56f0\u5883
p17
I4
sV\u6b63\u5e38
p18
I6
sVlumia
p19
I2
sV\u770b\u4f3c
p20
I4
sV\u81f3\u6b7b
p21
I2
sV\u77e5
I4
sV\u4e16\u7eaa
p22
I10
sV\u8d77\u8bc9
p23
I8
sV\u5e94\u4ece
p24
I2
sV\u76c8\u5229
p25
I4
sVGizmodo
p26
I4
sV\u9635\u8425
p27
I16
sV\u5403\u5927\u4fbf
p28
I2
sV\u5e03\u9635
p29
I2
sV\u81f3\u6b64
p30
I4
sV\u4e1a\u754c
p31
I6
sV\u7b2c\u4e00
p32
I18
sV\u6740\u654c
p33
I2
sV\u7b2c\u4e09
p34
I4
sV\u661f\u671f\u4e94
p35
I4
sV\u4ee3\u91d1\u5238
p36
I48
sVIphone
p37
I2
sV\u5ba1\u6838
p38
I4
sV\u5080\u5121
p39
I2
sV\u65e0\u5904
p40
I2
sV\u4e0a\u5934
p41
I2
sV\u4e3a\u4e86
p42
I166
sV\u4e09\u5e74
p43
I4
sV\u65e0\u591a
p44
I2
sVAT&T
p45
I2
sV\u773c\u4e0b
p46
I2
sV\u660e\u786e
p47
I6
sVFoundation
p48
I2
sV\u8c22\u83f2\u5c14\u5fb7
p49
I2
sV\u4e4b\u65f6
p50
I2
sV\u51d1\u8fd1
p51
I2
sV\u673a\u53cb
p52
I2
sV\u65b0\u95fb
p53
I4
sV\u65e0\u5948
p54
I4
sV\u6ef4
I6
sV\u4ea7\u54c1
p55
I316
sV\u5185\u6db5
p56
I2
sV\u987b
I2
sV\u6b64\u5904
p57
I2
sV\u6deb\u79fd
p58
I2
sV\u5de8\u4eba
p59
I2
sV\u91d1\u7acb
p60
I2
sVDexter
p61
I2
sV\u4f9b\u5e94\u91cf
p62
I2
sV\u76ee\u524d
p63
I84
sVHarvey
p64
I2
sV\u4f5b\u6559
p65
I2
sV\u4e0a
I316
sV\u540e
I170
sV\u7d22\u5c3c
p66
I26
sV\u5c0f\u53ee\u5f53
p67
I2
sV\u6e05\u6d17
p68
I2
sV\u4e00\u6b21
p69
I24
sV\u4efd\u989d
p70
I28
sV\u6302\u65ad
p71
I2
sV\u5355\u624b\u64cd\u4f5c
p72
I4
sV\u4e08\u592b
p73
I2
sV\u964d\u5f97
p74
I2
sV\u5916\u58f3
p75
I8
sV2688
p76
I2
sV\u65af\u7279
p77
I2
sV\u7aef\u6e38
p78
I2
sVmAh
p79
I2
sV\u4e00\u6b3e
p80
I188
sV\u65e5\u5b50
p81
I6
sV\u906d\u9047
p82
I8
sV\u4e03\u6708
p83
I2
sV\u4fee\u590d
p84
I18
sV9.
p85
I2
sV\u9500\u552e\u6743
p86
I2
sV\u5360\u636e
p87
I22
sV\u770b\u4e2d
p88
I2
sV99
p89
I4
sV\u65e0\u58f0
p90
I2
sV\u5feb\u4e50
p91
I28
sV90
p92
I8
sVhold
p93
I2
sV95
p94
I4
sV97
p95
I2
sV96
p96
I2
sV\u6b63\u5f0f
p97
I94
sV\u4e00\u6b65
p98
I8
sV\u516d\u8f6e
p99
I2
sV\u524a\u5f31
p100
I6
sV\u53f7
I108
sV\u4e3a\u4f55
p101
I52
sV\u666e\u666e\u901a\u901a
p102
I2
sV\u626b\u7801
p103
I4
sV\u5899\u4e0a
p104
I4
sV\u5047\u5192
p105
I2
sV\u6298\u6842
p106
I4
sV\u9700\u6c42\u91cf
p107
I4
sV\u56fd\u803b
p108
I2
sVReality
p109
I4
sVBrian
p110
I2
sV\u8fd0\u52a8\u6218
p111
I2
sV\u7231\u60c5
p112
I20
sVqHD
p113
I2
sV\u51fa\u66f4
p114
I2
sVLG
p115
I14
sV\u540d\u7247
p116
I4
sV\u4e00\u6bb5
p117
I8
sV\u5341\u6b3e
p118
I2
sVA
I6
sV\u5176\u6b21
p119
I2
sV\u5c45\u4f4f
p120
I2
sVWPP
p121
I2
sV\u5de8\u4e73
p122
I2
sV\u514b
I8
sV\u89c6\u9891\u6d41
p123
I2
sV\u574f
I6
sV\u5976\u8336
p124
I2
sVStickman
p125
I2
sV\u4e00\u7fa4
p126
I4
sV\u9519\u8bef
p127
I6
sV\u5934\u7b79
p128
I2
sV\u52a0\u4e0a
p129
I4
sV\u60b2\u5267
p130
I6
sV\u5065\u5fd8\u75c7
p131
I2
sV\u76ee\u5149
p132
I4
sV\u90a3\u5929
p133
I4
sV\u5f3a\u5927
p134
I10
sV\u6536\u542c
p135
I2
sV\u5f04\u6e05\u695a
p136
I2
sV\u4e2d\u4e1c
p137
I2
sV\u54c8\u5c3c\u592b
p138
I2
sV\u6492\u54c8\u62c9
p139
I48
sV\u5f00\u5f20
p140
I2
sV\u7cbe\u529b
p141
I2
sV\u62ab
I2
sV\u96be\u4ee5
p142
I2
sV\u7269\u79cd
p143
I2
sV\u4e00\u6837
p144
I74
sV\u4e00\u6839
p145
I2
sV\u540e\u6094
p146
I6
sV\u8054\u624b
p147
I100
sV\u6240
I32
sV\u6478\u7d22
p148
I2
sVHIGH
p149
I2
sV\u503c\u4e0d\u503c\u5f97
p150
I2
sVCards
p151
I2
sV\u4eff\u4f5b
p152
I4
sV\u57fa\u5730
p153
I2
sV\u6bdb\u94b1
p154
I240
sV\u5b66
I52
sVAPP
p155
I8
sVAPQ
p156
I2
sV\u5728\u5916
p157
I2
sV\u732a\u8089
p158
I6
sV\u5b9a\u5236
p159
I20
sV\u5f00\u5f80
p160
I2
sV\u84b8\u7b3c
p161
I2
sV\u6807
I2
sV\u5217\u4e3a
p162
I6
sV\u9ebb\u75f9
p163
I2
sV\u8d8a
I2
sV\u63a5\u6d3d
p164
I2
sV\u7238\u7238
p165
I4
sV\u4e09\u5c4a
p166
I2
sV\u4f18
I2
sV\u534f\u540c\u4f5c\u6218
p167
I2
sV\u8695\u98df
p168
I6
sV\u5e72\u6270
p169
I6
sV\u5730\u56fe\u529f\u80fd
p170
I2
sV\u8fde\u7ebf
p171
I6
sV\u6709\u5173
p172
I14
sV\u795e\u7236
p173
I2
sV\u524d\u9014
p174
I2
sV\u4e4b\u6797
p175
I4
sV\u7a81\u51fa
p176
I2
sVSuper
p177
I6
sV\u58a8\u653b
p178
I2
sV\u61c2
I2
sV\u5b50\u5f39
p179
I2
sV\u914d
I6
sV\u5168\u90e8
p180
I6
sV\u79d2
I62
sV\u4f5b\u7f57\u63d0\u4e9a
p181
I4
sV\u51fa\u65b0
p182
I2
sV\u8fde
I50
sV\u5341\u6863
p183
I2
sV\u5f31\u70b9
p184
I2
sV\u4e94\u5149\u5341\u8272
p185
I2
sV\u57df\u540d
p186
I2
sV\u6ca1\u5fc3\u6ca1\u80ba
p187
I2
sV\u8fde\u7eed
p188
I8
sV\u4e0a\u5b66
p189
I2
sV\u597d
I68
sV\u66d9\u5149
p190
I4
sV\u81f4\u547d\u4f24
p191
I2
sV\u95ed\u4e0a\u773c\u775b
p192
I2
sVLiMo
p193
I48
sV\u5e26\u89e6
p194
I2
sV\u6216
I238
sV\u80a5\u7682\u6ce1
p195
I2
sV\u65af
I2
sV\u7b3c\u7f69
p196
I2
sV\u738b\u96ea\u7ea2
p197
I4
sV\u5c06\u8fd1
p198
I6
sV\u968f\u540e
p199
I4
sV\u5916\u5a92
p200
I18
sV\u7275\u624b
p201
I2
sV\u5f00\u5e55
p202
I2
sV\u8001\u864e
p203
I2
sV\u840c\u5e7b
p204
I2
sV\u8c79\u7eb9
p205
I6
sV\u5404\u7c7b
p206
I50
sVZeta
p207
I2
sV\u763e
I2
sV\u8857\u673a
p208
I2
sV\u5e94
I8
sV\u68c0\u89c6
p209
I2
sV\u8def\u5f84
p210
I2
sV\u57fa\u56e0
p211
I2
sV\u4e8b\u5173
p212
I4
sV\u699c
I2
sVWilliams
p213
I2
sV\u672c\u521d
p214
I2
sV\u610f\u8bc6
p215
I2
sV\u4e2d\u8def
p216
I4
sV\u5f00\u5ead
p217
I2
sV\u8bb0
I2
sV\u594b\u6597
p218
I2
sV\u5904\u65b9
p219
I2
sV\u6a2a\u5e45
p220
I2
sV\u6240\u957f
p221
I2
sVeven
p222
I2
sV\u751f\u5b58
p223
I6
sV\u5f53\u65f6
p224
I2
sV\u89c2\u770b
p225
I4
sV\u5e7f
I2
sV\u5f53
I44
sV\u773c\u82b1\u7f2d\u4e71
p226
I2
sV\u62db\u6807
p227
I2
sVicloud
p228
I2
sVLogic
p229
I2
sV\u505c\u7559
p230
I2
sV\u4e8b\u513f
p231
I2
sV\u7f8e\u7f8e
p232
I2
sV\u4f59\u6b21
p233
I2
sV\u89e3\u9501
p234
I4
sV\u9177
I12
sV\u84b8\u53d1
p235
I4
sV\u63d0\u9192
p236
I2
sV\u6536\u522e
p237
I2
sV\u6536\u5230
p238
I10
sV\u5e74\u524d
p239
I2
sV\u781d\u7801
p240
I2
sV\u673a\u573a
p241
I14
sV\u2018
I2
sVPremium
p242
I2
sV\u5ea7
I4
sV\u7cbe\u9009
p243
I2
sV\u5f53\u6210
p244
I2
sV\u5929\u4e0b
p245
I2
sV\u5bcc\u88d5
p246
I2
sV\u73ed\u82b1
p247
I4
sV\u5f00\u5934
p248
I2
sV\u6253\u5305
p249
I2
sV\u5b9a\u540d
p250
I2
sV\u5e74\u521d
p251
I10
sV\u7f51\u4ef6
p252
I52
sV\u6848
I4
sV\u79d8\u5bc6
p253
I2
sV\u529b\u4f5c
p254
I4
sV\u7f16\u8f91
p255
I4
sV\u6df7\u4e71
p256
I2
sVX
I16
sV\u7b2c\u4e09\u4e16\u754c
p257
I2
sV\u786e\u8ba4
p258
I52
sV\u975e\u540c\u4e00\u822c
p259
I2
sV\u871c\u6d3e
p260
I2
sV\u76d6\u8d77
p261
I2
sV\u89c2\u70b9
p262
I2
sV\u5148
I6
sV\u52c7\u6c14
p263
I4
sV\u53d1\u5c55\u4e2d\u56fd\u5bb6
p264
I48
sV\u611f\u53d7\u4e00\u4e0b
p265
I2
sVAndroid
p266
I512
sVJohn
p267
I2
sV\u79f0\u5f97\u4e0a
p268
I2
sV\u4f5c\u5bb6
p269
I2
sV\u53f3\u65b9
p270
I2
sV\u673a\u578b
p271
I8
sV\u5929
I14
sVprada
p272
I2
sV\u91c7\u7528
p273
I62
sV\u96be\u9898
p274
I2
sV\u8d85\u8d8a
p275
I10
sV\u80a1\u7968
p276
I4
sV\u5168\u90e8\u90fd\u662f
p277
I2
sV\u5929\u4ef7
p278
I2
sV\u5fae\u535a
p279
I2
sV\u4e00\u4e2a\u4e2a
p280
I2
sV\u601d\u60f3
p281
I6
sV62.7
p282
I2
sV\u6253\u53d1
p283
I2
sV\u9759\u4e0b\u5fc3\u6765
p284
I2
sV\u5df4\u8428
p285
I6
sVLogo
p286
I2
sVPSP
p287
I2
sVMarvelousAQL
p288
I2
sV\u6539\u9769
p289
I2
sV\u80cc\u666f
p290
I12
sV\u540c\u6837
p291
I12
sV\u6e2f\u884c
p292
I2
sV\u4ee4\u4eba
p293
I4
sV\u5931\u6548
p294
I2
sV\u5bc2\u5bde
p295
I8
sV\u6666\u6697
p296
I2
sV\u79cd\u690d
p297
I4
sV\u9648\u5973\u58eb
p298
I2
sV\u519b\u8d39
p299
I2
sV\u5360\u6709
p300
I2
sV.
I96
sV\u53d1\u9001
p301
I8
sV\u540e\u679c
p302
I4
sV\u98de\u5229\u6d66
p303
I2
sVlife
p304
I2
sV\u673a\u5668
p305
I4
sV\u536b\u89c6
p306
I2
sV\u8fc7
I42
sV\u5e78\u707e\u4e50\u7978
p307
I2
sVSRS
p308
I2
sVElgato
p309
I2
sV\u5168\u9762
p310
I10
sV65.94
p311
I2
sV\u8239\u8236
p312
I2
sV\u5662
I2
sV\u6700\u706b
p313
I2
sV\u4e09\u5bb6
p314
I6
sV\u5185\u6838
p315
I4
sV\u4e8e\u975e
p316
I2
sV\u548c\u5e73\u533a
p317
I4
sVk
I2
sV\u7206\u7b11
p318
I2
sV\u4ee3\u8868
p319
I4
sVFHD
p320
I2
sViPadMini
p321
I2
sV\u6253\u52a8
p322
I2
sV\u53d6\u5f97
p323
I10
sV\u4e0a\u5c06
p324
I2
sV\u4e1d
I10
sV\u76d1\u6d4b
p325
I2
sV\u65e0\u5c3d
p326
I2
sV\u5b98\u7f51
p327
I10
sV\u914d\u9001
p328
I2
sV\u7814\u8ba8\u4f1a
p329
I2
sV\u6c88\u9633
p330
I4
sV\u5206\u8fa8\u7387
p331
I10
sV\u4eb2
I4
sV\u80f8\u895f
p332
I2
sV\u65e5\u5fd7
p333
I2
sV\u5f00\u53d1\u5468\u671f
p334
I2
sV\u8c22\u8c22
p335
I2
sV\u524d\u9762
p336
I2
sV18.36
p337
I2
sV\u771f\u5751
p338
I2
sV\u4e00\u5c0f\u90e8\u5206
p339
I2
sV\u5760\u6bc1
p340
I2
sV\u7b56\u7565
p341
I10
sV\u4ed9\u4fa0
p342
I2
sV\u96f6\u90e8\u4ef6
p343
I2
sV\u6c34\u5e73
p344
I2
sVNOR
p345
I2
sV\u6536\u53d6
p346
I2
sV\u7ffc
I2
sV\u7f51\u4f4f
p347
I2
sV\u6781
I2
sV\u53d7\u96c7
p348
I2
sVRussell
p349
I2
sV\u72d7\u72d7
p350
I2
sV\u667a\u80fd
p351
I300
sV\u4e9b
I2
sV\u770b\u4e66
p352
I2
sV\u2006
I4
sV\u65e0\u5f80
p353
I2
sVhao
p354
I2
sV\u5317\u4eac
p355
I64
sVhad
p356
I2
sV\u65e2\u6709
p357
I2
sV\u6109\u5feb
p358
I8
sV\u4e09\u756a
p359
I2
sV\u6587\u7ae0
p360
I4
sV\u7eb8\u5f20
p361
I2
sV\u64ad\u653e\u5668
p362
I2
sV\u540c\u6b65
p363
I10
sV\u4e3b\u4eba
p364
I2
sV\u900f\u660e\u5ea6
p365
I2
sV\u827e\u5fb7
p366
I4
sV\u76f8\u77e5
p367
I14
sV\u4e0d\u89c1\u5f97
p368
I2
sV\u91c7\u77ff
p369
I2
sVto5mac
p370
I2
sV\u636e
I170
sV\u88c5\u8f7d
p371
I2
sV\u90ae\u4ef6
p372
I10
sV\u8d54\u507f
p373
I10
sV\u840c\u5ba0
p374
I2
sV\u8d39\u5168\u514d
p375
I2
sV\u8d85\u8fc7
p376
I30
sV\u548c
I878
sVMP4
p377
I2
sV\u5229\u6da6\u7387
p378
I2
sV\u6c89\u91cd
p379
I2
sV\u4fe1\u53f7
p380
I12
sV\u957f\u671f
p381
I4
sV\u5916\u5f62
p382
I6
sV\u7709\u5934
p383
I2
sV\u8ffd\u9010
p384
I2
sV\u904d\u5e03
p385
I2
sV\u9047\u96be
p386
I4
sV\u8fb9\u6846
p387
I8
sV\u51fb\u6740
p388
I2
sVFacebook
p389
I28
sV\u6cd5\u5f8b
p390
I2
sV\u4fb5\u5165
p391
I2
sV\u5f02\u5e38
p392
I2
sV\u6253\u51fb
p393
I6
sV\u6253\u51fa
p394
I2
sV\u5404\u79cd
p395
I30
sV\u8054\u76df
p396
I6
sV\u5348\u9910
p397
I4
sV\u65bd\u653e
p398
I2
sV\u4e0a\u5f53
p399
I2
sV\u6eda\u6eda
p400
I2
sV\u4e00\u5361\u901a
p401
I2
sV\u56e0
I8
sV\u6982\u62ec
p402
I2
sV\u667a\u8005
p403
I4
sV\u519c\u573a
p404
I4
sV\u5e74\u5934
p405
I2
sVMPI
p406
I2
sV\u4e8c\u7ef4\u7801
p407
I6
sV\u6211\u5e02
p408
I2
sV\u51cf\u80a5
p409
I2
sV\u7528\u6237\u65e5\u5fd7
p410
I2
sV12.
p411
I2
sV\u4eca\u5e74\u5e74\u5e95
p412
I4
sV\u9012\u4ea4
p413
I2
sV\u51e0\u6b21
p414
I4
sV\u4f9b
I2
sV\u6d74\u8840
p415
I2
sVoften
p416
I2
sV\u7070\u8272
p417
I2
sV\u89e3\u91ca
p418
I8
sV\u7761\u89c9
p419
I6
sV\u7b2c\u4e09\u79cd
p420
I2
sV\u7b2c\u4e09\u5b63\u5ea6
p421
I14
sV\u5b98\u53f8
p422
I6
sV\u6cd5\u5e08
p423
I2
sV\u4ea7\u54c1\u578b\u53f7
p424
I2
sV\u5143\u7d20
p425
I6
sV\u6740
I2
sV\u4e00\u6d41
p426
I2
sV\u6536\u5165
p427
I6
sVCITY
p428
I2
sV\u535a\u89c8\u4f1a
p429
I2
sV\u54cd
I6
sV\u754c
I48
sV\u91cf
I10
sV\u63a2\u5934
p430
I8
sV\u613f\u671b
p431
I6
sV\u5373\u5c06
p432
I84
sV\u9760
I14
sV\u5462
I128
sV\u636e\u8bf4
p433
I8
sVinside
p434
I2
sV\u8b66\u5bdf
p435
I4
sV\u56db\u80a2
p436
I2
sV\u5e02\u573a\u8c03\u7814
p437
I4
sV\u6280\u80fd
p438
I6
sV\u5e26\u8d70
p439
I2
sV\u4e0a\u5e1d
p440
I6
sV155
p441
I2
sV\u5b64\u8eab
p442
I2
sV\u9ca8\u9c7c
p443
I2
sV\u6740\u624b
p444
I2
sV\u770b
I40
sV\u6709\u529b
p445
I2
sV\u6cd5\u5ead
p446
I8
sV\u9ebb\u70e6
p447
I8
sV\u4e0a\u5e02
p448
I128
sV15.
p449
I2
sV\u70b9\u4eae
p450
I2
sV\u65b9\u7a0b\u5f0f
p451
I2
sV\u79d2\u6740
p452
I2
sV\u82ac\u82b3
p453
I2
sV\u7239
I2
sV\u5c06\u6765
p454
I2
sV\u5448\u73b0\u51fa
p455
I2
sV\u5de6\u53f3
p456
I6
sVE
I18
sV\u6570\u636e\u4e1a\u52a1
p457
I2
sV\u65cb\u8f6c
p458
I2
sV\u80af\u5b9a
p459
I8
sV\u826f\u6027\u5faa\u73af
p460
I4
sV\u6fc0\u589e
p461
I4
sV\u5de6\u53d1
p462
I2
sV\u9519\u8def
p463
I2
sV\u6b63\u5982
p464
I4
sV\u4e71
I2
sV\u897f\u5317
p465
I2
sV5.11
p466
I2
sV\u7537\u751f
p467
I10
sV\u4e13\u5229\u7533\u8bf7
p468
I6
sV\u5341\u4e5d\u65e5
p469
I2
sV\u6625\u8fd0
p470
I6
sV\u4e09\u5927
p471
I16
sV\u53cd\u6620
p472
I4
sV\u7b26\u53f7
p473
I4
sV\u5185\u655b
p474
I2
sV\u4e00\u6218
p475
I2
sV\u4e0d\u6210\u6bd4\u4f8b
p476
I2
sV\u5439\u8d77
p477
I2
sV\u65e5\u524d
p478
I46
sV\u7a33\u5efa
p479
I2
sV\u4e09\u56fd
p480
I20
sV\u5fae\u5fae
p481
I2
sV\u534e\u4e3a\u516c\u53f8
p482
I2
sV3499
p483
I2
sV\u5f00\u552e
p484
I8
sV\u62db\u63fd
p485
I2
sV\u9ed1\u624b\u515a
p486
I6
sV\u59d4\u5c48
p487
I2
sV\u5c38
I4
sV\u4efb\u9009
p488
I2
sV\u6253\u5f00
p489
I6
sV\u81ea\u6301
p490
I2
sV\u79bb\u804c
p491
I4
sV\u8d22\u4ea7
p492
I2
sV\u7f6e\u4e8e
p493
I48
sV\u8bb0\u5f55
p494
I12
sV\u6c34\u8d27
p495
I4
sV\u8bed\u4fe1
p496
I48
sV\u8089\u5305
p497
I2
sV1700
p498
I2
sV\u4e0d\u5229\u4e8e
p499
I2
sV\u6709\u5bb3
p500
I2
sV2.69
p501
I2
sVTax
p502
I2
sV\u7f8e\u533a
p503
I2
sVSmartGlass
p504
I6
sVleave
p505
I2
sV\u610f\u5927\u5229
p506
I4
sV\u4e00\u6279
p507
I2
sV\u673a\u5b50
p508
I4
sV\u5b89\u5168\u6027
p509
I2
sV\u963b\u788d
p510
I2
sVdroid
p511
I2
sV\u8bb0\u5f97
p512
I16
sV\u540c\u573a\u7ade\u6280
p513
I2
sV\u4f55\u5fc5
p514
I2
sV\u4e3b\u5bfc\u5730\u4f4d
p515
I2
sV\u8fd9\u65f6\u5019
p516
I2
sV\u6700\u591a
p517
I2
sVM1
p518
I2
sV\u5306\u5306
p519
I2
sVM2
p520
I240
sV\u9ad8\u4ea4\u4f1a
p521
I4
sV\u52a0\u5927
p522
I6
sV\u6df1\u591c\u91cc
p523
I2
sV\u63a9\u57cb
p524
I2
sV\u9014\u5f84
p525
I4
sV\u5165\u7f51
p526
I10
sV\u4eca\u5e74\u590f\u5929
p527
I2
sV\u91cc\u7ea6
p528
I2
sV\u6216\u56e0
p529
I2
sV\u505a\u51fa
p530
I8
sV\u53c2\u4e0e
p531
I108
sV\u5e74\u5e95
p532
I4
sV\u540c\u65f6
p533
I80
sV\u8bb0\u5fc6
p534
I6
sV\u78e8\u706d
p535
I2
sV\u603b\u662f
p536
I12
sV\u5fc3\u91cc\u6709\u6570
p537
I6
sVMM
p538
I2
sVML
p539
I2
sV\u9a7b\u7559
p540
I2
sV\u60f0
I2
sV\u66f4
I94
sV\u5e74\u5ea6
p541
I4
sV\u8b66\u544a
p542
I2
sV\u63a8\u9001
p543
I12
sVMY
p544
I2
sV\u8fd9\u4e48
p545
I10
sVlove
p546
I4
sV\u91cf\u4ea7
p547
I2
sV\u5f00\u5408
p548
I2
sV\u73a9\u673a
p549
I2
sV\u8bd5\u7528
p550
I4
sV\u5c5e\u4e8e
p551
I18
sV\u66b4\u98ce\u96e8
p552
I2
sV\u8d60\u793c
p553
I2
sV8190
p554
I2
sV\u5f00\u542f
p555
I10
sV\u89c6\u56fe
p556
I4
sVby
p557
I6
sV\u6d3b\u8dc3\u6027
p558
I2
sV\u4fee\u517b
p559
I4
sV\u5b89\u7f6e
p560
I2
sV\u5b9e\u4e60
p561
I2
sV\u65e0\u7ebf\u7f51\u7edc
p562
I4
sV\u53f8\u6cd5
p563
I2
sV\u795e\u79d8
p564
I62
sV\u6b63\u5728
p565
I94
sV\u4ec5
I96
sV\u5168\u4e16\u754c
p566
I4
sV\u590f\u5929
p567
I4
sV\u8eab\u65e0\u5f69
p568
I2
sV\u667a\u8fbe
p569
I2
sV\u7f8e\u767d
p570
I2
sV\u4e07\u540d
p571
I2
sVMOTO
p572
I2
sV\u4e92\u8054
p573
I2
sV\u5b9e\u4e3a
p574
I2
sV\u8fd9\u4e2a
p575
I130
sV\u5f20\u5c0f
p576
I2
sV\u597d\u4e45\u6ca1
p577
I2
sV\u540c\u4ef7\u4f4d
p578
I2
sVSquier
p579
I2
sV\u6c89\u9ed8
p580
I2
sV\u63ed\u5f00
p581
I4
sV\u6307
I4
sV\u5149\u76d8
p582
I2
sV\u5b8c
I2
sV\u65b0\u9c9c
p583
I2
sV\u3011
I1408
sV\u5f3a\u52bf
p584
I4
sV\u602a\u7269
p585
I4
sV230
p586
I2
sV\u5e02\u573a\u5360\u6709\u7387
p587
I6
sV\u4f11\u606f
p588
I2
sV\u5bbd\u6055
p589
I6
sV\u5df4\u897f
p590
I4
sVAnddroid
p591
I2
sV\u5413\u8dd1
p592
I2
sV\u542c\u89c1
p593
I2
sV\u7231\u5230\u6df1\u5904
p594
I2
sV\u82ac\u5170\u8bed
p595
I2
sV\u8fd9\u4efd
p596
I6
sV\u5f3a\u529b
p597
I2
sV\u4f24\u75d5
p598
I2
sV\u9ed1\u6770\u514b
p599
I2
sV\u739b\u96c5\u4eba
p600
I2
sV\u6293\u8d3c
p601
I2
sV\u76f8\u601d
p602
I2
sVSensitive
p603
I2
sV\u8fd9\u4e9b
p604
I92
sV\u9a70\u9a8b
p605
I2
sV\u592a\u5927
p606
I2
sV\u8d34\u7740
p607
I2
sV\u597d\u8bdd
p608
I2
sV\u79cd\u65cf
p609
I4
sV\u6a2a\u5411
p610
I2
sV\u8f6f
I2
sV\u6279\u51c6
p611
I6
sV\u6c11\u4f01
p612
I2
sV\u597d\u8bc4
p613
I2
sV\u552e\u51fa
p614
I12
sV\u8bc4\u8bba
p615
I6
sV\u6d4b\u8bd5
p616
I22
sV\u89d2\u5ea6\u770b
p617
I2
sVTFT
p618
I2
sVKairosoft
p619
I2
sV\u6070\u5f53
p620
I2
sV\u4eba\u5c71\u4eba\u6d77
p621
I2
sV\u91c7\u6696
p622
I6
sV\u5206\u949f
p623
I4
sV\u8036\u7a23
p624
I2
sV\u540d\u79f0
p625
I2
sV\u5408\u9002
p626
I6
sV\u7ee7\u7eed
p627
I62
sV\u559d\u9189
p628
I2
sV\u201c
I604
sV\u4e92\u76f8\u7406\u89e3
p629
I2
sVVerizon
p630
I2
sV\u7b2c\u4e00\u6b3e
p631
I2
sV\u91cc\u7ea6\u70ed\u5185\u5362
p632
I2
sV\u5348\u95f4
p633
I2
sV\u9006\u52bf
p634
I48
sV\u5e38
I4
sV\u503c
I50
sV\u4ea7\u54c1\u5f00\u53d1
p635
I2
sV\u51b7\u6f20
p636
I2
sV\u65e0\u53ef
p637
I2
sV\u5199\u7ed9
p638
I2
sV\u8fd9\u8f88\u5b50
p639
I2
sV\u6709\u52a9\u4e8e
p640
I2
sV\u5409\u5e03\u68ee
p641
I2
sV\u73a9\u6cd5
p642
I164
sV\u6f6e
I4
sV\u5e73\u51e1
p643
I4
sV\u8c0d\u7167
p644
I4
sV\u653e\u7eb5
p645
I2
sV\u6709\u5956
p646
I50
sV\u4fe1\u5ff5
p647
I4
sV\u5494
I4
sV\u8bde\u8282
p648
I2
sV\u5c0f\u8bf4
p649
I2
sV\u4fe1\u5fc3
p650
I56
sV\u88c1\u64a4
p651
I2
sV\u6251\u514b\u724c
p652
I2
sV\u88ab\u53eb
p653
I2
sV\u7f8e\u56fd\u5e02\u573a
p654
I2
sV\u4e09\u5468
p655
I2
sV\u8ba1\u5212
p656
I36
sV\u5bb6
I16
sV\u5145\u7535
p657
I16
sV\u4e43
I2
sV\u7cfb\u7edf\u5347\u7ea7
p658
I2
sV\u6b22\u9e23
p659
I2
sV\u8749
I6
sV\u8ba1\u8f83
p660
I2
sV\u5c4f
I12
sV\u6beb\u79d2
p661
I4
sV\u4e0a\u5348
p662
I6
sV\u5ba1\u6279
p663
I6
sV\u625b
I2
sV\u4e0a\u5347
p664
I4
sV\u5e74\u5c81
p665
I2
sV\u5217\u8f66
p666
I4
sV\u660e\u724c
p667
I2
sV\u9003\u4ea1
p668
I2
sV\u95ea
I4
sV\u5b54\u660e
p669
I2
sV\u4f20\u8f93
p670
I2
sV\u68cb\u5b50
p671
I8
sVBlackBerry
p672
I2
sV\u6253\u7535\u8bdd
p673
I2
sV\u8f66\u624b
p674
I2
sV\u5728\u5185
p675
I12
sV\u9713\u8679
p676
I2
sV\u7ade\u901f
p677
I2
sV\u5c3c\u4e9a
p678
I8
sVATL
p679
I2
sV\u590f\u5b63
p680
I4
sVBermeja
p681
I6
sV\u4e00\u5ea7\u5ea7
p682
I8
sV\u5355\u8eab
p683
I8
sV\u8425\u6536
p684
I6
sV\u653e\u7f13
p685
I2
sV\u8001\u8def
p686
I2
sV2
I274
sV\u8c28\u614e
p687
I48
sV\u6295\u8d44
p688
I2
sV\u6492\u8c0e
p689
I6
sV\u51fa\u6c57
p690
I4
sV\u624b\u5199\u7b14
p691
I6
sV\u9a6c\u5fd7\u9e3f
p692
I6
sVHIKe
p693
I18
sV\u57fa\u5e26
p694
I2
sV\u52bf\u5934
p695
I2
sV\u684c\u9762\u7248
p696
I2
sV\u5893\u7a74
p697
I2
sV\u9ec4\u91d1\u7248
p698
I6
sV\u5916\u52a0
p699
I48
sVSatechi
p700
I4
sV\u82f1
I2
sVKONAMI
p701
I2
sV\u76f4\u64ad
p702
I2
sV\u5bc6\u5ea6
p703
I2
sV\u81ea\u604b
p704
I2
sV\u7889\u5821
p705
I2
sV\u4e34\u95e8\u4e00\u811a
p706
I2
sV\u6781\u5f3a
p707
I2
sV\u90fd
I338
sV\u8bd5\u7740
p708
I2
sV\u7cbe\u5bc6
p709
I2
sV\u5929\u5e95\u4e0b
p710
I2
sV\u603b\u6570
p711
I6
sV\u589e\u8fd1
p712
I2
sV\u4e16\u754c
p713
I88
sV\u9a7e\u9a76
p714
I4
sVsad
p715
I2
sV\u5fae\u5c18
p716
I2
sV\u5fae\u7b11
p717
I10
sV\u4e24\u95f4
p718
I2
sV\u5165\u95e8\u7ea7
p719
I2
sV\u4e89\u76f8
p720
I2
sV\u4ea4\u914d
p721
I2
sV\u667a\u80fd\u624b\u673a
p722
I178
sV\u592a\u5b50
p723
I4
sVNAND
p724
I2
sV\u4eae
I4
sVnote
p725
I2
sV\u4ed8\u8d39
p726
I4
sV\u5bb6\u5ead\u8bbe\u5907
p727
I2
sV\u8303\u56f4
p728
I10
sV\u6700\u7ec8
p729
I8
sV\u6210\u529f\u8005
p730
I2
sV\u58a8\u6c34
p731
I2
sV\u4f5c\u54c1
p732
I12
sV\u6279\u53f2
p733
I2
sV\u5f00\u56e2
p734
I96
sV\u7167
I2
sV\u94c1\u62f3
p735
I2
sVAscend
p736
I6
sV\u9664\u4e86
p737
I30
sV\u6210\u5343\u4e0a\u4e07
p738
I2
sV\u900f\u660e\u5316
p739
I2
sV\u957f
I6
sV\u4e66\u67b6
p740
I4
sV\u4e00\u6b65\u6b65
p741
I2
sV\u4e07\u5143
p742
I10
sV\u76f8\u6fe1\u4ee5\u6cab
p743
I2
sVplanetbeing
p744
I2
sVSki
p745
I2
sV\u5927\u4ea8
p746
I2
sV\u78b0\u5230
p747
I2
sV\u540c\u610f
p748
I2
sV\u732a
I12
sV\u96f7\u950b
p749
I2
sV\u8033
I2
sV\u654f\u611f
p750
I2
sV\u81ea\u6709
p751
I8
sV\u5927\u4e8e
p752
I2
sV\u5927\u4e8b
p753
I2
sV\u5583\u5583
p754
I2
sV\u8457\u540d
p755
I6
sVMagazine
p756
I2
sV\u4ece\u4e8b
p757
I6
sV\u5566
I62
sV\u9a71\u8d76
p758
I2
sV\u4fb5\u5bb3
p759
I2
sV\u76f4\u63a5
p760
I26
sVwhere
p761
I2
sV\u9700\u8981
p762
I68
sV\u8bd5\u70b9
p763
I2
sV\u4f9b\u5e94
p764
I6
sV\u5e95\u7ebf
p765
I4
sV\u7206\u7206
p766
I2
sV\u623f\u8f66
p767
I2
sV830
p768
I2
sV\u56e0\u800c
p769
I50
sVSymbian
p770
I2
sV\u4f53\u9a8c
p771
I32
sV\u7334\u6025
p772
I4
sV\u9ed1\u80f6
p773
I4
sV\u8001\u5c11\u7686\u5b9c
p774
I2
sV\u6837\u672c
p775
I4
sV\u9053\u8def
p776
I4
sV10.5
p777
I2
sV\u5e73\u5747
p778
I18
sV\u6837\u673a
p779
I2
sV\u4eb2\u6d4b
p780
I2
sV\u8282\u65e5
p781
I8
sV\u751f\u547d
p782
I24
sV\u8150\u5316
p783
I2
sV\u6d4f\u89c8
p784
I6
sV\u7814\u53d1
p785
I20
sVs
I2
sV\u5979
I60
sV\u5b64\u5355\u5355
p786
I2
sV\u7b2c\u4e09\u7b2c\u56db
p787
I2
sV\u591a\u79cd
p788
I6
sV\u642d\u914d
p789
I4
sV\u88ab\u544a
p790
I2
sV\u7cbe\u76ca\u6c42\u7cbe
p791
I2
sV\u63a8\u95e8
p792
I2
sV\u8fdc\u8d85
p793
I4
sV3000
p794
I4
sV\u5373\u4fbf
p795
I4
sV\u5957\u9a6c
p796
I6
sV\u523b\u4e0d\u5bb9\u7f13
p797
I2
sV\u5468\u4e09
p798
I6
sV\u9ad8\u8fbe
p799
I4
sV\u914d\u989d
p800
I2
sV\u5f3a\u5f3a\u8054\u5408
p801
I2
sV\u518d\u4e5f
p802
I8
sV\u6781\u597d
p803
I48
sV\u903e
I2
sV\u7a33\u5b9a
p804
I2
sV\u89c6\u529b
p805
I6
sV\u5e86\u795d
p806
I2
sV\u514d\u8d39\u8d44\u6e90
p807
I2
sV\u66dd
I6
sV\u706b\u8f66
p808
I4
sV\u7f8e\u7248
p809
I2
sV\u4e00\u6761
p810
I6
sV\u5466
I4
sV\u8eab\u662f
p811
I2
sV\u4e00\u676f
p812
I2
sV\u6ce8\u91ca
p813
I2
sV\u8f93\u4e8e
p814
I2
sV\u6ce8\u91cd
p815
I2
sV\u897f\u88c5
p816
I2
sV\u7a7a
I4
sV\u8046\u542c
p817
I2
sV\u7edf\u8ba1
p818
I8
sV\u65b0\u9896
p819
I4
sV\u4eca\u665a
p820
I4
sV\u5185\u60c5
p821
I2
sV\u97f3\u9891
p822
I4
sV\u53d8\u6001
p823
I2
sV\u633a\u52a0
p824
I2
sV\u4ebf\u53f0
p825
I4
sVDIY
p826
I4
sV\u6905\u5b50
p827
I2
sV\u73b0\u8eab\u8bf4\u6cd5
p828
I2
sV\u6628\u65e5
p829
I8
sV\u987e\u8651
p830
I2
sV\u5927\u4f1a
p831
I12
sV\u5927\u4f19
p832
I2
sV\u4eca\u6668
p833
I2
sV\u5468\u4e8c
p834
I8
sV\u7ec4\u4ef6
p835
I2
sV\u8def\u51b5
p836
I4
sV\u6170\u95ee
p837
I2
sV\u518d\u4ed8
p838
I2
sV\u6d3e\u51fa
p839
I2
sVI
I4
sV\u8bf7\u95ee
p840
I2
sVUTV
p841
I2
sV\u5bb9\u6613
p842
I12
sV\u957f\u6c5f
p843
I2
sV\u5373\u4f7f
p844
I10
sV\u597d\u8fd0
p845
I2
sV\u8d6b
I2
sV\u5927\u4f5c
p846
I10
sV\u5e72\u6d3b
p847
I2
sV\u7231\u6ca1
p848
I2
sV\u6fc0\u52b1
p849
I2
sV\u4e0a\u5468
p850
I4
sV\u52c7\u6562
p851
I4
sV\u8bed\u97f3\u6307\u4ee4
p852
I2
sVVolpari
p853
I2
sV\u6ecb\u6da6
p854
I2
sV\u6389
I56
sV\u6211\u56fd
p855
I4
sV\u91cd\u5927
p856
I4
sV\u505a\u597d\u4e8b
p857
I2
sV\u78e8\u76ae
p858
I2
sV\u6c14\u8d28
p859
I4
sV\u6d45\u7eff\u8272
p860
I2
sV\u5e93\u9ed8
p861
I2
sVComTech
p862
I2
sV\u4e24\u5468
p863
I2
sV\u7206\u70b8
p864
I144
sV\u9009\u62e9
p865
I92
sV\u70ab\u5f71
p866
I2
sV\u76d8\u70b9
p867
I4
sV\u59d4\u5a49
p868
I2
sV\u53cd\u601d
p869
I4
sV\u4eca\u65e5
p870
I58
sV\u543c
I8
sV\u9632\u5fa1
p871
I4
sV\u9ed1\u8272
p872
I10
sV\u626f\u86cb
p873
I2
sV\u996d\u684c
p874
I2
sV\u5916\u578b
p875
I2
sV\u968f\u4fbf
p876
I2
sV\u6263\u8d39
p877
I2
sV\u5f00\u5356
p878
I16
sV\u5e15\u7279\u91cc\u514b
p879
I4
sV\u91cd\u8981\u6027
p880
I2
sV\u5957\u9910
p881
I12
sV\u6548\u7387
p882
I2
sV\u5546\u91cf\u4f59\u5730
p883
I2
sV\u85cf\u65cf
p884
I2
sVNote
p885
I18
sV\u5fc3\u7075\u611f\u5e94
p886
I2
sV\u5a92\u4f53
p887
I46
sV\u6cc4\u9732
p888
I6
sV\u4e0d\u80fd\u4e0d
p889
I2
sV\u5e7f\u4e3a
p890
I2
sV\u6e29\u99a8
p891
I4
sV\u9009\u624b
p892
I50
sV\u6d89\u5acc
p893
I2
sV\u4f20\u8bf4
p894
I2
sV\u4e07\u53f0
p895
I22
sV4412
p896
I4
sV\u61a7\u61ac\u672a\u6765
p897
I2
sV\u8003\u9a8c
p898
I2
sV\u5f00\u53d1
p899
I70
sV\u660e\u767d
p900
I8
sV\u526f\u5c40\u957f
p901
I2
sVTEDxBrussels
p902
I2
sV\u4e2a\u6027\u5316
p903
I2
sV\u4f5c\u51fa
p904
I4
sV\u96c5\u81f4
p905
I2
sV\u5916\u573a
p906
I2
sV\u5e02\u957f
p907
I2
sV\u9b45\u5f71
p908
I2
sV\u9082\u9005
p909
I2
sVNo
p910
I4
sV\u9ad8\u8d85
p911
I2
sVMediaPad
p912
I2
sV\u6c2e\u6c14
p913
I4
sV\u6295\u8d44\u94f6\u884c
p914
I2
sV\u5934\u75bc
p915
I2
sV\u6ca1\u4e86
p916
I4
sV\u6717\u8baf
p917
I4
sV\u6ca1\u4e8b
p918
I2
sV\u5c01\u95ed
p919
I2
sV\u4e00\u652f
p920
I2
sV\u725b\u76ae\u7663
p921
I2
sV\u8bfb\u8005
p922
I2
sV\u8425\u4e1a\u989d
p923
I2
sV\u8fdc\u8fdc
p924
I4
sV\u9192\u6765
p925
I2
sV\u6ed1\u6e9c\u6e9c
p926
I4
sV\u4e39\u5c3c
p927
I2
sVwith
p928
I4
sVIPAD
p929
I48
sV\u7b11
I10
sV\u4f20\u8a00
p930
I4
sV\u5404\u79cd\u5404\u6837
p931
I4
sV\u6b8a\u6b7b
p932
I2
sV\u7ea4\u8584
p933
I2
sV\u6beb\u7c73
p934
I2
sV\u4fdd\u536b
p935
I2
sV\u7cbe\u5fc3
p936
I2
sV\u5730\u7406\u4f4d\u7f6e
p937
I4
sVCinderella
p938
I2
sV\u5782\u6d8e\u6b32\u6ef4
p939
I2
sVan
p940
I2
sVHot
p941
I2
sV\u8bd5\u73a9
p942
I2
sV\u5dee\u8ddd
p943
I2
sV\u53d8\u6210
p944
I64
sV\u677e\u53e3\u6c14
p945
I2
sVZ2480
p946
I2
sV\u9ed1\u8393
p947
I26
sV\u975e\u6d32
p948
I48
sV\u6d88\u5931
p949
I8
sV\u4e0d\u77e5\u4e0d\u89c9
p950
I2
sVMicasa
p951
I2
sV\u88ab\u56f0
p952
I2
sV\u767b\u4e0a
p953
I2
sV\u4e00\u65b9
p954
I2
sV\u5237\u7259
p955
I2
sV\u767b\u9646
p956
I32
sV\u6cd5\u56fd
p957
I4
sV\u4e00\u65c1
p958
I2
sViCloud
p959
I6
sV\u90e8\u7f72
p960
I48
sV\u63a9\u9970
p961
I4
sV\u7cbe\u5f69
p962
I12
sV\u5353
I4
sV3.8.3
p963
I4
sV\u6cd5\u5b98
p964
I4
sV\u4e00\u65e6
p965
I10
sV\u4ea4\u950b
p966
I2
sV\u589e\u8bbe
p967
I2
sV\u8fd1\u8ddd\u79bb
p968
I2
sV\u7b26\u5408
p969
I52
sV\u7b49\u6765
p970
I2
sV\u7269\u7406
p971
I6
sV\u9000
I2
sV\u8bd5\u6c34
p972
I48
sV\u4e0b\u540c
p973
I2
sV\u7231\u597d\u8005
p974
I2
sV\u6570\u767e\u4e07
p975
I4
sV\u65e2\u7136
p976
I2
sV\u88c5\u673a\u91cf
p977
I2
sV\u5bc4\u6258
p978
I2
sV\u901a\u4fd7
p979
I2
sV\u96be\u5ea6
p980
I2
sV\u603b\u7ed3
p981
I2
sV\u60e8\u6de1
p982
I4
sV\u7cfb\u5217
p983
I76
sVre
p984
I4
sV\u70ab
I2
sV\u5927\u529b
p985
I4
sV\u901a\u4fe1
p986
I104
sVto
p987
I6
sVsmile
p988
I2
sV\u7b2c\u56db\u4ee3
p989
I6
sV\u79fb\u690d
p990
I12
sV\u663e\u793a\u5c4f
p991
I10
sV\u521a\u8981
p992
I2
sV\u964d\u4ef7
p993
I2
sVWolf
p994
I2
sV\u6d41\u82b3\u767e\u4e16
p995
I2
sV\u5e78\u8fd0
p996
I2
sV\u9996\u6b21
p997
I14
sV\u67e5
I54
sV\u505a\u5230
p998
I6
sV\u751f\u4ea7\u5546
p999
I8
sV\u5b8f\u7881
p1000
I4
sV\u5b9e\u5728
p1001
I2
sV\u8fd9\u573a
p1002
I2
sV\u4ebf\u4e07
p1003
I2
sVVita
p1004
I2
sV\u88c5\u9970
p1005
I2
sV\u9996\u6b3e
p1006
I72
sV\u9163\u7136\u5165\u68a6
p1007
I2
sV\u7edd\u5bf9\u4f18\u52bf
p1008
I2
sV193
p1009
I2
sV\u4e94
I2
sV\u6309\u4f4f
p1010
I2
sV\u4f20\u95fb
p1011
I16
sV\u9e1f
I8
sV\u5373\u523b
p1012
I2
sV\u7279\u522b\u4e4b\u5904
p1013
I2
sV\u770b\u8d77\u6765
p1014
I2
sV\u4ece\u524d
p1015
I4
sV\u5361\u7247
p1016
I8
sV\u5361\u724c
p1017
I2
sV\u5177\u6709
p1018
I16
sV\u6700\u65b0
p1019
I104
sV\u6b7b\u8005
p1020
I2
sV\u8f9c\u8d1f
p1021
I2
sV\u5c0f\u91d1
p1022
I2
sV\u7f8e\u6ee1\u5e78\u798f
p1023
I2
sV\u6559\u7a0b
p1024
I2
sVCharlie
p1025
I4
sVXbox
p1026
I12
sV\u548c\u5e73
p1027
I4
sV\u52a0\u5f3a
p1028
I10
sV\u4e00\u7ad9
p1029
I2
sV\u2161
I6
sV\u770b\u5f85
p1030
I2
sV\u89e6
I2
sV\u5feb\u5feb
p1031
I2
sV\u72b6\u544a
p1032
I2
sV\u6700\u65e9
p1033
I4
sV\u72ec
I2
sV\u83b7\u5f97
p1034
I100
sV\u4e09\u4e2a
p1035
I16
sV\u7535\u89c6\u5e7f\u64ad
p1036
I48
sV\u6b66\u6c49
p1037
I4
sV\u7ecf\u9500\u5546
p1038
I6
sVvia
p1039
I2
sV\u4f5c\u4e1a
p1040
I2
sV\u5206\u5e03\u56fe
p1041
I2
sV\u5927\u53a6
p1042
I4
sV\u5df4\u91cc
p1043
I2
sV\u4e00\u7b14
p1044
I2
sV\u539f\u8c05
p1045
I2
sV\u63a5\u7eb3
p1046
I2
sV\u589e\u957f
p1047
I28
sV\u4f5c\u4e3a
p1048
I58
sV\u5206\u8fbe
p1049
I2
sV\u96be\u5f97
p1050
I2
sV\u91d1\u5e01
p1051
I2
sV\u7535\u89c6\u8282\u76ee
p1052
I4
sV\u8d8a\u662f
p1053
I4
sV\u8d5b\u8f66
p1054
I8
sV6
I218
sV\u96c6\u6210\u82af\u7247
p1055
I2
sV\u793c\u7269
p1056
I52
sV\u5395\u6240
p1057
I2
sV\u65b0\u8d27
p1058
I2
sV\u5fc5\u8981
p1059
I50
sV\u4e00\u7b49
p1060
I2
sV\u4e89\u6c14
p1061
I2
sV\u4ece\u800c
p1062
I4
sV\u63a8\u7ffb
p1063
I2
sV\u96be\u5fd8
p1064
I2
sV\u8d44\u8baf
p1065
I6
sV\u6fb3\u6d32
p1066
I4
sV\u9713\u8679\u706f
p1067
I4
sV\u5b8c\u86cb
p1068
I2
sV\u5373\u53ef
p1069
I16
sV\u4f7f\u7528\u7387
p1070
I4
sV\u5b81\u613f
p1071
I2
sV\u3001
I866
sV\u6210\u7fa4
p1072
I2
sV\u9886
I2
sV\u8f6c\u56de
p1073
I2
sV\u62b5\u4f4f
p1074
I2
sV\u7b2c\u56db\u4f4d
p1075
I4
sV\u7d2f\u8d58
p1076
I2
sV\u6700\u77ed
p1077
I2
sV\u9884\u552e
p1078
I2
sV\u4e13\u4e1a\u7248
p1079
I4
sV\u70ed\u5e26
p1080
I2
sV\u6307\u5411
p1081
I4
sV\u548c\u5f0f
p1082
I2
sV\u4f30\u503c
p1083
I4
sV\u8def\u900f\u793e
p1084
I4
sV\u591a\u6570
p1085
I2
sV\u6bd4\u8fbe
p1086
I2
sV\u4e00\u7bc7
p1087
I4
sV\u7248\u672c\u66f4\u65b0
p1088
I2
sV\u4e09\u7f3a\u4e00
p1089
I48
sV\u964d\u4f4e
p1090
I8
sV\u79d8\u4e66
p1091
I2
sV\u5e94\u5f53
p1092
I6
sV\u8fb9\u7f18
p1093
I2
sV\u5de8\u8d44
p1094
I4
sV\u5757\u94b1
p1095
I2
sV\u6ca1\u505a
p1096
I2
sV\u6bd4\u8f83
p1097
I10
sV\u5927\u628a\u5927\u628a
p1098
I2
sV\u57cb\u6ca1
p1099
I2
sV1300
p1100
I4
sV\u8def\u4e0a
p1101
I6
sVNano
p1102
I2
sVNana
p1103
I8
sV\u800c
I278
sV\u820c\u5934
p1104
I2
sV\u8003\u8651
p1105
I10
sV\u751a
I2
sV\u7528\u6765
p1106
I56
sV\u5fcd\u8005
p1107
I4
sV\u98de\u673a
p1108
I2
sV\u5185\u7f6e
p1109
I18
sV\u5316\u5b66\u54c1
p1110
I2
sV\u7b2c\u56db
p1111
I2
sV\u53ea\u6709
p1112
I140
sV\u5168\u7f8e
p1113
I4
sV\u5929\u5802
p1114
I6
sV\u6d4b\u901f
p1115
I2
sV\u8bc4\u9009
p1116
I2
sVMichael
p1117
I4
sV\u5468\u516d
p1118
I2
sV\u653f\u52a1
p1119
I2
sV\u63e1
I2
sV\u65e5
I620
sV\u65e9\u671f
p1120
I2
sV\u4f4e\u8c03
p1121
I52
sVraygun
p1122
I2
sVIPS
p1123
I4
sV\u51fa\u751f
p1124
I2
sV\u5bb9\u989c
p1125
I2
sV\u6446\u5728
p1126
I2
sV\u501f\u53e3
p1127
I2
sV\u6765\u5f97\u5feb
p1128
I2
sV\u83b7\u5de5
p1129
I2
sV179
p1130
I48
sV\u62ac\u8d77
p1131
I2
sVRose
p1132
I2
sV\u5546\u80dc
p1133
I2
sV\u9ad8\u901a
p1134
I24
sV\u9ad8\u901f
p1135
I4
sV\u4f26\u6566
p1136
I2
sV\u8f93\u5165
p1137
I8
sV\u96f6\u552e\u5546
p1138
I8
sVmisses
p1139
I2
sV\u7537\u6027
p1140
I10
sV\u4f18\u60e0\u5238
p1141
I4
sV\u6162\u6162
p1142
I2
sV\u81ea\u79f0
p1143
I2
sV\u8d8a\u53d1
p1144
I4
sVNina
p1145
I2
sV\u7528\u6237\u6570
p1146
I2
sV\u8be6
I48
sV\u533b\u751f
p1147
I2
sV\u4e91\u599e
p1148
I2
sVw
I2
sV\u5c0f\u8fa3\u6912
p1149
I240
sV\u5236\u9020
p1150
I18
sV\u6218\u9b42
p1151
I2
sV\u608d
I2
sV\u98d9\u5347
p1152
I52
sV\u4e3b\u5bfc
p1153
I4
sV\u5929\u5929
p1154
I4
sV\u70b8\u5f39
p1155
I4
sV\u4f9d\u5e8f
p1156
I4
sV\u6bd4\u8d5b
p1157
I10
sV\u5173\u952e\u8bcd
p1158
I2
sV\u75af
I2
sV\u7d20\u5c65\u4e4b\u5f80
p1159
I2
sV\u4f9d\u604b
p1160
I2
sV\u501f\u52a9
p1161
I98
sV\u642d\u8f7d
p1162
I130
sV\u58ee\u89c2
p1163
I2
sV\u8d34
I4
sV\u63a8\u8bba
p1164
I2
sV\u6307\u5f15
p1165
I2
sV\u653e\u677e
p1166
I4
sV\u8fdb\u519b
p1167
I8
sV\u6362\u7528
p1168
I2
sV\u85cf
I8
sV\u8fce\u6765
p1169
I6
sV\u5de2\u7a74
p1170
I2
sV\u5431\u5431
p1171
I2
sV\u7279\u70b9
p1172
I4
sV\u53eb
I10
sV\u91d1\u5c5e
p1173
I2
sV0.99
p1174
I2
sV\u538b\u529b
p1175
I6
sV\u4e07\u4e2a
p1176
I6
sV\u6162\u6027
p1177
I2
sV\u9ad8\u5206\u8fa8\u7387
p1178
I2
sV\u5f39\u73e0
p1179
I2
sV\u6bcd\u4eb2
p1180
I2
sVRhythm
p1181
I2
sV\u4e91\u6de1\u98ce\u8f7b
p1182
I2
sV\u5217\u961f
p1183
I2
sV\u5305\u5b50
p1184
I10
sV\u4eb2\u7231
p1185
I2
sV\u8865\u5145
p1186
I2
sVDEZAEGG
p1187
I2
sV\u8fdb\u5165
p1188
I30
sV\u70c2
I2
sV\u591a\u6708
p1189
I2
sVM
I12
sV\u4e60\u60ef
p1190
I4
sV\u4e00\u79cd
p1191
I40
sV\u7b49\u7b49
p1192
I10
sV\u963b\u6321
p1193
I2
sV\u56fd\u5916
p1194
I96
sV\u8ddd\u79bb
p1195
I152
sV\u5185\u5fc3\u4e16\u754c
p1196
I2
sV\u89c2\u671b
p1197
I4
sVGoogle
p1198
I72
sV\u4e5f\u8bb8
p1199
I10
sV\u4e94\u5343
p1200
I2
sVCloud
p1201
I2
sV\u5a01\u80c1
p1202
I4
sVStarHub
p1203
I2
sV\u4f20
I22
sV\u5e78\u597d
p1204
I2
sV\u5c9b
I6
sVBusinessweek
p1205
I2
sV\u9489\u6b7b
p1206
I2
sV\u8dcc\u5e45
p1207
I4
sV\u4e66
I2
sV\u7f51\u5e97
p1208
I2
sV\u903e\u671f
p1209
I2
sV\u5c0f\u9547
p1210
I2
sV\u5f31\u667a
p1211
I2
sV\u7533\u8bf7
p1212
I16
sV\u72af
I2
sV\u5e72\u6389
p1213
I2
sV\u6fc0\u6d3b\u7801
p1214
I4
sV\u4e0d\u8db3\u4e3a\u5916\u4eba\u9053
p1215
I2
sV\u5a01\u80fd
p1216
I2
sV\u591a\u6837\u5316
p1217
I2
sV\u589e\u901f
p1218
I4
sV\u5927\u56fe
p1219
I4
sVWifi
p1220
I8
sV\u535a
I112
sV\u5236\u5b9a
p1221
I2
sV\u53c2\u52a0
p1222
I10
sV\u624b\u673a\u77ed\u4fe1
p1223
I2
sV\u8868
I2
sV\u76f4\u5230\u73b0\u5728
p1224
I2
sV\u58f3
I6
sV\u5f85\u673a
p1225
I2
sV\u8ffd
I6
sV\u7a81\u5982\u5176\u6765
p1226
I2
sVGmail
p1227
I2
sV318
p1228
I2
sV\u7528\u5f97\u4e0a
p1229
I2
sVAppData
p1230
I2
sVsee
p1231
I4
sV\u7316\u7357
p1232
I2
sV\u524d\u4e00\u5929
p1233
I2
sV\u56de\u53bb
p1234
I2
sV\u6587\u6863
p1235
I2
sV\u5feb\u901f\u589e\u957f
p1236
I2
sV\u8212\u670d
p1237
I8
sV\u4e00\u7ebf
p1238
I2
sV\u884c\u8d27
p1239
I62
sV\u4e00\u7ec4
p1240
I4
sV\u5341\u4e8c\u5929
p1241
I2
sV\u4e00\u7ecf
p1242
I2
sV\u51fa\u73b0
p1243
I36
sV\u6cdb\u6ee5\u6210\u707e
p1244
I2
sV\u8def\u7531\u5668
p1245
I2
sV\u53d6\u4ee3
p1246
I4
sVShuffle
p1247
I2
sV\u503c\u5f97\u4e00\u63d0\u7684\u662f
p1248
I4
sVFitch
p1249
I2
sV\u5e7f\u544a
p1250
I44
sVAppInsider
p1251
I2
sV\u90a3\u4e2a
p1252
I18
sV\u5c06
I652
sV\u54c8\u5c14\u6ee8
p1253
I2
sV\u72b6\u51b5
p1254
I4
sV\u4e00\u7f15
p1255
I2
sVPandora
p1256
I14
sV\u5fc5\u9700\u54c1
p1257
I2
sV\u56de\u5230
p1258
I8
sV\u5728\u4e4e
p1259
I2
sV\u5927\u578b
p1260
I4
sV\u753b\u98ce
p1261
I2
sV\u591a\u5a92\u4f53
p1262
I48
sV\u707e\u96be
p1263
I2
sV\u6ca1\u54ed
p1264
I2
sV\u521b\u529e\u4eba
p1265
I2
sV\u5bc4\u671b
p1266
I2
sV\u65e9\u4e0a
p1267
I2
sV\u7edd
I2
sV\u706b\u836f\u5473
p1268
I2
sV\u585e
I2
sV\u90a3\u4e48
p1269
I40
sV\u53ef
I44
sV\u4f20\u9012
p1270
I4
sV\u534e\u79d1\u6280
p1271
I2
sV\u8f6e\u6e21
p1272
I2
sV\u7eaf\u6734
p1273
I2
sV\u53d1\u80b2
p1274
I2
sV\u4f4e\u8bed
p1275
I2
sVStrategy
p1276
I2
sV\u6c34\u4e0b
p1277
I2
sVAlien
p1278
I2
sV\u5165\u624b
p1279
I4
sV\u8fdb\u5316
p1280
I2
sV875
p1281
I2
sV\u90a3\u4e9b
p1282
I28
sV\u9003\u51fa
p1283
I4
sV\u6c34\u4e2d
p1284
I2
sV\u529b\u5ea6
p1285
I4
sV\u4ece\u6ca1
p1286
I2
sV05
p1287
I2
sV\u542f\u793a
p1288
I2
sV\u5143
I446
sV\u5b9e\u529b
p1289
I2
sV\u5c24\u5361\u5766\u534a\u5c9b
p1290
I2
sV\u5b89\u6392
p1291
I4
sV\u5468\u56f4
p1292
I4
sV\u6839\u6cbb
p1293
I2
sV\u98de
I4
sV\u5468\u56db
p1294
I12
sV\u5927\u8111
p1295
I4
sVperson
p1296
I2
sV\u5269\u4e0b
p1297
I6
sV\u5728\u4e8e
p1298
I10
sV\u5341\u4e03\u4e2a
p1299
I4
sV\u5148\u8fdb
p1300
I8
sV\u5df4\u52d2\u83ab
p1301
I2
sV\u8981\u6c42
p1302
I12
sV\u8f83\u91cf
p1303
I2
sV\u623f\u95f4
p1304
I10
sV\u840c
I8
sV\u65e5\u8d8b\u4e25\u91cd
p1305
I2
sV\u906d\u52ab
p1306
I2
sV\u9635\u5730\u6218
p1307
I2
sV\u6211\u4eec
p1308
I152
sV\u770b\u597d
p1309
I4
sV\u6253\u5370\u673a
p1310
I2
sVU7
p1311
I6
sV\u8ba9
I148
sV\u542c
I6
sV\u83b7\u5956
p1312
I2
sV\u6076\u6bd2
p1313
I2
sV\u5f00\u5e55\u5f0f
p1314
I2
sV\u7ade\u8d2d
p1315
I2
sV76.7
p1316
I2
sV\u751f\u4ea7
p1317
I22
sV\u54b1\u73ed
p1318
I2
sV\u7b11\u5bb9
p1319
I2
sV\u516c\u544a
p1320
I2
sV\u86cb
I6
sV1099
p1321
I2
sV\u770b\u4e0d\u61c2
p1322
I2
sV\u5927\u54e5
p1323
I8
sV\u6e05\u9192
p1324
I4
sV\u5973\u8b66\u5bdf
p1325
I2
sVOL
p1326
I2
sV\u5916\u4fa7
p1327
I2
sV\u795e\u66f2
p1328
I2
sV\u679c\u51bb
p1329
I6
sV\u653e\u624b
p1330
I2
sV\u4efb
I2
sVOS
p1331
I8
sV\u7f8e\u5143
p1332
I122
sV\u767b\u573a
p1333
I6
sV\u5de8\u5934
p1334
I8
sV\u838e
I2
sV\u8d8a\u96f7\u6c60\u4e00\u6b65
p1335
I2
sV\u5de8\u5927
p1336
I6
sV\u600e\u6837
p1337
I8
sV\u62a5\u544a\u4f1a
p1338
I2
sV\u6c47\u62a5
p1339
I2
sV\u534a\u58c1\u6c5f\u5c71
p1340
I4
sV\u4e0a\u4f20
p1341
I66
sV\u5143\u65e6\u5047\u671f
p1342
I2
sV\u5973\u540c\u4e8b
p1343
I2
sV\u52bf\u4e0d\u53ef\u6321
p1344
I2
sVUPS
p1345
I2
sV\u6263
I2
sV\u6beb\u65e0
p1346
I6
sV\u6ca1\u51fa\u606f
p1347
I2
sV\u9f13\u638c
p1348
I2
sV\u552e\u4ef7
p1349
I138
sV\u9700
I12
sV\u5e02\u573a\u4efd\u989d
p1350
I30
sV\u4e0b\u8f7d\u901f\u5ea6
p1351
I6
sV\u53e6\u636e\u62a5\u9053
p1352
I2
sVShaw
p1353
I2
sVinto
p1354
I2
sV\u5deb\u5e08
p1355
I2
sV\u5f53\u7136
p1356
I18
sV\u7ffb\u65b0
p1357
I10
sV\u4e4b\u7236
p1358
I6
sV\u7ea2\u8272
p1359
I4
sV\u65e0\u4eba
p1360
I2
sV\u8d1f\u6781
p1361
I48
sV\u63a8\u8fdb
p1362
I4
sV\u63a8\u8fdf
p1363
I8
sV\u5b89\u6170
p1364
I2
sV\u7ec8\u7a76
p1365
I4
sV\u7528\u624b
p1366
I2
sV\u76f8\u543b\u5408
p1367
I2
sVIntelliScreen
p1368
I2
sV\u5934
I2
sV:
I122
sV\u5927\u558a
p1369
I2
sV\u7740
I104
sV3600
p1370
I6
sV\u7ec4\u5408
p1371
I4
sVRacing
p1372
I2
sV\u7528\u6237
p1373
I312
sV\u505a
I204
sVOffice
p1374
I24
sVM040
p1375
I2
sV\u65e0\u4ece
p1376
I2
sVup
p1377
I4
sV\u7d2f\u8ba1
p1378
I4
sV\u5931\u7720
p1379
I2
sV\u754c\u9762
p1380
I12
sV\u5e7f\u573a
p1381
I8
sVBroadcom
p1382
I2
sV\u610f
I2
sV\u535a\u901a
p1383
I4
sV\u4e0a\u4e0b
p1384
I2
sV\u5219
I48
sV\u8d27
I8
sV\u63a5\u542c\u7535\u8bdd
p1385
I2
sV\u51cf\u901f
p1386
I2
sV\u5218\u82e5\u82f1
p1387
I4
sV\u6253\u54cd
p1388
I2
sV\u4ea4\u8d27
p1389
I2
sV\u884c\u8e2a
p1390
I2
sV\u6307\u5b9a
p1391
I4
sV\u51b2\u7740
p1392
I2
sV\u89e3\u8131
p1393
I4
sV\u72ec\u521b
p1394
I2
sVmood
p1395
I2
sV\u6363
I2
sV\u51fa\u7089
p1396
I2
sV\u6211\u4f1a
p1397
I2
sV\u4ee4\u4eba\u5174\u594b
p1398
I2
sV\u56fd\u9645
p1399
I10
sV\u5f00\u53d1\u5546
p1400
I10
sV\u4e66\u7c4d
p1401
I52
sV\u76f8\u5f53\u4e25\u91cd
p1402
I2
sV\u9493\u7aff
p1403
I2
sV\u56f4\u57ce
p1404
I2
sV\u8010
I2
sV\u53d1\u8d27
p1405
I4
sV\u4ed9\u5251
p1406
I2
sV\uff1a
I722
sVCPU
p1407
I6
sV\u603b\u76d1
p1408
I4
sV\u79e4\u5b50
p1409
I2
sV\u672a
I10
sV\u7ef4\u4fee
p1410
I2
sV\u5634
I2
sV\u8d85\u9177
p1411
I50
sV\u56e2\u961f
p1412
I20
sV\u5e0c\u671b
p1413
I132
sV\u5360\u6709\u7387
p1414
I10
sV\u5fc5
I4
sV\u4e00\u7247
p1415
I2
sV\u53d1\u8d77
p1416
I8
sV\u56de\u5f52
p1417
I8
sV\u4ece\u6c5f
p1418
I2
sV\u5237\u65b0
p1419
I2
sV\u8bb0\u4f4f
p1420
I6
sV\u65e9
I12
sV\u5fae\u4fe1
p1421
I4
sVHIFI
p1422
I48
sVSurface
p1423
I14
sV\u5207\u8eab\u5229\u76ca
p1424
I4
sV\u5e03\u91cc\u65af\u6258\u5c14
p1425
I2
sV\u7528\u610f\u4f55\u5728
p1426
I2
sV\u9769\u547d
p1427
I48
sV599
p1428
I2
sV\u680b
I2
sVMX2
p1429
I20
sV\u575a\u6301
p1430
I2
sV\u8ffd\u8e2a
p1431
I2
sV\u51b2\u7834
p1432
I2
sV\u6311\u6218\u6027
p1433
I2
sV\u53d1\u8868\u58f0\u660e
p1434
I4
sV\u6c89\u8ff7
p1435
I2
sV\u53f0\u9762
p1436
I4
sV\u7f5a\u6b3e
p1437
I56
sVReed
p1438
I2
sV\u9075\u5faa
p1439
I2
sV\u5224\u65ad
p1440
I2
sV\u8bf7
I14
sV\u534e\u5c14\u8857\u65e5\u62a5
p1441
I8
sV\u54c8\u5c14\u6ee8\u5e02
p1442
I2
sV\u5e7b\u517d
p1443
I2
sV\u63d2
I4
sVpoverty
p1444
I2
sV\u56de\u5fc6
p1445
I8
sV\u4ee4
I6
sV\u654c\u5bf9\u52bf\u529b
p1446
I2
sV\u63a5\u7740
p1447
I2
sV\u613f\u5411
p1448
I2
sV\u5171
I10
sV\u533a\u57df
p1449
I4
sV\u6251\u514b
p1450
I10
sV\u62fc
I2
sV\u5927\u5bb6
p1451
I122
sV\u63a8\u81f3
p1452
I2
sV\u7f51\u7edc\u79d1\u6280
p1453
I4
sV\u7816
I2
sVDaniela
p1454
I2
sV\u798f\u97f3
p1455
I2
sV\u738b\u5e9c\u4e95
p1456
I2
sV\u53cd\u7701
p1457
I2
sV\u72af\u7f6a
p1458
I2
sV\u7231\u4e0a\u4f60
p1459
I2
sV\u4e95\u5b57
p1460
I2
sV\u4f9b\u5e94\u94fe
p1461
I4
sV\u897f\u6e38
p1462
I2
sV\u9996\u6279
p1463
I2
sV\u6697\u793a
p1464
I2
sV\u9ec4\u5174\u8def
p1465
I2
sV\u7814\u7a76\u4f1a
p1466
I4
sV\u9065\u63a7
p1467
I4
sV\u6b4c
I4
sV\u67d4\u58f0\u8bf4
p1468
I2
sV\u6743\u76ca\u4fdd\u62a4\u6cd5
p1469
I2
sV\u540d\u4eba
p1470
I2
sV63.7
p1471
I2
sV\u5e76\u4e8e
p1472
I2
sV\u96f6\u552e\u5e97
p1473
I12
sV\u5c55\u989c
p1474
I2
sV\u5f81\u6536
p1475
I2
sV\u7f51\u53cb
p1476
I56
sV\u5907\u53d7
p1477
I52
sVPolice
p1478
I2
sV\u56de\u5e94
p1479
I2
sV\u5e7f\u5927
p1480
I6
sV\u8c8c\u4f3c
p1481
I2
sV\u521d
I2
sV\u723d\u5feb
p1482
I2
sV\u8c08\u8bba
p1483
I2
sV\u95ef\u7ea2\u706f
p1484
I2
sV\u9a73\u56de
p1485
I4
sV\u5e73\u5e73\u5e38\u5e38
p1486
I2
sV\u7528\u6cd5
p1487
I2
sV\u52b2
I2
sV\u5306\u5fd9
p1488
I2
sV\u4eba
I282
sVRyan
p1489
I2
sVQ
I4
sV\u5927\u5b66
p1490
I8
sV\u9047\u89c1
p1491
I4
sV\u5e74\u6536\u5165
p1492
I2
sV\u676d\u5dde
p1493
I14
sV\u75c5\u6bd2
p1494
I8
sV\u7ade\u4e89\u529b
p1495
I4
sVApple
p1496
I22
sV\u6367
I2
sVOne
p1497
I4
sV\u5e76\u4e14
p1498
I32
sV\u5149\u8363
p1499
I2
sVvolunteers
p1500
I2
sV\u5546\u8bae
p1501
I2
sV\u5149\u68cd\u8282
p1502
I2
sV\u6839\u636e
p1503
I38
sV\u81ea\u7136
p1504
I4
sV\u6392\u884c\u699c
p1505
I8
sV\u652f\u4ed8
p1506
I38
sV\u529b
I2
sV\u5b66\u751f
p1507
I8
sV\u6539\u884c
p1508
I2
sV\u5145\u65a5
p1509
I2
sV\u7136\u800c
p1510
I4
sV\u4ea7\u4e1a
p1511
I48
sV\u5230
I176
sV\u6e29\u6cc9\u4e61
p1512
I2
sV\u7740\u8ff7
p1513
I2
sV2011
p1514
I10
sV\u534e\u7855
p1515
I18
sV\u7262\u9a9a
p1516
I2
sV2012
p1517
I48
sV\u5dc5
I2
sV\u6548\u679c
p1518
I10
sV\u5927\u58f0
p1519
I4
sV\u626b\u63cf
p1520
I2
sV\u4e00\u5927\u6b65
p1521
I2
sV\u6bd4\u8428
p1522
I2
sVMobileMe
p1523
I2
sV\u7a0e
I6
sV\u89e6\u76ee\u60ca\u5fc3
p1524
I4
sV\u6da8
I2
sV\u7ee7
I60
sV\u4e3b\u529b
p1525
I4
sV\u6a2a\u884c\u4e61\u91cc
p1526
I2
sVCityJump
p1527
I2
sVVIP
p1528
I2
sV\u8dcc\u5012
p1529
I2
sV\u6781\u4e3a
p1530
I2
sV\u6bcd\u4eb2\u8282
p1531
I8
sV\u79c1\u751f\u6d3b
p1532
I2
sV\u5c0f\u65f6\u5019
p1533
I8
sV\u53d1\u8fbe
p1534
I2
sV\u753b\u9762
p1535
I36
sV\u6613
I6
sV\u4ef2\u88c1
p1536
I4
sV\u5979\u4eec
p1537
I2
sV\u8f7b\u6613
p1538
I6
sV\u76d2\u5b50
p1539
I6
sV'
I4
sV\u574a\u95f4
p1540
I2
sV\u56fd\u9645\u53cb\u4eba
p1541
I2
sV\u5165\u6d41
p1542
I2
sV\u5fae
I112
sV\u7535
I4
sV\u96be\u5403
p1543
I2
sV\u4fe1\u7528\u5361
p1544
I2
sVQoS
p1545
I2
sV\u96be
I8
sV\u5047
I48
sV\u6240\u8c13
p1546
I8
sV\u61d2
I4
sV\u4f4f
I10
sV\u5ac1\u7ed9
p1547
I2
sV\u725b
I2
sV\u94fe\u63a5
p1548
I54
sV\u745f
I2
sV\u601d\u7ef4
p1549
I2
sV\u739b\u4e3d\u5965
p1550
I2
sV\u627e\u56de
p1551
I8
sV\u846c\u8eab\u4e4b\u5730
p1552
I2
sV\u72e0\u4e0b\u5fc3\u6765
p1553
I2
sV\u89e6\u63a7\u7b14
p1554
I4
sVWIFI
p1555
I2
sV\u5367\u9f99
p1556
I2
sVJump
p1557
I2
sV\u6570\u636e\u91c7\u96c6
p1558
I2
sVOuya
p1559
I4
sV\u89e3\u8c1c
p1560
I12
sV\u5207\u83ab
p1561
I2
sV\u9650\u65f6
p1562
I4
sV\u8f6f\u4ef6\u5f00\u53d1
p1563
I2
sV\u5206
I16
sV\u7545\u9500\u4e66
p1564
I2
sV\u7206\u6599
p1565
I52
sV\u4f53\u8d34
p1566
I4
sV\u8273\u9633\u9ad8\u7167
p1567
I2
sV\u5bb9\u91cf
p1568
I6
sV\u62d2\u7edd
p1569
I16
sV\u6b22\u8fce
p1570
I2
sV\u7247\u6e90
p1571
I2
sV\u4eea\u5f0f
p1572
I6
sV\u7f51\u5185
p1573
I2
sV\u4f38
I4
sV\u5ac1
I8
sV\u552f\u7f8e
p1574
I2
sVstars
p1575
I2
sV\u91c7
I2
sV\u8ba2\u8d2d
p1576
I2
sV\u751c\u871c
p1577
I2
sV\u5f81\u670d
p1578
I2
sVHERE
p1579
I2
sV\u817e\u8baf
p1580
I12
sV\u7ed9
I130
sV\u7b2c\u4e09\u65b9
p1581
I4
sVUNO
p1582
I6
sV\u5927\u59d0
p1583
I2
sVITC
p1584
I2
sV\u5de8\u54cd
p1585
I2
sV\u80fd
I136
sV\u7535\u5b50\u4e66
p1586
I52
sV\u5927\u5927
p1587
I50
sV\u963b\u6b62
p1588
I6
sV\u4fe1\u4efb
p1589
I4
sV\u4ec1\u5b9d
p1590
I4
sVRemember
p1591
I2
sVXperia
p1592
I4
sV\u8bf4\u8d77
p1593
I4
sV\u63a8\u8350
p1594
I12
sV\u6539\u89c2
p1595
I2
sV\u5927\u591a
p1596
I2
sV\u7231
I50
sV\u667a\u80fd\u673a
p1597
I70
sV\u4e3b\u6218\u573a
p1598
I2
sV\u8ffd\u8d76
p1599
I4
sV\u8f7b\u677e
p1600
I10
sVHOLL
p1601
I2
sV\u82e6\u82e6
p1602
I2
sV\u5fd8
I2
sVPatents
p1603
I2
sV\u5927\u5956
p1604
I144
sV\u57fa\u4e8e
p1605
I26
sV\u82e6
I2
sV\u76ee\u524d\u4e3a\u6b62
p1606
I4
sV\u7248\u672c
p1607
I116
sV\u65d7\u8230
p1608
I8
sV\u6587\u672c
p1609
I2
sVJussi
p1610
I2
sV\u5c5e\u5b9e
p1611
I4
sV\u79fb\u9664
p1612
I2
sV\u4e54\u5e03\u65af
p1613
I4
sV\u53e4\u4eba
p1614
I2
sV\u4e8b\u4ef6
p1615
I4
sV\u5e97
I4
sVQuickpass
p1616
I2
sV\u8d35\u91cd\u7269\u54c1
p1617
I2
sV\u52df\u96c6
p1618
I2
sV\u672c\u8eab
p1619
I4
sV\u6709\u522b\u4e8e
p1620
I2
sV\u516d\u540d
p1621
I2
sV\u9732
I2
sV\u673a\u4f1a
p1622
I214
sV\u51fa\u7b54
p1623
I2
sV\u4e0b\u5b9a\u51b3\u5fc3
p1624
I2
sV\u540e\u7eed
p1625
I2
sVMIUI
p1626
I2
sV\u6254
I2
sV\u53d1\u73b0\u81ea\u5df1
p1627
I6
sV\u6de1
I2
sVBecause
p1628
I2
sV\u8d76\u6284
p1629
I2
sV\u4e8b\u4e8b
p1630
I2
sV\u8981\u662f
p1631
I6
sV\u4eae\u76f8
p1632
I10
sV\u786c\u4ef6\u5b89\u5168
p1633
I2
sV\u4ef7
I50
sV\u64cd\u4f5c
p1634
I28
sViPad
p1635
I184
sV\u6ca1\u5d29
p1636
I2
sV\u516c\u91cc
p1637
I96
sV\u6709\u4f55
p1638
I2
sV\u4e8c
I4
sV\u9635\u98ce
p1639
I2
sVPS
p1640
I4
sV\u60a8
I70
sV\u53d8\u7126
p1641
I2
sV\u56de\u5bb6
p1642
I2
sV\u7531
I38
sV\u83b7\u53d6
p1643
I12
sV\u5f00\u59cb
p1644
I70
sV\u56de\u4e0d\u53bb
p1645
I2
sV\u5962\u671b
p1646
I4
sVP2
p1647
I4
sVGollop
p1648
I2
sVP5
p1649
I8
sV\u66dd\u6599
p1650
I4
sV\u70ed\u5356
p1651
I4
sV\u8fd1\u65e5
p1652
I102
sV\u6050\u6016
p1653
I2
sV\u5305\u542b
p1654
I6
sV\u6050\u6015
p1655
I2
sV\u6076\u610f
p1656
I4
sV\u4fdd\u62a4
p1657
I6
sV\u5927\u5e45
p1658
I8
sV\u4e00\u76f4
p1659
I86
sV\u591a\u6837
p1660
I2
sV\u5357\u65b9
p1661
I2
sV\u8fd9\u5bb6
p1662
I2
sV\u8bf4\u8bdd
p1663
I6
sV\u533a\u522b
p1664
I2
sV\u767d\u5e3d
p1665
I2
sV\u5929\u5730
p1666
I2
sV\u867d\u4e3a
p1667
I2
sV\u5f97
I98
sV\u539f
I4
sV\u82e5\u5e72
p1668
I2
sV\u7ed3\u4ea4
p1669
I4
sV\u8981\u6765
p1670
I4
sV1427
p1671
I2
sV\u4eae\u70b9
p1672
I8
sV\u8d22\u5bcc
p1673
I52
sVPhone
p1674
I38
sV\u9632
I12
sV\u4e16\u754c\u5404\u5730
p1675
I4
sVSterne
p1676
I2
sV\u9e23\u53eb
p1677
I2
sV\u6709\u4e9b
p1678
I34
sV\u6c99\u6c99\u58f0
p1679
I2
sV\u4ecd
I16
sV\u660e\u65e5
p1680
I6
sV\u5468\u5e74
p1681
I2
sV\u62db\u5546\u94f6\u884c
p1682
I2
sV\u770b\u5230
p1683
I12
sV\u4fdd\u6301
p1684
I10
sV\u53d1\u8868
p1685
I10
sV\u5a5a
I2
sV\u8d8b\u52bf
p1686
I10
sV\u6ce1
I2
sV\u8d60
I2
sV\u6709\u4eba
p1687
I16
sV\u8111\u5b50\u91cc
p1688
I2
sV\u94c1\u8f68
p1689
I2
sV2013
p1690
I44
sV\u83b7\u5211
p1691
I2
sV\u516c\u5e73\u7ade\u4e89
p1692
I48
sV\u53d1\u884c
p1693
I2
sV\u524d\u8fdb
p1694
I4
sV\u7f6a\u884c\u7d2f\u7d2f
p1695
I2
sV\u66b4\u529b
p1696
I6
sVinert
p1697
I2
sVvs
p1698
I2
sV\u73a9\u7b11
p1699
I2
sV\u53cc\u6a21
p1700
I2
sV\u6307\u51fa
p1701
I20
sV\u54cd\u5e94
p1702
I4
sV\u6539\u8fdb
p1703
I12
sV\u7ec4\u5efa
p1704
I2
sVandroid
p1705
I4
sV\u80dc\u5229
p1706
I4
sVDanny
p1707
I2
sV\u81ea\u76f8
p1708
I2
sV\u540e\u7f6e
p1709
I2
sVupon
p1710
I2
sV\u63a7\u5236\u5668
p1711
I4
sV\u70b8\u51fa
p1712
I2
sVv1
p1713
I10
sV\u4e00\u4e0b\u5934
p1714
I2
sV\u51c0\u589e
p1715
I2
sV\u603b\u8ba1\u6709
p1716
I2
sV4.0
p1717
I10
sV\u5192\u9669\u6e38\u620f
p1718
I4
sV\u534e\u7f8e
p1719
I2
sVStrat
p1720
I6
sV\u7f51\u5740
p1721
I2
sV\u6709\u4e2a
p1722
I4
sV\u626d\u66f2
p1723
I2
sV\u9057\u61be
p1724
I4
sV\u6c11\u58f0
p1725
I2
sV\u90aa
I2
sV\u5706
I2
sV\u81ea\u7531
p1726
I4
sV\u5df4\u9ece
p1727
I4
sV\u529b\u514b
p1728
I2
sV\u70b9\u51fb
p1729
I10
sV\u4e3b\u56e0
p1730
I2
sV\u578b\u53f7
p1731
I2
sV\u94fe\u6761
p1732
I2
sV\u8bf4\u88c5
p1733
I2
sV\u6708\u8d39
p1734
I2
sVCompany
p1735
I2
sV\u56de\u5934
p1736
I2
sV\u767b\u673a\u724c
p1737
I4
sVday
p1738
I4
sV\u7cbe\u4e8e
p1739
I2
sV\u5e02\u573a\u603b\u76d1
p1740
I2
sV\u5305\u56f4
p1741
I2
sVOPPO
p1742
I8
sV\u7f3a\u9499
p1743
I2
sV\u6839\u672c
p1744
I2
sV\u62ff\u8d77
p1745
I4
sV\u7248
I304
sV\u4e2d\u9014
p1746
I4
sV\u8fd1\u6765
p1747
I2
sV\u6570\u5b66\u9898
p1748
I2
sV\u63cf\u8ff0
p1749
I2
sV\u653f\u5e9c
p1750
I4
sV\u5c06\u8981
p1751
I4
sV\u5e0c\u614e
p1752
I2
sV\u80dc\u51fa
p1753
I2
sV\u4e8e\u5fae\u4fe1
p1754
I2
sV\u72ec\u5bb6
p1755
I6
sV\u59d4\u5458\u4f1a
p1756
I10
sV\u5c0a\u91cd
p1757
I2
sV\u5e74\u534a
p1758
I2
sV\u673a\u5668\u732b
p1759
I2
sV\u8fdb\u5c55
p1760
I8
sV\u6587\u5316
p1761
I4
sVPocketgamer
p1762
I2
sV\u57cb\u6028
p1763
I2
sV\u680f
I8
sV\u786c
I2
sV\u5730\u9707
p1764
I2
sV\u660e\u663e
p1765
I6
sV\u5c0f\u8475
p1766
I2
sV\u622a\u6b62
p1767
I54
sV\u83b7\u51c6
p1768
I2
sV2780
p1769
I4
sV\u795e\u7ecf
p1770
I2
sV\u5927\u5c06
p1771
I2
sV\u505a\u4e3b
p1772
I2
sV\u4e2d\u90fd
p1773
I4
sV\u592a\u4e45
p1774
I4
sV\u5b9a\u4ef7
p1775
I8
sV\u6e38\u8361
p1776
I2
sV\u5de8\u517d
p1777
I2
sV\u765e\u5b50
p1778
I2
sV\u4e4b
I70
sV\u865a\u5047
p1779
I2
sV\u8d27\u80bf\u4e48
p1780
I2
sVKindle
p1781
I164
sV\u62ed\u76ee\u4ee5\u5f85
p1782
I2
sV\u770b\u9519
p1783
I2
sV\u53d1\u8a00\u4eba
p1784
I4
sV\u5185\u73af
p1785
I4
sV\u767b\u5f55
p1786
I10
sV\u53e6\u8f9f\u8e4a\u5f84
p1787
I2
sV25.8
p1788
I2
sV\u6df7\u54cd
p1789
I2
sV\u7cbe\u7f8e\u58c1\u7eb8
p1790
I8
sV\u5730\u9762
p1791
I2
sV\u5206\u5217\u4e3a
p1792
I2
sV\u5927\u5c4f
p1793
I4
sV\u6307\u5357
p1794
I10
sV\u5b9a\u4f4d
p1795
I6
sV\u6d82\u6f06
p1796
I2
sV\u6e05\u98ce
p1797
I2
sV\u9884\u5b9a
p1798
I6
sVFOSS
p1799
I2
sV\u4e00\u751f
p1800
I10
sV\u9ed8\u5951
p1801
I2
sV\u975e\u73b0\u91d1
p1802
I2
sV\u62d6\u5230
p1803
I2
sV\u5730
I32
sV\u800c\u4e14
p1804
I10
sV\u96be\u518d
p1805
I2
sV\u5982\u706b\u5982\u837c
p1806
I2
sV\u770b\u505a
p1807
I2
sV9.6
p1808
I4
sV9.7
p1809
I4
sV9.3
p1810
I8
sV\u5fd8\u4e0d\u4e86
p1811
I2
sVCiviello
p1812
I2
sV\u7ad9
I10
sV\u6765\u7535
p1813
I4
sV\u6ee1
I6
sV\u7981\u9522
p1814
I2
sV\u65b9\u5f0f
p1815
I70
sV\u9a8c\u8bc1
p1816
I4
sV\u5047\u4f7f
p1817
I2
sV\u77ed\u8def
p1818
I48
sV\u5c0f\u9e1f
p1819
I18
sV\u53f3
I2
sV\u627e
I12
sV\u51e0\u5343\u4e2a
p1820
I2
sV\u56db\u6838
p1821
I2
sVOvum
p1822
I2
sVink
p1823
I2
sV\u8003\u8bd5
p1824
I4
sV\u63a8
I16
sV\u5373\u65f6\u901a\u8baf
p1825
I4
sV\u96c6\u6362
p1826
I2
sV\u8be5\u6e38\u620f
p1827
I2
sV\u975e\u5e38\u5bb9\u6613
p1828
I2
sV\u51c6\u786e
p1829
I2
sV\u6279\u5224\u6027
p1830
I2
sV\u538c\u6076
p1831
I2
sV\u6240\u793a
p1832
I4
sVU
I10
sV\u5bf8
I14
sV\u7f51\u7edc\u5b89\u5168
p1833
I8
sV\u6b63
I30
sV\u94c1\u8def
p1834
I2
sV\u52a0\u500d
p1835
I4
sV\u91ce\u6218
p1836
I2
sV\u591a\u6b3e
p1837
I2
sV\u8d77
I14
sV\u62cd\u5b8c
p1838
I2
sV\u773c\u5149
p1839
I2
sV\u5927\u62b5
p1840
I2
sV\u6302
I4
sV\u5185\u5d4c
p1841
I6
sV\u638c\u63e1\u8005
p1842
I2
sV\u5904\u7406\u5668\u6280\u672f
p1843
I2
sV\u540d\u53eb
p1844
I2
sV164
p1845
I2
sV\u5404\u5177\u7279\u8272
p1846
I2
sV\u5de5\u827a
p1847
I4
sV\u4e00\u5bb6\u4eba
p1848
I2
sVVoice
p1849
I4
sV\u8fd9\u6761
p1850
I2
sV\u739b\u4e3d
p1851
I2
sVCV
p1852
I4
sV\u6c34\u7ba1
p1853
I2
sV\u7ec6\u5fc3\u5730
p1854
I2
sV\u9a97\u5c40
p1855
I2
sV\u80fd\u5bb9
p1856
I2
sV\u5efa\u9020
p1857
I8
sV\u54c1\u724c
p1858
I28
sV\u4e1c\u5357\u4e9a
p1859
I50
sV\u5f97\u610f
p1860
I2
sV\u65fa\u5b63
p1861
I2
sVSNG
p1862
I2
sV\u4e00\u70b9
p1863
I68
sV\u65e5\u7a0b
p1864
I2
sV\u4e3a\u65f6\u665a\u77e3
p1865
I2
sV\u82b1\u5fc3
p1866
I2
sV\u5176
I86
sV\u6253\u7740
p1867
I2
sV\u56de\u6765
p1868
I10
sV\u6536\u4e0d\u5230
p1869
I2
sVPlayStation
p1870
I4
sV\u665a\u4e0a
p1871
I6
sV\u4e8b\u7269
p1872
I2
sV\u65e8\u5728
p1873
I50
sV\u65b0\u8fd1
p1874
I2
sV\u8f6c\u672c\u5fae
p1875
I48
sV\u53a6\u95e8
p1876
I6
sV\u610f\u5473\u7740
p1877
I24
sVTDD
p1878
I4
sV\u53e3\u4e2d
p1879
I2
sV+
I126
sV\u771f\u7231
p1880
I4
sV\u5927\u6218
p1881
I6
sVGame
p1882
I2
sV\u6b63\u7edf
p1883
I2
sV\u6b66\u5c06
p1884
I4
sV\u58c1\u7eb8
p1885
I140
sV\u9e3f
I2
sV\u591a\u540d
p1886
I50
sV\u901a\u7f09
p1887
I4
sV\u4e94\u5e74
p1888
I6
sV\u7cbe\u7075
p1889
I96
sV=
I48
sV\u4e5f
I368
sV\u604d\u7136\u5927\u609f
p1890
I2
sV\u6536\u76ca
p1891
I52
sV\u70ed\u6f6e
p1892
I2
sV\u5f31\u52bf
p1893
I2
sV\u795e\u5077
p1894
I2
sV\u5bb9\u6613\u63a5\u53d7
p1895
I2
sV\u9996\u5bb6
p1896
I2
sV\u6536\u76d8
p1897
I2
sV\u4e0d\u9519
p1898
I18
sV\u4e22\u5931
p1899
I2
sV\u5e02\u573a\u840e\u7f29
p1900
I48
sV\u8d76\u5feb
p1901
I4
sV\u6700\u540e
p1902
I22
sV\u70b9\u6ef4
p1903
I6
sVSchiller
p1904
I2
sV\u4ea7\u751f
p1905
I10
sV\u7537\u53cb
p1906
I2
sV\u5b9e\u666f
p1907
I2
sVis
p1908
I2
sVFender11
p1909
I2
sV\u7d27\u968f\u5176\u540e
p1910
I2
sVit
p1911
I2
sVGarageband
p1912
I2
sV\u6cd5\u5236\u73af\u5883
p1913
I2
sV\u7f8e\u5e74
p1914
I2
sV\u611f\u6069\u8282
p1915
I8
sV\u7ec4\u6210
p1916
I2
sV1999
p1917
I2
sV\u6bc1\u706d
p1918
I2
sV\u5076
I2
sV\u8001
I6
sV\u660e\u5929
p1919
I12
sV6.0.1
p1920
I4
sV\u6b27\u6d32
p1921
I14
sV\u4f18\u96c5
p1922
I4
sV\u5404\u4f4d
p1923
I4
sV\u4e0b\u8f7d\u91cf
p1924
I6
sV\u529b\u4e89
p1925
I2
sV\u53cc\u91cd
p1926
I2
sV1196
p1927
I2
sV\u989c\u9762
p1928
I2
sV\u5438\u5f15
p1929
I12
sV\u8f69\u5c3c\u8bd7
p1930
I2
sVNot
p1931
I4
sV\u8282\u594f
p1932
I4
sV\u8c46\u6c99
p1933
I2
sV\u54ce
I2
sV\u5b89\u5168\u8f6f\u4ef6
p1934
I2
sV\u5584\u826f
p1935
I6
sV\u5fc3\u60c5\u6109\u5feb
p1936
I2
sV\u603b\u4f1a
p1937
I4
sV......
p1938
I2
sV\u9760\u8fd1
p1939
I2
sV\u65f6\u95f4\u6bb5
p1940
I2
sVthings
p1941
I2
sV\u867d\u7136
p1942
I80
sV\u518d
I56
sV6.7
p1943
I2
sV6.1
p1944
I16
sV6.0
p1945
I4
sV\u536f\u8db3
p1946
I2
sV\u57c3\u6587\u65af
p1947
I2
sV\u5ba3\u5e03
p1948
I64
sV\u4e0b\u964d
p1949
I6
sV\u8ba4\u8bc1
p1950
I6
sV\u591a\u56fd
p1951
I2
sV\u5370\u8c61
p1952
I8
sV\u6c34
I14
sV\u4e94\u5c81
p1953
I2
sV\u6587\u5e93
p1954
I96
sV\u4e48
I8
sV\u5bfc\u81f4\u7528\u6237
p1955
I4
sV\u9010\u9e7f
p1956
I2
sVMotion
p1957
I2
sV\u65e9\u5728
p1958
I2
sV\u5f00\u7f57
p1959
I2
sV
I10
sV\u624d\u80fd
p1960
I16
sV\u4e0e
I488
sV\u900f\u9732
p1961
I44
sV\u5012\u4e0d\u5982
p1962
I2
sV\u5916\u7bb1
p1963
I2
sV\u7a81\u7136
p1964
I12
sV7.92
p1965
I2
sV\u50cf\u662f
p1966
I8
sV\u770b\u6de1
p1967
I2
sV\u4e0d\u9760
p1968
I2
sV\u5947\u5999
p1969
I2
sV\u51b3\u88c2
p1970
I2
sV\u6e2f\u8154
p1971
I2
sV\u52a0
I54
sV\u51b0\u7bb1
p1972
I2
sV\u9999\u6e2f
p1973
I34
sV\u5171\u8ba1
p1974
I2
sV\u5907\u5fd8\u5f55
p1975
I4
sV\u5267\u60c5
p1976
I4
sV\u90e8\u5206
p1977
I14
sV\u8482\u59c6
p1978
I2
sV\u9891\u6bb5
p1979
I6
sV\u57ce
I8
sV\u5b66\u4e60
p1980
I2
sV\u9519\u8fc7
p1981
I60
sV\u7eed\u4f5c
p1982
I2
sV\u626e\u6f14
p1983
I14
sV\u5b9e\u65bd
p1984
I8
sV\u90a3\u79cd
p1985
I2
sV++
p1986
I2
sV\u5185\u4fa7
p1987
I2
sV\u9634\u5f71
p1988
I2
sV\u6728
I6
sV\u964c\u751f
p1989
I2
sV\u51e4\u53cc\u98de
p1990
I2
sV\u62a5\u9053
p1991
I102
sV\u5bcc\u8db3
p1992
I2
sV\u4e0b\u9762
p1993
I6
sVCooper
p1994
I2
sV\u4e0a\u534a\u5e74
p1995
I4
sV\u5356\u5b8c
p1996
I4
sV\u64cd\u63a7
p1997
I2
sV\u653e\u5728
p1998
I10
sV\u82ad\u6bd4
p1999
I2
sVincell
p2000
I2
sV\u4e1e
I4
sV\u5174\u8da3\u4e0d\u5927
p2001
I2
sV\u8ba1\u7b97
p2002
I4
sV\u52a0\u6cd5
p2003
I2
sV\u793c
I2
sV\u6a2a\u7ebf
p2004
I2
sV\u63a2\u7d22
p2005
I6
sV\u8f7b\u5feb
p2006
I4
sV\u7eb3\u7c73\u7ea7
p2007
I2
sV\u8ddf
I12
sV\u6709\u70b9
p2008
I6
sV\u54e5
I8
sVKantar
p2009
I2
sV\u67e5\u770b
p2010
I2
sV\u5c55\u89c8
p2011
I2
sV\u540c\u4e50
p2012
I2
sV\u7a7f\u8fc7
p2013
I2
sV\u592b\u4eba
p2014
I4
sVsolely
p2015
I2
sV\u989d\u5916
p2016
I4
sV\u8d70\u8fdb
p2017
I6
sV\u9884\u671f
p2018
I2
sV\u65f6\u8bf4
p2019
I2
sV\u8d70\u8fc7
p2020
I48
sV\u6ca1\u623f
p2021
I2
sV\u9057\u5fd8
p2022
I2
sV\u968f\u624b
p2023
I2
sV\u5b66\u4f1a
p2024
I12
sV\u4f24\u5fc3
p2025
I4
sV\u6362\u4e0a
p2026
I4
sV\u53d8\u4e3a
p2027
I2
sV\u8272\u5f69
p2028
I4
sV\u5c1d\u8bd5
p2029
I10
sV\u6743
I2
sV\u80cc\u7167\u5f0f
p2030
I2
sV\u665a\u4e9b\u65f6\u5019
p2031
I6
sV\u91cc
I114
sV\u65e0\u7a77
p2032
I2
sV\u5f00\u7ed9
p2033
I2
sVQQ
p2034
I10
sV\u5b8c\u7f8e\u65e0\u7f3a
p2035
I2
sV\u9752\u6625
p2036
I12
sV\u54ea\u91cc
p2037
I6
sV\u4e00\u4e00
p2038
I2
sVRidge
p2039
I2
sV\u82af\u7247
p2040
I32
sV\u4e00\u4e0b
p2041
I8
sV\u901a\u7bc7
p2042
I2
sV\u629b\u5f03
p2043
I6
sV\u5468\u672b
p2044
I2
sV\u8fc5\u901f
p2045
I10
sVPAD
p2046
I2
sV7.5
p2047
I2
sV\u8bbe\u8ba1
p2048
I48
sV7.8
p2049
I2
sV\u771f\u7684
p2050
I22
sV\u4e00\u4e1d
p2051
I2
sV\u5468\u671f
p2052
I6
sV\u7ea7
I8
sV\u4e00\u4e2a
p2053
I388
sV\u767e\u59d3
p2054
I2
sV\u989d\u5ea6
p2055
I2
sV\u5176\u4ed6
p2056
I42
sV\u521b\u59cb\u4eba
p2057
I10
sV\u5341\u4ebf
p2058
I2
sV\u5185\u5fc3\u6df1\u5904
p2059
I2
sV\u6295\u5f71\u4eea
p2060
I6
sV\u724c\u5b50
p2061
I4
sV\u4e1a\u5185
p2062
I8
sV\u9010\u9879
p2063
I2
sVdb
p2064
I2
sV\u540c
I6
sV\u6307\u6807
p2065
I2
sV\u4ee5\u540e
p2066
I8
sV\u79fb\u52a8\u7f51
p2067
I2
sV\u9501\u5b9a
p2068
I6
sV\u758f\u4e8e
p2069
I2
sV\u5e84\u56ed
p2070
I2
sV\u53e5
I6
sV\u771f\u76f8
p2071
I2
sVIHS
p2072
I2
sV\u653e\u4e0d\u4e0b
p2073
I2
sV\u8d62\u53d6
p2074
I48
sV417
p2075
I2
sV\u7cfb
I2
sV418
p2076
I6
sV\u4e07
I134
sV\u7f51\u6e38
p2077
I6
sVdepends
p2078
I2
sV\u624b\u673a
p2079
I1062
sV\u4e00\u4e9b
p2080
I58
sV\u72b6\u6001
p2081
I8
sV\u50a8\u5b58
p2082
I2
sV\u516c\u53f8\u5458\u5de5
p2083
I2
sV\u597d\u5947
p2084
I2
sV\u6854\u5b50
p2085
I2
sV\u7edf\u6cbb\u8005
p2086
I2
sV\u7b2c\u516d\u4f4d
p2087
I2
sV\u575a\u5f3a
p2088
I6
sV\u5185\u6d4b
p2089
I2
sV\u5e76\u672a
p2090
I18
sV\u5176\u4e2d
p2091
I92
sV\u5f2f\u5200
p2092
I2
sV\u9c9c\u660e
p2093
I2
sV\u81ea\u4fe1
p2094
I2
sV\u4e00\u4ee3
p2095
I6
sV\u62e8\u6253
p2096
I4
sV\u6ca1\u6551
p2097
I2
sV\u65b0\u533a
p2098
I2
sV\u89c6\u89c9\u6548\u679c
p2099
I2
sV\u4e00\u4ef6
p2100
I6
sV\u5c31\u8ba9
p2101
I52
sV60.5
p2102
I2
sVcom
p2103
I8
sV\u4e00\u4efd
p2104
I12
sV\u7bad\u9776\u5b50
p2105
I4
sV\u81ea\u4e3b
p2106
I8
sV\u5b89\u5353
p2107
I52
sV\u4fdd\u5b58
p2108
I2
sV\u5e8a\u4e0a
p2109
I2
sV\u4e00\u4f1a
p2110
I2
sV\u6c34\u7ebf
p2111
I2
sV\u672c
I66
sV\u7d22\u53d6
p2112
I2
sV\u51fa\u79df\u8f66
p2113
I8
sV\u6253\u7206
p2114
I2
sV\u573a\u666f
p2115
I12
sV\u7f51\u7edc\u7248
p2116
I6
sV\u8c46
I6
sV\u4e3a\u6b64
p2117
I4
sV\u8eab\u4e0a
p2118
I4
sV\u4e0d\u4ec5\u5982\u6b64
p2119
I2
sV\u4e00\u9897
p2120
I6
sV\u4e3a\u6b62
p2121
I2
sV\u4e00\u4f4d
p2122
I10
sV\u60f3\u6d4b
p2123
I2
sV\u4e00\u4f53
p2124
I4
sV\u7b2c\u4e09\u5bb6
p2125
I4
sV\u7b7e\u8ba2
p2126
I4
sV\u4e09\u5206\u4e4b\u4e8c
p2127
I4
sV\u4e30\u5bcc
p2128
I72
sV\u62cd\u6444
p2129
I16
sV\u524d\u4e24\u5929
p2130
I4
sV\u8e0f\u4e0a
p2131
I2
sV\u7ecf\u8fc7
p2132
I6
sV\u95ef\u5165
p2133
I2
sV\u9996\u5e2d
p2134
I2
sV\u8840\u6db2
p2135
I2
sV\u8d70
I44
sV\u4fb5\u72af
p2136
I18
sV\u9057\u5931
p2137
I2
sV\u70b9\u7f00
p2138
I4
sV\u5fc3\u8df3
p2139
I4
sV\u8eab\u4e3a
p2140
I2
sV\u95ef\u5173
p2141
I4
sV\u65d7\u8230\u5e97
p2142
I50
sV\u957f\u6b64\u4ee5\u5f80
p2143
I2
sV\u79f0\u613f
p2144
I2
sV\u5373\u6709
p2145
I52
sV\u81f3\u4e8e
p2146
I2
sV\u624b\u91cc
p2147
I4
sV\u8d8b\u7f13
p2148
I2
sV\u7eb5\u4f7f
p2149
I2
sVX86
p2150
I2
sV\u901d
I2
sV\u5c4a\u65f6
p2151
I8
sV\u6682\u65f6
p2152
I4
sV\u571f\u5730
p2153
I2
sV\u4e3b\u6d41
p2154
I8
sV\u6885\u8036\u5c14
p2155
I8
sV\u6ce3\u4e0d\u6210\u58f0
p2156
I2
sV\u653e\u51fa
p2157
I10
sV\u5e10\u53f7
p2158
I2
sVevil
p2159
I2
sV\u4e09\u5206\u4e4b\u4e00
p2160
I2
sV\u81f3\u4eca
p2161
I4
sV\u6559\u4f1a
p2162
I2
sVHTML5
p2163
I4
sVCirrus
p2164
I2
sVMini
p2165
I8
sV\u6765\u9009
p2166
I2
sV\u6625\u79cb\u6218\u56fd
p2167
I2
sV1600
p2168
I6
sV\u81ea\u4ece
p2169
I4
sVthe
p2170
I8
sV\u672a\u80fd
p2171
I6
sVWin8
p2172
I8
sV\u8def\u7ebf\u56fe
p2173
I2
sV\u8822\u8822\u6b32\u52a8
p2174
I2
sV\u6b63\u786e
p2175
I50
sV\u6f06
I4
sV\u575a\u5b9a\u4fe1\u5fc3
p2176
I2
sV\u590d\u6d3b\u8282
p2177
I2
sV\u7b49\u4e8e
p2178
I12
sV\u914d\u4e0a
p2179
I2
sV\u7535\u8111
p2180
I320
sV\u5a5a\u793c
p2181
I6
sV\u8058\u7528
p2182
I2
sV\u622a\u53d6
p2183
I2
sV\u592a
I82
sV\u642c
I2
sVExynos
p2184
I8
sV\u4e91\u6d4b
p2185
I4
sV\u4f18\u9177
p2186
I48
sViOS
p2187
I294
sV\u6c99\u79d1\u4fdd
p2188
I2
sV\u5854
I6
sV\u7f8e\u5973
p2189
I2
sV\u4ea7\u7269
p2190
I2
sV\u653e\u5f00\u624b
p2191
I2
sVNexus
p2192
I34
sV\u4e2d\u56fd\u7535\u4fe1
p2193
I8
sV\u6295\u8d44\u8005
p2194
I48
sV\u9c7c
I4
sV\u4e00\u6b21\u6b21
p2195
I4
sV\u7231\u673a
p2196
I2
sV\u7b14\u8bb0\u672c
p2197
I12
sV\u6d4b\u8bd5\u9636\u6bb5
p2198
I2
sV\u6807\u51c6
p2199
I58
sV17999
p2200
I2
sV\u8fd0\u8425\u5b98
p2201
I2
sV\u501f\u673a
p2202
I2
sV\u6ca1\u6709
p2203
I176
sV\u6c83\u62cd\u5ba2
p2204
I4
sV/
I130
sV\u7f8e\u5999
p2205
I2
sV\u5f00\u7bb1
p2206
I4
sV\u770b\u4e0a\u53bb
p2207
I2
sV\u8f66\u4e0a
p2208
I2
sV\u7231\u4e0d\u91ca\u624b
p2209
I2
sV\u4e0a\u7f51
p2210
I62
sVOoyala
p2211
I2
sV\u5c31\u8981
p2212
I8
sV\u53f9
I2
sV\u968f\u673a
p2213
I52
sV\u4f5c\u79c0
p2214
I2
sV\u660e\u5e74
p2215
I22
sV\u5468\u65e5
p2216
I4
sV\u90e8\u4ef6
p2217
I2
sV\u51b3\u4e0d\u4f1a
p2218
I2
sV\u5954\u5411
p2219
I2
sV\u795e\u5668
p2220
I50
sV\u4f2f\u660e\u7ff0
p2221
I2
sVCDMA
p2222
I12
sV\u4eba\u6c11\u5e01
p2223
I10
sVCut
p2224
I4
sV\u529b\u6c14
p2225
I4
sV\u62dc\u4e9a
p2226
I2
sV\u7a7a\u5de2
p2227
I6
sVInsider
p2228
I2
sV\u4e09\u79cd
p2229
I4
sV\u56f4\u68cb
p2230
I2
sV\u6597
I2
sV\u4eac\u4e1c
p2231
I52
sV\u5929\u6d25
p2232
I10
sV\u65e0\u7ebf
p2233
I8
sV\u6700\u521d
p2234
I2
sV\u5496\u5561
p2235
I2
sV\u9694\u819c
p2236
I48
sV\u4e0a\u7ebf
p2237
I14
sV\u5e26
I64
sV\u7231\u7acb\u4fe1
p2238
I18
sV\u91d1\u6770\u68a6
p2239
I2
sV\u524d\u6bb5\u65f6\u95f4
p2240
I4
sV\u5b89\u5168
p2241
I80
sV\u65e9\u524d
p2242
I4
sV\u60c5
I8
sV\u5173\u6ce8\u5ea6
p2243
I2
sV\u795e\u57df
p2244
I2
sV\u770b\u4e0d\u900f
p2245
I2
sV\u6027\u80fd
p2246
I10
sV\u552e\u7f44
p2247
I10
sV\u8bf4\u9053
p2248
I2
sV\u81e3\u59be
p2249
I2
sV\u9a97\u5b50
p2250
I4
sV\u8fdb
I8
sV\u6e38\u8bf4
p2251
I48
sV\u5669\u68a6
p2252
I6
sVCS8422
p2253
I2
sV\u627f\u53d7
p2254
I2
sV\u662f\u4e0d\u662f
p2255
I8
sV\u4e1a\u52a1
p2256
I122
sV\u4e3e\u624b
p2257
I2
sV\u7ffb
I2
sV\u68cb\u76d8
p2258
I2
sV\u5e9e\u5927
p2259
I2
sV\u6587\u5b57
p2260
I8
sV\u65b9\u9762
p2261
I32
sV\u5357\u4eac\u5927\u5c60\u6740
p2262
I2
sV\u91cc\u7a0b\u7891
p2263
I4
sV\u8fd9\u90e8\u5206
p2264
I2
sV\u513f\u5b50
p2265
I4
sVRunning
p2266
I2
sV\u4f1a\u957f
p2267
I2
sV\u5b9e\u60e0
p2268
I2
sV\u620f\u79f0
p2269
I2
sV\u5c3d
I12
sV\u5c5e\u6027
p2270
I2
sV5288
p2271
I2
sVWindows
p2272
I66
sV\u9f13\u52b1
p2273
I2
sV\u547d\u4ee4
p2274
I2
sV\u4e0a\u73ed\u65cf
p2275
I2
sV\u4f24\u5bb3
p2276
I2
sV\u6709\u7406
p2277
I2
sV\u91ca\u653e
p2278
I2
sV\u8054\u901a
p2279
I20
sVfor
p2280
I2
sV\u6d51\u5357
p2281
I2
sV\u4e3b\u6f14
p2282
I2
sV\u8fdb\u653b
p2283
I6
sV\u51f6\u6b8b
p2284
I4
sV\u5730\u96f7\u6218
p2285
I2
sV\u7684\u8bdd
p2286
I12
sV\u7279
I6
sV\u6258\u5ef6
p2287
I2
sV\u5f80\u8fd4
p2288
I4
sV\u770b\u6765
p2289
I4
sV\u3010
I1408
sV\u8054\u53d1\u79d1
p2290
I2
sV\u5f53\u4e2d
p2291
I12
sV\u4f1a
I430
sV\u66dd\u5149
p2292
I30
sV\u901a\u77e5
p2293
I12
sV\u539f\u673a
p2294
I2
sV\u6d3b\u8dc3
p2295
I6
sV\u8d62\u5f97
p2296
I4
sV\u5b70
I2
sV\u5404\u5730
p2297
I4
sV\u6df7\u6218
p2298
I4
sV\u91d1\u6770
p2299
I2
sV\u670d\u52a1
p2300
I140
sV\u56de\u4e0d\u6765
p2301
I2
sV\u4e94\u56db
p2302
I2
sVJust
p2303
I2
sV\u5bb6\u91cc
p2304
I2
sVp
I8
sV\u4f9d\u65e7
p2305
I2
sV\u8fd0\u8425\u5546
p2306
I90
sV\u7535\u5b50\u90ae\u4ef6
p2307
I4
sV\u6cd5\u56fd\u7535\u4fe1
p2308
I4
sV\u514b\u5236
p2309
I2
sV\u5904\u4e8e
p2310
I6
sV\u8868\u8fbe
p2311
I2
sV\u5c11\u5e74
p2312
I2
sV\u6beb\u5b89
p2313
I2
sV\u65e9\u5df2
p2314
I2
sV\u6cea\u82b1
p2315
I2
sV\u591a\u5c42
p2316
I6
sV\u9996\u53d1
p2317
I2
sV\u6218\u4e89
p2318
I22
sVOrange
p2319
I8
sV\u7814\u7a76\u7ec4
p2320
I2
sV\u4e0d\u662f\u6545\u610f
p2321
I2
sV\u65e0\u7ebf\u7535\u6ce2
p2322
I2
sV\u7528\u5de5
p2323
I2
sV\u66dd\u51fa
p2324
I2
sV\u540d\u5b57
p2325
I4
sVSH
p2326
I2
sV\u529b\u63a8
p2327
I2
sV\u4e00\u90e8\u5206
p2328
I2
sV\u963f
I2
sV\u5236\u9020\u5546
p2329
I4
sV\u4f5c\u51fa\u53cd\u5e94
p2330
I2
sV\u79fb\u51fa
p2331
I2
sV\u89e6\u6478\u677f
p2332
I2
sV\u6234\u514b
p2333
I2
sV\u591a\u5c11
p2334
I18
sV\u60f3\u60f3
p2335
I2
sV\u5962\u534e
p2336
I2
sV\u5904\u4ee5
p2337
I2
sV\u5f53\u4eca
p2338
I2
sV\u94b1\u8d22
p2339
I2
sV431
p2340
I4
sV\u5361\u5361
p2341
I2
sV\u73a9\u8d77\u6765
p2342
I2
sV\u6162\u6027\u75c5
p2343
I2
sV\u6700\u5c0f
p2344
I2
sV\u6bcf\u80a1
p2345
I4
sV\u52a9\u60a8
p2346
I2
sV\u5351\u5fae
p2347
I2
sV\u514b\u670d
p2348
I4
sV\u4e00\u65e0\u4e8c
p2349
I2
sV\u949e\u7968
p2350
I2
sVlive
p2351
I2
sV\u4e3a\u671f
p2352
I2
sV\u9650\u91cf\u7248
p2353
I4
sV\u5e84\u5bb6
p2354
I2
sV\u7532\u7ea7\u8054\u8d5b
p2355
I2
sV\u5e7b\u60f3
p2356
I4
sV15.32
p2357
I2
sVF
I4
sV\u4e89\u5411
p2358
I2
sV\u9769\u65b0
p2359
I4
sV\u624b\u8868
p2360
I4
sV\u6d41\u91cf
p2361
I22
sV\u55dc\u8840
p2362
I4
sV\u4e00\u5207\u90fd\u662f
p2363
I4
sV\u632b\u6298
p2364
I6
sV\u8def\u8fdc
p2365
I2
sVMMX
p2366
I2
sV\u65b9\u6cd5
p2367
I8
sV\u4e2d\u56fd\u8054\u901a
p2368
I16
sV\u5173\u95e8
p2369
I2
sVcan
p2370
I2
sV\u5173\u95ed
p2371
I16
sV\u51fa\u4e16
p2372
I2
sV\u6700\u9ad8\u5cf0
p2373
I2
sV\u4e50\u7f8e
p2374
I2
sV\u5165\u5e93
p2375
I2
sV\u5fc3\u810f
p2376
I4
sV\u661f\u5973
p2377
I2
sViPhone4
p2378
I2
sViPhone5
p2379
I24
sV\u5f0f
I8
sV\u80af\u5fb7\u57fa
p2380
I2
sV\u957f\u9014
p2381
I2
sV\u5e9e\u57f9
p2382
I2
sV\u90a6
I2
sV\u8c03\u89e3
p2383
I2
sV\u540c\u6bd4
p2384
I4
sV\u6838\u8f90\u5c04
p2385
I2
sV\u5173\u952e
p2386
I4
sV\u8fdb\u6b65
p2387
I6
sV\u7537\u5b50
p2388
I4
sV\u51fa\u4ed3
p2389
I2
sV\u4e13\u8bbf
p2390
I2
sV\u9884\u6d4b
p2391
I2
sV\u8c1c\u9898
p2392
I2
sV\u6c38\u6052
p2393
I2
sV\u7f8e\u56fd
p2394
I212
sV\u516c\u5e73\u6b63\u4e49
p2395
I2
sV\u7cbe\u795e
p2396
I4
sV\u51fa\u4e8b
p2397
I2
sV\u6324\u5165
p2398
I2
sV\u62d3\u5c55
p2399
I8
sV\u6210\u4e66
p2400
I48
sV\u611a\u8005
p2401
I4
sV\u8def\u75f4
p2402
I2
sV\u7ed3\u8bba
p2403
I2
sV\u8d1f\u8d23\u4eba
p2404
I2
sV\u7f8e\u597d\u4e8b\u7269
p2405
I2
sV\u9996\u5148
p2406
I10
sV\u663e\u9732
p2407
I2
sV\u90c1\u90c1\u5be1\u6b22
p2408
I2
sV\u6709\u79cd
p2409
I2
sV\u629b
I2
sVRT
p2410
I6
sV\u5305\u62ec
p2411
I46
sV\u9500\u552e
p2412
I70
sV\u96c6\u56e2
p2413
I12
sV\u6784\u67b6
p2414
I4
sV\u4f5c\u7528
p2415
I4
sV\u53e3\u888b
p2416
I2
sV\u6850\u4eba
p2417
I4
sV\u5949\u732e
p2418
I2
sV\u79cd
I6
sV\u53ef\u9041
p2419
I2
sV\u5357\u5317
p2420
I2
sV\u6c49\u5821
p2421
I2
sV\u6709\u798f
p2422
I2
sVnot
p2423
I2
sVTower
p2424
I2
sV\u7279\u8272
p2425
I6
sV\u4fdd\u4fee
p2426
I2
sVMacRumors
p2427
I4
sV\u7f51\u5361
p2428
I2
sVQ2
p2429
I2
sV\u7ed3\u8bc6
p2430
I2
sV\u602a\u517d
p2431
I6
sV\u4e03
I2
sV\u592a\u7a7a
p2432
I2
sV\u63aa\u65bd
p2433
I8
sV\u5c0f
I130
sV\u6ca1\u4eba\u4f1a
p2434
I2
sV3300
p2435
I2
sV\u4e3b\u6253
p2436
I4
sV\u95fa\u871c
p2437
I12
sV\u5b98\u65b9\u7f51\u7ad9
p2438
I4
sV\u806a\u660e
p2439
I60
sV\u4e94\u540d
p2440
I2
sV\u591a\u5e74
p2441
I2
sV\u5929\u8863\u65e0\u7f1d
p2442
I2
sV\u5341\u5206\u4e4b\u4e00
p2443
I2
sV\u73af\u5883
p2444
I54
sV\u8bdd\u9898
p2445
I56
sV\u4e3b\u4eba\u516c
p2446
I2
sV\u552f\u4e00
p2447
I6
sV\u4e0a\u8bfe\u65f6
p2448
I2
sV\u6b66\u5668
p2449
I6
sVcare
p2450
I2
sV\u901a\u7528
p2451
I2
sV\u5341\u4e8c\u6708
p2452
I2
sV\u6700\u5feb
p2453
I4
sV\u5927\u5927\u63d0\u9ad8
p2454
I2
sV\u6c34\u716e
p2455
I2
sV\u6ce2\u591a\u9ece\u5404
p2456
I4
sV\u751f\u7269
p2457
I6
sV\u501f\u6b64
p2458
I2
sV\u5927\u67cf\u6811
p2459
I2
sV\u6444\u50cf\u5934
p2460
I20
sVEven
p2461
I2
sV\u8f83
I4
sV\u5343\u767e\u4e2a
p2462
I4
sV\u4e4b\u4e2d
p2463
I6
sV\u6d88\u8d39\u7a0e
p2464
I2
sV\u7a7a\u51fa
p2465
I2
sV\u4e4b\u4e00
p2466
I6
sV\u88ad
I4
sV\u82b1
I4
sV\u5b9e\u4e60\u751f
p2467
I2
sV\u5f13\u7bad\u624b
p2468
I2
sV\u53bb
I108
sV\u653e\u5f03
p2469
I20
sV\u8ba8\u8bba
p2470
I4
sVthat
p2471
I2
sV\u8fdb\u699c
p2472
I2
sVNBC
p2473
I2
sV\u6587\u5782
p2474
I2
sV\u7f8e\u5473
p2475
I2
sV\u7a81\u7834
p2476
I18
sV\u65b0\u534e\u8def
p2477
I2
sV\u75db
I6
sV\u6743\u5229
p2478
I2
sV\u7537\u5973
p2479
I2
sV\u5de5\u4f5c\u91cf
p2480
I2
sV\u9c7c\u9f99\u6df7\u6742
p2481
I48
sV\u8f69\u8f95\u5251
p2482
I2
sV\u79fb\u52a8
p2483
I252
sV\u661f\u7403
p2484
I6
sV\u53ea\u4e0d\u8fc7
p2485
I2
sV\u5feb\u5feb\u4e50\u4e50
p2486
I2
sV\u9891\u4e34
p2487
I2
sV\u4e00\u5c01\u4fe1
p2488
I2
sV\u7535\u4fe1\u4e1a
p2489
I2
sV\u591a\u5f69
p2490
I2
sV\u5165\u5c40
p2491
I4
sVUSIM
p2492
I2
sV\u653e\u5f97
p2493
I2
sV\u60b2
I2
sV\u8ddf\u8e2a
p2494
I2
sV\u653b\u9632
p2495
I2
sV\u9677\u5165
p2496
I4
sV\u679d\u5934
p2497
I2
sV\u6293\u83b7
p2498
I2
sV\u5927\u697c
p2499
I4
sV\u6210\u957f
p2500
I8
sV\u53cb\u597d
p2501
I2
sV\u9ed1
I98
sV\u5f3a\u70c8
p2502
I4
sV\u4e0d\u7518\u5bc2\u5bde
p2503
I2
sV\u591a\u5f20
p2504
I2
sV\u800c\u7acb
p2505
I2
sV\u8fd9\u4e09\u5bb6
p2506
I2
sV\u62b5\u7528
p2507
I48
sV\u5730\u56fe\u8bbe\u8ba1
p2508
I2
sV\u6f02
I2
sV\u5f00\u53d1\u4eba\u5458
p2509
I6
sV\u8d62\u5bb6
p2510
I6
sVKOMI
p2511
I4
sV\u89d2\u529b
p2512
I2
sV\u5ef6\u957f
p2513
I6
sV\u975e\u5e38\u9002\u5408
p2514
I4
sV\u60b2\u4f24
p2515
I4
sVOutbaze
p2516
I2
sV\u6700\u5927
p2517
I122
sVPC
p2518
I268
sV\u8fdc\u8fdc\u5730
p2519
I2
sV\u65e0\u7591
p2520
I6
sV\u65c5\u6e38
p2521
I4
sVOMAP
p2522
I2
sV\u7838
I2
sVFlotia
p2523
I4
sV\u8981\u7d20
p2524
I2
sV\u7784\u51c6
p2525
I6
sV\u62a2\u8d2d
p2526
I102
sV\u4e00\u5ba1\u5224\u51b3
p2527
I2
sV\u542c\u89c9
p2528
I2
sV\u5450
I2
sV\u534e\u4e3a
p2529
I140
sV\u865a\u62df
p2530
I4
sV\u534e\u4e3d
p2531
I10
sV\u77a9\u76ee
p2532
I2
sV\u7cca\u6d82
p2533
I2
sVInstagram
p2534
I8
sV\u7eb8\u724c
p2535
I6
sV\u8fd9\u6b21
p2536
I24
sV\u7ebf\u6216
p2537
I2
sV\u60f3
I90
sV\u767d\u53d1\u82cd\u82cd
p2538
I2
sV\u8fd9\u6b3e
p2539
I60
sV\u6700\u597d
p2540
I6
sV\u7535\u8bdd
p2541
I18
sV\u65e0\u7528
p2542
I8
sV\u5916\u754c
p2543
I2
sV\u751f\u7406
p2544
I2
sV\u9898\u6750
p2545
I8
sV\u683c\u62c9\u65af
p2546
I2
sV\u5192\u9669\u7c7b
p2547
I6
sV\u670b\u53cb
p2548
I40
sV\u6253\u7b97
p2549
I8
sV\u4fdd\u536b\u6218
p2550
I4
sV3
I214
sV\u8d8a\u6765\u8d8a
p2551
I72
sV\u6709\u7f18
p2552
I2
sV\u53cd\u5c04
p2553
I2
sV\u9002\u914d
p2554
I6
sV\u6de1\u84dd\u8272
p2555
I2
sV\u5361\u4e2d
p2556
I2
sV\u5373\u5c06\u6765\u4e34
p2557
I2
sV\u5224\u51b3
p2558
I6
sV\u5bb6\u957f
p2559
I4
sV\u4e8b\u60c5
p2560
I26
sV\u7389\u7c73\u7c92
p2561
I2
sV\u4eec
I88
sV\u52a0\u591a\u5b9d
p2562
I4
sV\u7389\u5c71
p2563
I2
sV\u53ef\u80fd\u6027
p2564
I6
sV\u547c\u53eb\u5668
p2565
I4
sV\u524d\u4e70
p2566
I2
sVDeath
p2567
I4
sV\u90aa\u6076
p2568
I4
sV\u54af
I2
sVcares
p2569
I2
sV\u57fa\u7840
p2570
I8
sVBeta
p2571
I8
sV\u9a91\u624b
p2572
I2
sV\u5317\u65b9
p2573
I2
sV\u7206\u53d1
p2574
I2
sV\u795e\u5dde
p2575
I2
sV\u5ef6\u7eed
p2576
I2
sV\u6bcd\u516c\u53f8
p2577
I2
sV\u7f3a\u9677
p2578
I8
sV\u8fdd\u6cd5\u884c\u4e3a
p2579
I4
sV\u7ae5\u978b
p2580
I8
sVUFO
p2581
I2
sVmight
p2582
I4
sV\u8f6c
I18
sV\u6ca1\u6cd5
p2583
I2
sV\u804a\u5929
p2584
I4
sVOEM
p2585
I2
sV\u5355\u7a0b\u7968
p2586
I2
sV\u4f5c\u7269
p2587
I2
sV\u8c01
I48
sV\u5145\u5206
p2588
I2
sV\u5e74\u8f7b\u4eba
p2589
I4
sV\u5730\u4e0a
p2590
I2
sV\u6700\u80fd\u4f53\u73b0
p2591
I2
sV\u6216\u662f
p2592
I4
sV\u661f\u7237
p2593
I2
sV\u53ca\u5176
p2594
I2
sV\u4e2d
I406
sV\u5927\u5927\u7684
p2595
I2
sV\u5bc6\u7801
p2596
I6
sV\u5927\u6f6e
p2597
I2
sV\u975e\u4f46
p2598
I2
sV\u773c\u524d
p2599
I2
sV\u8d1d\u58f3
p2600
I2
sVTelecom
p2601
I2
sV\u6781\u54c1\u98de\u8f66
p2602
I2
sV\u5435\u67b6
p2603
I2
sV\u613f\u610f
p2604
I58
sV\u4e00\u4e2a\u6708
p2605
I4
sV\u8d58\u8ff0
p2606
I2
sV\u767d
I2
sVSDI
p2607
I8
sVSDK
p2608
I4
sV\u6cd5\u773c
p2609
I2
sV\u4e2d\u56fd\u82af
p2610
I2
sV\u5927\u6cb3
p2611
I2
sVNectarine
p2612
I48
sV\u8fd1\u573a
p2613
I6
sV\u5c71\u4e1c
p2614
I48
sV\u4f34\u968f
p2615
I2
sV\u5e02
I4
sVtouch
p2616
I4
sV\u5c71\u4e0a
p2617
I2
sV\u5feb\u611f
p2618
I2
sVCuomo
p2619
I2
sV\u767e\u53d8
p2620
I2
sV12675
p2621
I2
sV\u4eab
I8
sV\u53d8\u5f02\u6027
p2622
I2
sV\u65e0\u77e5
p2623
I2
sV\u8f93\u6db2
p2624
I2
sV\u5c4c
I10
sV\u4efb\u9510\u5ff1
p2625
I2
sV\u4fe1\u7b3a
p2626
I2
sV\u5b89\u5154\u5154
p2627
I2
sV\u5f31\u5c0f
p2628
I4
sViphone5
p2629
I2
sV\u73a9\u7535\u8111
p2630
I2
sV\u54cd\u5e94\u901f\u5ea6
p2631
I2
sV\u542c\u8bf4
p2632
I2
sVt
I4
sV\u5e03\u62c9\u8fea
p2633
I2
sVTrejo
p2634
I2
sV\u534a\u6570\u4ee5\u4e0a
p2635
I2
sV\u5237\u5361
p2636
I4
sV\u7ecf\u8425
p2637
I20
sV\u96be\u602a
p2638
I2
sV\u5e78\u5b58\u8005
p2639
I2
sV\u7535\u89c6
p2640
I278
sV\u51b2\u4e0b
p2641
I2
sV\u5177\u5907
p2642
I2
sV\u9ed1\u5ba2\u653b\u51fb
p2643
I2
sV\u56db\u5206\u4e4b\u4e00
p2644
I2
sV\u5b89\u6b47
p2645
I2
sVP1801
p2646
I2
sV\u7535\u78c1\u6ce2
p2647
I2
sV\u6309\u7167
p2648
I2
sV\u53ef\u5151\u6362
p2649
I2
sV\u7248\u5219
p2650
I48
sV\u6781\u7a84
p2651
I2
sV\u5929\u7ffc\u5361
p2652
I2
sV\u62df\u5411
p2653
I2
sV\u59d1\u59d1
p2654
I2
sV\u59a5\u534f
p2655
I2
sV\u76d1\u7ba1\u90e8\u95e8
p2656
I48
sV\u73cd\u60dc
p2657
I4
sVStory
p2658
I4
sV\u611f\u541b\u601c
p2659
I2
sV\u6253\u7834
p2660
I6
sV\u80a1\u4e1c\u5927\u4f1a
p2661
I2
sV\u89c2\u5bdf
p2662
I6
sVyour
p2663
I4
sVStore
p2664
I30
sV\u7f62\u4e86
p2665
I4
sV\u5176\u4ed6\u4eba
p2666
I4
sV\u5f7b\u5934\u5f7b\u5c3e
p2667
I2
sV\u9996\u5468
p2668
I2
sVAndroid4
p2669
I12
sV\u69ab\u536f
p2670
I2
sV\u6bc1\u6389
p2671
I6
sV\u7cbe\u7f8e
p2672
I58
sV\u7269\u54c1
p2673
I6
sV\u95ea\u8000
p2674
I2
sV\u62c9
I8
sV\u5750
I4
sV\u660e\u57fa
p2675
I2
sV\u5154
I4
sV\u62a2\u8d2d\u4e00\u7a7a
p2676
I2
sV\u65e0\u76ca
p2677
I2
sV\u7206\u51fa
p2678
I6
sV\u4e00\u773c
p2679
I2
sV\u5e76
I270
sV\u4eb2\u4eec
p2680
I2
sV\u591a\u5bb6
p2681
I10
sV\u76f8\u5f53\u4e8e
p2682
I4
sV\u8fd9\u6837
p2683
I24
sV\u5224\u5211
p2684
I2
sV600
p2685
I4
sV\u6539\u5584
p2686
I2
sV\u7b2c\u4e8c\u5b63\u5ea6
p2687
I6
sV\u88ab\u76d7
p2688
I2
sV\u96f6\u4ef6
p2689
I4
sV\u795d\u4f60\u5e78\u798f
p2690
I2
sV\u53f0
I58
sVCenter
p2691
I2
sV\u4eb2\u4e34
p2692
I2
sV\u4e09\u5929
p2693
I4
sV\u9ec4\u767d\u8272
p2694
I2
sVJake
p2695
I2
sV\u77e5\u8bc6
p2696
I50
sVLab
p2697
I2
sV\u6a2a\u7248
p2698
I4
sV\u57fa\u7ad9
p2699
I4
sV\u5960\u5b9a
p2700
I2
sV\u544a\u77e5
p2701
I4
sVyou
p2702
I30
sVTestin
p2703
I4
sV\u63ed\u793a
p2704
I2
sV\u9886\u8dd1
p2705
I2
sV\u8ffd\u6094\u83ab\u53ca
p2706
I2
sV\u4e3b\u673a
p2707
I6
sV\u7f6a\u6076
p2708
I2
sV\u9605\u8bfb\u5668
p2709
I6
sV\u5929\u65f6
p2710
I4
sV\u4e24\u96be
p2711
I2
sV\u6253\u78e8
p2712
I2
sV\u8584\u5229\u591a\u9500
p2713
I2
sV\u5b63
I6
sV\u540d\u5c06
p2714
I4
sV\u559c\u7231
p2715
I2
sV\u98de\u884c\u5668
p2716
I6
sV\u83b7\u6089
p2717
I8
sV\u6307\u63a7
p2718
I8
sV\u5730\u94c1
p2719
I22
sV\u997f
I2
sV\u5fc5\u8bfb
p2720
I4
sV\u62b1\u6028
p2721
I8
sV\u8868\u60c5
p2722
I4
sV\u4e0a\u699c
p2723
I4
sV\u3000
I14
sV\u8ddf\u8fdb
p2724
I2
sV\u574e\u666e
p2725
I2
sV\u7b2c\u4e09\u4ee3
p2726
I4
sV\u5343\u4e07
p2727
I56
sV\u53ef\u8a00
p2728
I2
sV\u5360\u5230
p2729
I2
sV\u771f\u5b9e\u4e16\u754c
p2730
I2
sV\u5014\u5f3a
p2731
I14
sV\u8bdf\u75c5
p2732
I4
sV\u9996\u4e2a
p2733
I6
sV\u53d6\u957f\u8865\u77ed
p2734
I2
sV\u7ecf\u9a8c
p2735
I4
sV\u4f2a
I48
sV\u722c
I6
sVParallel
p2736
I2
sV\u4ebf
I28
sV\u699c\u9996
p2737
I6
sV\u62cd\u7167
p2738
I8
sV\u5929\u7a7a
p2739
I12
sV\u5e7f\u5dde
p2740
I2
sV\u4e16\u4e8b
p2741
I2
sV\u63cd
I2
sV\u7f29\u6c34
p2742
I2
sV\u94dd\u5236
p2743
I2
sV\u5b89\u8d2b\u4e50\u9053
p2744
I2
sV\u8868\u9762
p2745
I2
sV\u77ed\u4fe1
p2746
I20
sV\u611f\u5174\u8da3
p2747
I2
sV\u6362
I6
sV\u7f51\u7ad9
p2748
I148
sV\u76ef
I2
sV\u62ab\u9732
p2749
I6
sV\u8db3\u591f
p2750
I4
sV\u4e16\u4eba
p2751
I2
sV\u5403
I10
sV\u7684
I6468
sV\u6709\u635f
p2752
I2
sV\u5a92\u4f53\u62a5\u9053
p2753
I50
sV\u81ea\u5bb6
p2754
I2
sV\u6df7\u5408\u4f53
p2755
I48
sV\u4fbf\u643a\u5f0f
p2756
I2
sV\u4fb5\u6743
p2757
I16
sV\u83ab\u8fc7\u4e8e
p2758
I2
sV94.6
p2759
I2
sV\u5931
I2
sV\u53cd\u5e94
p2760
I52
sV\u6837\u5b50
p2761
I2
sV\u65c1\u8fb9
p2762
I6
sV\u52b3\u5de5
p2763
I2
sV\u7a81\u4e34
p2764
I2
sV\u4e16\u4e0a
p2765
I6
sV\u6d41\u884c
p2766
I4
sVSprings
p2767
I2
sV\u98ce\u683c
p2768
I18
sV11.88
p2769
I2
sV\u600e\u4e48
p2770
I60
sV\u9632\u7a83\u542c
p2771
I2
sV\u5047\u60f3
p2772
I2
sV\u5e76\u6709
p2773
I2
sV\u8d76\u4e0a
p2774
I2
sV\u8001\u592a\u592a
p2775
I2
sV\u95ee
I16
sV\u5927\u7247
p2776
I2
sV\u58f0
I2
sV\u9999\u5df4\u62c9
p2777
I4
sV\u5927\u724c
p2778
I2
sVS3
p2779
I2
sV\u6bad
I4
sV\u5f53\u5730
p2780
I60
sVS4
p2781
I16
sV\u7f51\u7ba1
p2782
I48
sV\u7f8e\u4e3d
p2783
I4
sV\u6728\u9a6c
p2784
I2
sV\u5750\u7535\u68af
p2785
I2
sV\u5404\u4e2a
p2786
I12
sV\u671d\u9633
p2787
I2
sV\u762b\u75ea
p2788
I4
sV\u4e2a
I146
sV\u4e4b\u540e
p2789
I84
sV\u7b2c\u4e00\u5b63\u5ea6
p2790
I2
sV\u6548\u679c\u56fe
p2791
I4
sV\u6885\u897f
p2792
I2
sVFCC
p2793
I4
sV\u82f9\u679c
p2794
I462
sV\u70ed\u7ebf
p2795
I2
sV\u5e74\u6765
p2796
I4
sV\u4fbf
I66
sVAMOLED
p2797
I4
sV\u62cd
I2
sV\u6628\u5929
p2798
I12
sV\u5f17\u5409\u5c3c\u4e9a
p2799
I2
sV\u670d\u52a1\u5e73\u53f0
p2800
I2
sV\u82f1\u91cc
p2801
I2
sV\u5176\u5b83
p2802
I8
sV\u6628\u591c
p2803
I2
sV\u8d27\u8fd0
p2804
I2
sV\u6559\u5ba4
p2805
I2
sV\u51b2\u51fb
p2806
I2
sV\u5f55\u50cf
p2807
I2
sV\u5b98\u65b9
p2808
I66
sV\u5e74\u672b
p2809
I4
sV\u767d\u724c
p2810
I2
sV\u603b\u7ecf\u7406
p2811
I2
sV\u5fb7\u5dde\u4eea\u5668
p2812
I2
sV\u5176\u5b9e
p2813
I56
sV\u9001
I200
sV\u5e72\u574f\u4e8b
p2814
I2
sVIBM
p2815
I10
sV746
p2816
I2
sV\u5de6\u65b9
p2817
I2
sV\u820d
I2
sV\u4e09\u5b63\u5ea6
p2818
I2
sV\u4e00\u5b9a
p2819
I30
sV\u6709\u6240
p2820
I6
sV\u547c\u53eb
p2821
I4
sV\u7ec8\u8bc4
p2822
I2
sV\u53ef\u8ba9
p2823
I2
sV\u6539\u6b63\u9519\u8bef
p2824
I2
sV\u55b7\u6c14\u673a
p2825
I2
sV\u7f8e\u4e9a
p2826
I8
sV\u4e00\u5bb6
p2827
I64
sV\u53d7\u6b22\u8fce
p2828
I8
sV\u73b0\u8eab
p2829
I4
sVPolaris
p2830
I4
sV\u5b8f\u5927
p2831
I2
sV\u8054\u673a
p2832
I2
sV\u8d8a\u8fd1
p2833
I2
sVN880E
p2834
I4
sV\u6d53
I2
sV\u5341\u5b57
p2835
I2
sVa
I8
sV\u8eb2\u907f
p2836
I4
sVOGS
p2837
I2
sV\u77ac\u95f4
p2838
I4
sV\u5916\u6b3e
p2839
I2
sV\u89e6\u89c9
p2840
I2
sVSlots
p2841
I2
sV\u4e00\u5bf9
p2842
I2
sV\u716e\u86cb
p2843
I2
sV\u5496\u5561\u9986
p2844
I2
sV\u4ec0\u4e48
p2845
I166
sV\u53cc\u8272
p2846
I2
sV\u5316
I14
sV\u843d\u9a6c
p2847
I2
sV\u53d8\u5f97
p2848
I10
sV\u6587\u4ef6
p2849
I16
sV\u672b\u65e5
p2850
I2
sV\u52c7\u5f80\u76f4\u524d
p2851
I2
sVGHz
p2852
I24
sV\u80cc\u5149
p2853
I4
sV\u4e00\u5835
p2854
I2
sV\u57fa\u672c
p2855
I2
sV\u51fa\u552e
p2856
I4
sV\u4e00\u6574\u5957
p2857
I2
sV\u529b\u795e
p2858
I6
sV\u5bf9\u89e6
p2859
I2
sV\u4f0f\u51fb\u6218
p2860
I2
sV\u4eb2\u53cb
p2861
I2
sVB5105c
p2862
I2
sV\u632f\u52a8
p2863
I2
sV\u5e94\u7528\u7a0b\u5e8f
p2864
I22
sV\u5b9e\u7528
p2865
I2
sV\u51e0\u8fd1
p2866
I2
sV\u68a6\u5e7b\u822c
p2867
I2
sV\u5723\u8bde
p2868
I14
sV\u7687\u51a0
p2869
I4
sV\u5bf9\u89d2
p2870
I2
sV\u5546\u6807\u5c40
p2871
I8
sV\u5e73\u53f0
p2872
I100
sV\u53e4\u602a
p2873
I4
sV\u6e34\u671b
p2874
I2
sV\u89d2\u8272
p2875
I20
sV\u4ec5\u6b21\u4e8e
p2876
I2
sV\u53d8\u5f02
p2877
I10
sV\u5185\u5fc3
p2878
I4
sV\u518d\u5ea6
p2879
I50
sV\u6df1\u5904
p2880
I4
sVHSPA
p2881
I2
sV\u63d0\u95ee
p2882
I2
sV\u5973\u795e
p2883
I52
sV\u53e6\u4e00\u5bb6
p2884
I2
sV\u6525
I2
sV\u5747
I14
sV\u90a3\u6837
p2885
I4
sV\u80fd\u591f
p2886
I84
sV7
I122
sV\u4f11\u95f2\u6d3b\u52a8
p2887
I2
sV\u52a0\u7d27
p2888
I2
sV\u957f\u4e45\u6027
p2889
I2
sV\u624b
I8
sV\u7535\u78c1\u7089
p2890
I6
sVreason
p2891
I2
sV\u4f24\u4eba
p2892
I4
sV\u6709\u610f
p2893
I2
sV\u51fa\u8d27\u91cf
p2894
I4
sV\u76d8
I6
sV\u8d31\u4eba
p2895
I2
sV\u4e4b\u57ce
p2896
I12
sV\u6307\u7eb9
p2897
I8
sV\u4eca\u5929
p2898
I100
sV\u96c6\u4e2d
p2899
I6
sV\u662f\u56e0\u4e3a
p2900
I14
sV\u73b0\u5982\u4eca
p2901
I2
sV\u4e00\u5904
p2902
I4
sV\u5ba3\u4f20
p2903
I58
sV\u8d21\u732e
p2904
I4
sVMaps
p2905
I6
sV\u8f93
I8
sV\u6709\u60c5
p2906
I2
sV\u7a83\u53d6
p2907
I2
sV\u6d6a\u8d39
p2908
I2
sV\u4e0d\u4ec5\u4ec5
p2909
I2
sV\u59bb\u5b50
p2910
I4
sV\u4e00\u5927
p2911
I4
sV\u7981\u4e0d\u4f4f
p2912
I2
sV\u5f00\u73a9\u7b11
p2913
I2
sV\u4e00\u5929
p2914
I22
sV\u63a2\u6d4b
p2915
I2
sV\u4e00\u5934
p2916
I2
sV\u90ae\u7bb1
p2917
I6
sVhundred
p2918
I2
sV\u8fd0\u884c
p2919
I20
sV\u4e3b\u7ba1
p2920
I6
sV\u632a\u5a01\u8bed
p2921
I2
sV\u4e00\u5957
p2922
I2
sV\u80a1\u4ef7
p2923
I52
sV\u6b27\u7f8e
p2924
I2
sV1910
p2925
I2
sV\u80a1\u4efd
p2926
I2
sV\u7ebf\u7d22
p2927
I50
sV\u5b17\u53d8
p2928
I2
sV\u88ab\u8a89\u4e3a
p2929
I2
sV\u9057\u4f20
p2930
I2
sV\u6781\u672c
p2931
I48
sV\u73b0\u8c61
p2932
I2
sV\u6210\u5e74\u4eba
p2933
I2
sV\u975e\u51e1
p2934
I4
sV\u60b2\u60e8
p2935
I2
sV\u620f\u8c11
p2936
I2
sV\u5f55\u5236
p2937
I8
sV\u624b\u673a\u7535\u6c60
p2938
I2
sV\u5f00\u6e90
p2939
I2
sV\u70df\u8349
p2940
I2
sV\u706b\u901f
p2941
I2
sV\u6740\u5668
p2942
I2
sV\u51fa\u54c1
p2943
I6
sV\u53ef\u89c1
p2944
I48
sV\u7ade\u4e89\u5bf9\u624b
p2945
I6
sVBrady
p2946
I2
sVChien
p2947
I2
sV\u4ea1\u547d
p2948
I2
sV\u5929\u79e4
p2949
I4
sVSTORE
p2950
I2
sV\u5bfc\u6f14
p2951
I2
sV\u505a\u8d77
p2952
I2
sV\u77db\u5934
p2953
I4
sV\u5931\u53bb
p2954
I14
sV\u5237\u4e0b
p2955
I2
sV\u8010\u5fc3
p2956
I2
sV\u90fd\u884c
p2957
I2
sVSMILE
p2958
I2
sV\u6697\u53f9
p2959
I2
sV\u8ba9\u73a9\u5bb6
p2960
I6
sV\u64cd\u4f5c\u7cfb\u7edf
p2961
I82
sV\u6765\u81ea
p2962
I40
sV1260
p2963
I2
sV\u65e0\u6daf
p2964
I2
sViTunes
p2965
I22
sV\u62fe\u53d6
p2966
I2
sV\u904f\u5236
p2967
I2
sV\u878d\u8d44
p2968
I8
sV\u955c\u5934
p2969
I2
sV\u6c7d\u8f66\u884c\u4e1a
p2970
I2
sV\u5f53\u521d
p2971
I4
sV\u5de5\u7a0b\u5e08
p2972
I6
sV\u8f6c\u8f6e
p2973
I2
sV\u4eae\u5ea6
p2974
I2
sV\u907f\u98ce\u6e2f
p2975
I2
sV\u9605\u8bfb
p2976
I4
sV\u6740\u51fa
p2977
I2
sV\u65b0\u95fb\u62a5\u9053
p2978
I4
sV\u77e5\u9053
p2979
I18
sV\u5440
I2
sV\u9b45\u65cf
p2980
I30
sV\u540c\u4e00\u4e2a
p2981
I2
sV\u96f6\u552e
p2982
I4
sV\u9a71\u52a8
p2983
I4
sV\u5185\u5916
p2984
I2
sV\u795e
I4
sV\u7edf\u8ba1\u6570\u636e
p2985
I6
sV\u6750\u6599
p2986
I50
sV\u575a\u4fe1
p2987
I2
sV\u82e5\u771f
p2988
I48
sV\u5f53\u524d
p2989
I10
sV\u6001\u52bf
p2990
I2
sV\u8eab\u5fc3
p2991
I2
sVIpad
p2992
I2
sV\u673a\u67aa
p2993
I2
sV\u751f\u6c14
p2994
I2
sV\u51fa\u53e3
p2995
I6
sV\u6ca1\u7535
p2996
I2
sV\u4f2f\u7259
p2997
I2
sV\u903b\u8f91\u63a8\u7406
p2998
I2
sV\u4e16\u754c\u672b\u65e5
p2999
I4
sV\u989c\u8272
p3000
I6
sV\u4e00\u5ea7
p3001
I8
sV\u5bfb\u6c42
p3002
I2
sV\u673a\u6784
p3003
I22
sV\u4e8c\u4eba
p3004
I2
sV\u7269\u4f53
p3005
I2
sV\u7279\u6b8a\u4eba\u7fa4
p3006
I2
sV\u53d8\u5927
p3007
I2
sV\u9047\u4e0a
p3008
I4
sV\u771f\u662f
p3009
I52
sV\u9910\u5385
p3010
I6
sV\u6709\u6765
p3011
I2
sV\u51fa\u53d1
p3012
I4
sV\u6559\u5e08
p3013
I2
sV\u6709\u671b
p3014
I20
sV\u6837\u5f20
p3015
I2
sV\u89d2\u843d
p3016
I4
sV\u4e3e\u6b65\u7ef4\u8270
p3017
I2
sV\u51fa\u53bb
p3018
I4
sV\u51e0\u5398\u7c73
p3019
I48
sV\u6536\u62fe
p3020
I2
sV\u5468\u77e5
p3021
I48
sV\u8fd0\u8f93
p3022
I4
sV\u5e78\u798f
p3023
I22
sV\u5b9e\u73b0
p3024
I30
sV\u4e0a\u6d77
p3025
I6
sV\u7ebd\u7ea6\u5dde
p3026
I4
sV\u8bf8\u591a
p3027
I4
sV\u53d8\u597d
p3028
I2
sV\u4f2f\u7235
p3029
I4
sV\u4e00\u5f00
p3030
I2
sV\u673a\u662f
p3031
I2
sVMr
p3032
I2
sVConsortium
p3033
I2
sV\u4fe1\u606f
p3034
I28
sV\u5360\u5730
p3035
I2
sV\u8fd1\u671f
p3036
I16
sVOnline
p3037
I4
sV\u4e0d\u80fd
p3038
I26
sV\u81ea\u5e26
p3039
I4
sV\u521a
I4
sV\u4e00\u5f20
p3040
I64
sV\u6cdb\u6cf0
p3041
I6
sV.58.
p3042
I2
sV\u5230\u8fbe
p3043
I4
sV\u6df1\u5ea6
p3044
I2
sV\u4ebf\u6b3e
p3045
I2
sV\u5ac9\u5992
p3046
I2
sV\u800c\u5df2
p3047
I2
sV\u4e0d\u80af
p3048
I2
sV\u72b9\u8c6b\u4e0d\u51b3
p3049
I2
sV\u6570\u636e\u7cfb\u7edf
p3050
I2
sV\u4ebf\u6b21
p3051
I4
sV\u60e8\u75db
p3052
I2
sVMC
p3053
I10
sV\u91d1\u7a57
p3054
I2
sV\u4e09\u5e74\u7ea7
p3055
I2
sV\u6c34\u6ef4
p3056
I2
sV\u7ba1\u7406\u5c40
p3057
I10
sVwhile
p3058
I2
sV\u505c\u6b62
p3059
I12
sV\u65e0\u6cd5
p3060
I18
sV\u6458\u81ea
p3061
I2
sV\u6302\u51fa
p3062
I2
sV\u517c\u5bb9\u6027
p3063
I6
sV10000
p3064
I8
sV\u6dc5\u6dc5\u6ca5\u6ca5
p3065
I2
sV\u88c1\u5b9a
p3066
I2
sV\u6570\u91cf
p3067
I116
sVLITTLE
p3068
I2
sV\u751f\u6d3b
p3069
I52
sV\u771f\u673a
p3070
I8
sV\u76ca\u667a
p3071
I8
sV\u4eca\u5e74
p3072
I36
sV\u5c31
I408
sV\u53ef\u8fbe
p3073
I4
sV\u79c1\u4eba
p3074
I2
sV\u9996\u4efd
p3075
I2
sV\u82f1\u9551
p3076
I4
sV\u5929\u7ffc
p3077
I2
sV\u6ee1\u8db3
p3078
I8
sV\u51b7\u50b2
p3079
I2
sV\u51e1\u4eba
p3080
I2
sV\u65e0
I10
sV\u4e09\u6b3e
p3081
I4
sV\u4eb2\u5144\u5f1f
p3082
I2
sV\u8f6c\u8eab
p3083
I2
sV\u526f\u6559\u6388
p3084
I2
sV\u4f20\u5947\u8272\u5f69
p3085
I2
sV\u7231\u4e01\u5821
p3086
I2
sVGirl
p3087
I2
sV\u8fdf\u8fdf
p3088
I2
sV\u590f\u666e
p3089
I8
sV\u4e00\u5c01
p3090
I6
sV\u5185
I84
sV\uff06
I6
sV\u5b89
I2
sV\u8fd1\u4f3c
p3091
I2
sV764
p3092
I2
sV\u67e5\u627e
p3093
I2
sV\u5185\u5b58
p3094
I6
sV\u4e0d\u83f2
p3095
I2
sV\u53ef\u8c13
p3096
I2
sV$
I2
sV\u59d4\u6258
p3097
I2
sV\u7f34\u7eb3
p3098
I2
sV\u8861\u91cf
p3099
I48
sV\u6709\u65f6
p3100
I10
sV13000
p3101
I2
sV\u6709\u65e0
p3102
I2
sV\u6d3b\u52a8\u9875
p3103
I48
sV\u540c\u5b66
p3104
I8
sV...
p3105
I12
sV\u800c\u6765
p3106
I2
sV\u4e03\u500d
p3107
I4
sV\u547c\u5438
p3108
I4
sV\u53d1\u5c55\u8d8b\u52bf
p3109
I48
sV\u4e50
I4
sV\u82f1\u96c4
p3110
I10
sV\u8f6c\u8d26
p3111
I2
sV\u6562
I2
sV\u4e07\u6b3e
p3112
I4
sV\u547c\u5401
p3113
I6
sV\u5b89\u5168\u5e26
p3114
I4
sV\u4f46\u662f
p3115
I40
sV\u65e0\u5339
p3116
I2
sV\u53d1\u5c04
p3117
I4
sV\u519c\u6751
p3118
I50
sV\u5904\u7406\u5668
p3119
I42
sV82.8
p3120
I4
sV\u6709\u6548
p3121
I4
sV\u53d1\u6e90\u5730
p3122
I2
sV\u6709\u9650\u516c\u53f8
p3123
I10
sVButterfly
p3124
I2
sV\u6ca1\u770b
p3125
I2
sV\u7565\u4f4e\u4e8e
p3126
I2
sV\u968f\u7740
p3127
I12
sV\u76f8\u805a
p3128
I2
sV\u4f2f\u7235\u592b\u4eba
p3129
I2
sV\u5ef6\u8fdf
p3130
I2
sV\u5fc6
I2
sV\u81ea\u5df1
p3131
I188
sV\u4fbf\u5229\u6027
p3132
I2
sV\u9003\u4e0d\u6389
p3133
I2
sV\u9ad8\u5cf0
p3134
I2
sV\u501f\u7740
p3135
I4
sV\u5357\u4fa7
p3136
I2
sV\u9003\u72af
p3137
I2
sV\u7b97\u6cd5
p3138
I2
sV\u5185\u5bb9
p3139
I16
sV\u6d88\u606f
p3140
I264
sV\u8bfe
I2
sV\uff01
I1926
sV\u8f6f\u808b
p3141
I2
sVHaswell
p3142
I4
sV\u5047\u671f
p3143
I50
sV\u800c\u662f
p3144
I12
sV\u81f3\u5c11
p3145
I6
sV\u81ea\u6211
p3146
I8
sV\u4e91
I16
sV\u5f04\u5de7\u6210\u62d9
p3147
I2
sV\u8bbe\u8ba1\u5e08
p3148
I2
sV\u7b49\u5f85
p3149
I18
sVThe
p3150
I6
sV\u738b\u56fd
p3151
I6
sVNorman
p3152
I2
sV..
p3153
I4
sV\u53cd\u590d
p3154
I6
sV\u75f4\u8ff7
p3155
I4
sV\u52a0\u5165
p3156
I16
sV.8
p3157
I4
sV.0
p3158
I52
sV.2
p3159
I10
sV78
p3160
I2
sV.5
p3161
I10
sV\u5de5\u4f5c\u4eba\u5458
p3162
I4
sV\u64cd
I2
sV\u547c\u5524
p3163
I4
sV\u770b\u7834
p3164
I2
sV\u6c42\u751f
p3165
I2
sV\u7f51\u7edc\u7535\u53f0
p3166
I4
sV\u638c\u95e8\u4eba
p3167
I2
sV\u4e0d\u52b3\u800c\u83b7
p3168
I4
sV\u80cc\u540e
p3169
I52
sV\u8fdc\u9ad8\u4e8e
p3170
I4
sVTwitter
p3171
I18
sV\u671f\u95f4
p3172
I6
sV\u63d0\u901f
p3173
I2
sV\u4e4b\u524d
p3174
I16
sV\u4e00\u89c8\u65e0\u4f59
p3175
I2
sV\u6c34\u6ce5
p3176
I2
sV\u91ca\u7136
p3177
I2
sV\u53f6\u514b\u52c7
p3178
I2
sV\u4f5a\u540d
p3179
I2
sV\u7f51\u5427
p3180
I240
sV\u53d6\u6d88
p3181
I10
sV\u51e0\u4e4e
p3182
I8
sVdoesn
p3183
I2
sV\u8fdd\u89c4
p3184
I4
sV\u96c5\u864e
p3185
I8
sV\u64b0\u6587
p3186
I12
sV\u7c89\u4e1d
p3187
I4
sV\u6570\u7801\u79d1\u6280
p3188
I2
sV\u6025
I4
sV\u5bcc\u6709\u9b54\u529b
p3189
I2
sVTV
p3190
I24
sV\u60ca\u8273
p3191
I6
sV\u5835
I2
sV\u5230\u8d27
p3192
I6
sVTI
p3193
I2
sVA9
p3194
I2
sVTD
p3195
I32
sV\u94fa\u5929\u76d6\u5730
p3196
I48
sV\u72ec\u7279
p3197
I6
sV\u53ec\u5f00
p3198
I10
sVAF
p3199
I2
sV\u5bf9\u8c61
p3200
I6
sV\u73a9\u5177
p3201
I48
sV\u5510\u50e7\u8089
p3202
I48
sV\u8be6\u89e3
p3203
I4
sVIntelliscreen
p3204
I2
sVAT
p3205
I6
sVAV
p3206
I2
sVe
I2
sV\u6323\u624e
p3207
I2
sV\u5357\u4eac
p3208
I2
sV\u5e73\u5747\u901f\u5ea6
p3209
I2
sV\u8fd9\u70b9
p3210
I2
sV\u611f\u8c22
p3211
I6
sV\u9662\u5b50
p3212
I2
sV\u8bc6\u522b
p3213
I2
sV\u547c\u558a
p3214
I4
sV\u56f0\u60d1
p3215
I4
sV\u5f85
I4
sV\u4e00\u5207
p3216
I18
sV\u65c5\u7a0b
p3217
I2
sV\u5b89\u4e50
p3218
I2
sV\u72c2\u91ce
p3219
I2
sVtweeter
p3220
I2
sV\u8bc6\u522b\u6027
p3221
I2
sV\u7a0b\u5e8f\u5458
p3222
I2
sV\u65e5\u51fa
p3223
I2
sV\u4e00\u5217
p3224
I2
sV\u5916
I102
sV\u4e00\u5219
p3225
I6
sV\u4e91\u5b89\u5168
p3226
I2
sV\u770b\u7740
p3227
I8
sV\u6709\u6240\u6539\u8fdb
p3228
I2
sVBenchmark
p3229
I2
sV\u5f00\u652f
p3230
I2
sV\u4ece\u7ad9
p3231
I2
sV.0.0
p3232
I4
sV\u5ce5\u5d58
p3233
I2
sV.0.2
p3234
I2
sV\u6b23\u559c
p3235
I2
sV\u7d27\u968f
p3236
I2
sV\u4e00\u523b
p3237
I8
sVNow
p3238
I6
sV\u5f00\u653e
p3239
I14
sV\u7eb3\u5165
p3240
I2
sVNote2
p3241
I2
sV\u6b63\u662f
p3242
I6
sV\u5927\u5c0f
p3243
I4
sV\u4e0d\u5982\u610f
p3244
I2
sV\u4e0d\u8db3
p3245
I2
sV\u5165\u4fb5
p3246
I10
sV\u4e0b\u8c03
p3247
I4
sV\u559c\u65b0
p3248
I2
sV\u6001\u5ea6
p3249
I2
sV\u770b\u770b
p3250
I6
sV\u81ea\u5351
p3251
I2
sV8.95
p3252
I2
sV\u65e0\u6240\u4e0d\u4e3a
p3253
I2
sV\u8bfe\u5802
p3254
I6
sV\u66ff
I2
sV\u9875\u9762
p3255
I6
sV\u661f\u671f
p3256
I6
sV\u5316\u8eab
p3257
I2
sV\u8fc4\u4eca
p3258
I2
sV\u5341\u5206
p3259
I8
sV\u536b\u7ff0\u601d
p3260
I2
sV\u85cf\u533f
p3261
I2
sV\u4e0d\u8d77
p3262
I2
sVCamera
p3263
I4
sV\u6b8b\u9177
p3264
I2
sV\u7f13\u6162
p3265
I4
sV\u957f\u5927
p3266
I4
sV\u4e0a\u5e8a\u7761\u89c9
p3267
I2
sV\u751f\u6001
p3268
I2
sV\u5f02\u6027
p3269
I2
sV\u9c8d\u52c3
p3270
I4
sV\u65e0\u610f
p3271
I2
sVKristin
p3272
I2
sV;
I8
sV\u538b\u5012\u6027
p3273
I2
sV\u6807\u699c
p3274
I4
sV\u6795\u8fb9
p3275
I2
sV\u4e09\u661f
p3276
I414
sV\u5e87\u62a4\u6240
p3277
I2
sV\u5e93\u96f7\u897f
p3278
I2
sV\u8fdb\u7a0b
p3279
I4
sVReadyNAS
p3280
I96
sV\u6709\u6b3e
p3281
I2
sV640
p3282
I8
sV\u5706\u5f62
p3283
I4
sV\u5177\u4f53
p3284
I4
sV\u5c18\u57c3\u843d\u5b9a
p3285
I2
sV\u670d\u52a1\u4e2d\u5fc3
p3286
I6
sV\u8b66\u65b9
p3287
I2
sV\u5929\u732b
p3288
I54
sV\u673a\u9876\u76d2
p3289
I20
sV\u58f0\u97f3
p3290
I10
sV\u4e03\u5f69
p3291
I2
sV\u63a7
I6
sV\u540c\u540d
p3292
I2
sV\u7b2c
I22
sV\u80fd\u529b
p3293
I20
sV\u76f8\u8fde
p3294
I2
sV\u8424\u5e55
p3295
I2
sV\u8fc7\u5ba2
p3296
I2
sV\u51fa\u5e2d
p3297
I2
sV\u6bcf\u90e8
p3298
I2
sV\u5fe0\u539a
p3299
I6
sV\u68d5\u4e09\u8272
p3300
I2
sV\u7968\u636e
p3301
I2
sV24.99
p3302
I2
sV\u4f1a\u8bae
p3303
I2
sV\u4ee5
I66
sV\u5c42\u6b21
p3304
I2
sV\u65e0\u60c5
p3305
I2
sV\u5448\u73b0
p3306
I2
sV\u663e\u8457
p3307
I50
sV\u5371\u9669
p3308
I10
sV\u5361\u5b9d
p3309
I4
sV\u5047\u5982
p3310
I2
sV\u661f\u661f
p3311
I2
sV\u81ea
I8
sV\u53d6\u6389
p3312
I2
sV\u50cf\u7d20
p3313
I24
sV\u65b0\u80fd\u6e90
p3314
I6
sV\u4eba\u95f4
p3315
I2
sV\u6807\u4ef7
p3316
I2
sV\u4e91\u72d0
p3317
I4
sVCareerBliss
p3318
I2
sV\u4e25\u7981
p3319
I2
sV\u4e0b\u8dcc
p3320
I2
sV\u5f3a\u52b2
p3321
I2
sV\u53ef\u83b7
p3322
I2
sV\u773c\u770b
p3323
I2
sV\u5927\u591a\u6570
p3324
I2
sV\u65e0\u7a77\u7684
p3325
I2
sV\u53f7\u9986
p3326
I2
sV\u62a5\u8b66
p3327
I4
sV\u5b57
I4
sV\u5077\u8d70
p3328
I2
sV\u5ba2\u6237\u7aef
p3329
I18
sV\u4e00\u53e3
p3330
I2
sV\u4e00\u53e5
p3331
I4
sV\u4e00\u53ea
p3332
I8
sV\u6b63\u6781
p3333
I48
sV\u773c\u775b
p3334
I10
sV\u4e00\u53f0
p3335
I52
sV\u8bef\u5bfc
p3336
I2
sV\u84dd\u672c
p3337
I2
sV\u771f\u6b63
p3338
I38
sV\u660e\u5e74\u521d
p3339
I4
sV\u8e0f\u5165
p3340
I2
sV\u4e00\u500d
p3341
I2
sV\u62ff\u6765
p3342
I6
sV\u8336\u4f59\u996d\u540e
p3343
I2
sV\u4e0d\u8fc7
p3344
I78
sVExchange
p3345
I2
sV\u9884\u7ea6
p3346
I2
sV\u4e07\u677e
p3347
I2
sVRAM
p3348
I18
sV\u53ef\u4e0d\u662f
p3349
I2
sV\u770b\u4e0d\u8d77
p3350
I8
sV\u591a\u4efd
p3351
I2
sV\u4e0a\u63a8
p3352
I2
sV\u4e3e\u529e
p3353
I52
sV\u4e0d\u8fdc
p3354
I6
sV\u591a\u4e8e
p3355
I48
sV\u6700\u4f4e
p3356
I6
sV\u6d88\u6cd5
p3357
I2
sV\u8377\u5170\u8bed
p3358
I2
sV\u4eb2\u5bc6
p3359
I4
sViPhone
p3360
I164
sV\u591a\u4e9b
p3361
I2
sV\u5fd9
I6
sV\u7ec8\u8001
p3362
I2
sV\u4f18\u8d28
p3363
I2
sV\u6d77\u91cf
p3364
I10
sV\u788e\u7247
p3365
I10
sV\u5f53\u5c40
p3366
I2
sV\u5185\u5730
p3367
I8
sV\u4e9a\u6d32
p3368
I4
sV\u6a2a\u677f
p3369
I2
sV\u591a\u4e48
p3370
I4
sV\u547c\u58f0
p3371
I4
sV\u514b\u4ec0\u7c73\u5c14\u5730\u533a
p3372
I2
sV\u591a\u4e45
p3373
I2
sV\u62cd\u5356\u4f1a
p3374
I2
sV\u7f51\u7edc
p3375
I194
sV\u2192
I2
sVIFA
p3376
I2
sV\u5185\u5d4c\u5f0f
p3377
I2
sV\u6b21
I4
sV\u56f0\u6270
p3378
I2
sV\u900f\u8fc7
p3379
I6
sV\u7b49\u5230
p3380
I6
sV\u6e29\u6986\u6cb3
p3381
I2
sVCES
p3382
I2
sV\u5434\u4e2d\u8def
p3383
I2
sV\u4e00\u5e74
p3384
I118
sV\u53cd\u8fc7\u6765
p3385
I4
sV\u9ad8\u5bcc\u5e05
p3386
I2
sV\u591a\u4e07
p3387
I4
sV\u731c\u731c\u770b
p3388
I48
sV\u7f8e\u56fd\u6cd5\u9662
p3389
I2
sV\u591a\u4e2a
p3390
I6
sV\u8fc7\u957f
p3391
I2
sV\u65b9\u8a00
p3392
I2
sV\u659c\u773c
p3393
I2
sV\u77e2\u91cf
p3394
I2
sV\u56f4\u7532
p3395
I4
sV\u5b50\u671f
p3396
I2
sV\u53ef\u80fd
p3397
I266
sV\u9891\u7387
p3398
I4
sV\u4e0b\u8f66
p3399
I2
sV\u7206
I2
sV\u5f7b\u5e95
p3400
I6
sV\u5929\u7136
p3401
I2
sV\u98de\u4e0a
p3402
I2
sV\u6012
I6
sVSoftBank
p3403
I2
sV\u51fa\u5c71
p3404
I2
sV\u4e0b\u8f7d
p3405
I162
sV\u561e
I2
sV\u4e50\u89c2
p3406
I6
sV\u5929\u7ebf
p3407
I4
sV\u8282\u5236
p3408
I2
sV\u76f8\u8ddd
p3409
I2
sV\u6700\u4e3a
p3410
I2
sV\u4e50\u89c6
p3411
I2
sV\u5e7d\u7075
p3412
I6
sVRemote
p3413
I4
sV\u52a8\u753b\u7247
p3414
I2
sV\u76ee\u6807
p3415
I8
sV\u5de5\u5546\u90e8\u95e8
p3416
I2
sV\u6d77\u89d2\u5929\u6daf
p3417
I2
sV\u679c\u7c89
p3418
I2
sV\u770b\u7403
p3419
I2
sV\u5fae\u8f6f\u7684
p3420
I8
sV\u677e\u5188
p3421
I4
sV\u77f3
I2
sV\u773c\u75c5
p3422
I2
sV\u5a5a\u59fb
p3423
I4
sV\u95f4\u63a5
p3424
I2
sV\u591a\u4f4d
p3425
I4
sV\u5f03
I6
sV\u4e00\u518d
p3426
I2
sV\u751f\u4ea7\u7ebf
p3427
I2
sV\u5e94\u7528
p3428
I246
sV\u7737\u987e
p3429
I2
sV\u6a21
I2
sV\u5f3a\u608d
p3430
I4
sV\u76f4\u547c
p3431
I2
sV\u653f\u7b56
p3432
I2
sV\u9000\u8ba9
p3433
I2
sV\u5a01\u6151\u529b
p3434
I2
sV\u6559\u517b
p3435
I2
sV\u5435
I2
sV\u7d27\u9501
p3436
I2
sV\u6613\u61c2
p3437
I2
sV2.4
p3438
I2
sV\u5efa\u8bae
p3439
I6
sV\u5360\u6bd4
p3440
I2
sV\u8bb0\u6cd5
p3441
I2
sV\u4ece
I214
sV\u65b0\u4e00\u4ee3
p3442
I6
sV\u5efa\u8bbe
p3443
I108
sV\u95f2\u6687
p3444
I4
sV\u5199\u4f5c
p3445
I2
sV\u5957
I4
sV\u4e0a\u624b
p3446
I6
sV\u63a0\u593a
p3447
I2
sV\u4e00\u5ea6
p3448
I4
sV\u4e0a\u6240
p3449
I2
sVGodiva
p3450
I4
sV\u65e0\u6240
p3451
I2
sV\u5927\u795e
p3452
I4
sV\u963f\u5c14
p3453
I2
sV\u91cd\u8fd4
p3454
I4
sV\u593a\u56de
p3455
I2
sV\u7528\u4e8e
p3456
I6
sV\u5c71\u5be8
p3457
I6
sV\u5b85
I48
sV\u8a00
I2
sV\u98de\u901f\u53d1\u5c55
p3458
I2
sV\u8fc7\u773c\u70df\u4e91
p3459
I2
sV\u52a0\u73ed
p3460
I6
sV\u5927\u7ea6
p3461
I8
sVMate
p3462
I300
sV\u51fb\u8d25
p3463
I2
sV\u8d85\u81ea\u7136
p3464
I2
sV\u8d70\u904d
p3465
I4
sV\u6cd5\u533b
p3466
I6
sV\u6c38\u65e0\u6b62\u5883
p3467
I2
sV\u4e0b\u884c
p3468
I6
sV\u4e4b\u5916
p3469
I18
sV\u65e5\u665a
p3470
I2
sV\u6838
I78
sV\u4f11\u95f2\u6e38\u620f
p3471
I2
sVLumia
p3472
I44
sV\u56a3\u5f20
p3473
I2
sV\u6500\u5347
p3474
I2
sV\u62b5\u6297
p3475
I2
sV\u58a8\u5bb6
p3476
I2
sV\u63a5\u53e3
p3477
I4
sVBOSS
p3478
I2
sV\u5996\u9b54\u9b3c\u602a
p3479
I2
sV127
p3480
I2
sV128
p3481
I2
sV\u505a\u6cd5
p3482
I50
sV\u8fd9\u7b14
p3483
I2
sV\u73a9\u51fa\u6765
p3484
I2
sV\u4e0d\u8981
p3485
I90
sV\u7f51\u76d8
p3486
I4
sV\u9664\u6b64\u4e4b\u5916
p3487
I4
sV\u7aef
I10
sV\u5f3a\u6743
p3488
I2
sV\u9274
I4
sV\u5fc5\u987b
p3489
I20
sV\u63a5\u53d7
p3490
I22
sV\u5feb
I24
sV\u62ff
I60
sV\u7a84
I8
sV\u7528\u6237\u6ce8\u518c
p3491
I2
sV\u770b\u900f
p3492
I4
sV\u51ed\u501f\u7740
p3493
I2
sV\u6c5f\u82cf
p3494
I2
sV\u82b1\u5349
p3495
I2
sV\u65e9\u4e9b\u65f6\u5019
p3496
I4
sV\u975e\u5e38
p3497
I44
sV\u6df1\u5733
p3498
I6
sV\u4f9d\u7136
p3499
I16
sV\u8bc9\u8bbc
p3500
I10
sV\u7ba1\u7406
p3501
I12
sV\u6e7f\u6c14
p3502
I4
sV\u5531
I4
sV\u521b\u9020
p3503
I20
sV\u8d28\u91cf
p3504
I2
sV\u53ca
I70
sV\u4e00\u53e3\u6c14
p3505
I2
sV\u65e0\u6570
p3506
I4
sV\u6ce1\u6ce1\u7cd6
p3507
I48
sV\u4e00\u56de
p3508
I2
sV\u773c\u91cc
p3509
I2
sV\u5e73\u677f
p3510
I122
sV\u65e0\u6545
p3511
I2
sViPod
p3512
I8
sV\u4e0a\u53bb
p3513
I2
sV\u7cfb\u7edf
p3514
I382
sV\u8fc1\u81f3
p3515
I2
sV\u8bfa
I2
sV\u5c81
I14
sV\u5f80
I6
sV\u4e00\u5708
p3516
I2
sVTheVerge
p3517
I2
sV\u73a9\u5bb6
p3518
I38
sV\u7f6a\u72af
p3519
I2
sV\u5c16
I4
sV\u8f93\u7ed9
p3520
I4
sV\u4e22
I2
sV\u82f1\u96c4\u6240\u89c1\u7565\u540c
p3521
I2
sV\u6b4c\u8bcd
p3522
I2
sV\u94b1
I56
sV\u4e00\u5730
p3523
I2
sV\u7334
I2
sV\u4e00\u573a
p3524
I18
sV\u65e5\u672c
p3525
I22
sV\u9ec4\u5e08
p3526
I4
sV\u4e39\u9ea6\u8bed
p3527
I2
sV\u7eff\u8272
p3528
I4
sV\u601d\u5947
p3529
I4
sV\u667a\u6167\u578b
p3530
I2
sV\u4e00\u5757
p3531
I2
sV\u611f\u89c9
p3532
I16
sV\u540c\u671f
p3533
I2
sV\u8f66\u5c55
p3534
I2
sV\u5e74\u6b3e
p3535
I2
sV\u901a\u62a5
p3536
I2
sV\u559c\u60a6
p3537
I2
sV\u4fee\u6539
p3538
I6
sV\u65e5\u671f
p3539
I54
sV\u8857\u5934
p3540
I4
sVRally
p3541
I2
sV\u751f\u65e5
p3542
I2
sV\u66f2\u7ebf
p3543
I2
sV\u97e9\u56fd
p3544
I16
sV\u661f\u6218
p3545
I4
sV\u7ec4\u7ec7
p3546
I2
sV\u5f15\u8d77
p3547
I56
sVVmall
p3548
I2
sV\u65f6\u95f4
p3549
I138
sV\u5947\u8ff9
p3550
I18
sVSteve
p3551
I2
sV\u91cd\u8981
p3552
I22
sV\u8fd4\u8fd8
p3553
I2
sV\u82f9\u679c\u516c\u53f8
p3554
I30
sV\u63d0\u9ad8
p3555
I8
sV\u670d\u52a1\u9879\u76ee
p3556
I2
sV\u9648\u5148\u751f
p3557
I2
sV\u51b7\u6b7b\u5076
p3558
I2
sV\u76d1\u7981
p3559
I2
sV\u5317\u7535
p3560
I4
sV\u70ed\u7231
p3561
I2
sV\u7545\u6e38
p3562
I50
sVMHz
p3563
I6
sV\u6298\u5408
p3564
I2
sV\u5175\u79cd
p3565
I2
sV\u8de8\u5e73\u53f0
p3566
I2
sV\u8865\u7f3a
p3567
I2
sVfierce
p3568
I2
sV\u6216\u4e3a
p3569
I6
sV\u540d\u4e3a
p3570
I20
sV\u8c61
I2
sV\u53d1
I6
sV\u91cd\u89c6
p3571
I2
sVRockstar
p3572
I2
sV\u64a4\u9500
p3573
I2
sV\u8352\u5c9b
p3574
I2
sV\u9003\u79bb
p3575
I8
sVUSPTO
p3576
I2
sV\u4e0d\u8be5
p3577
I52
sV\u91c7\u53d6\u76f8\u5e94
p3578
I2
sV\u961a\u6da6\u7530
p3579
I2
sVBI
p3580
I2
sV\u4e00\u540d
p3581
I2
sVBT
p3582
I4
sV\u2014
I176
sV\u4e58
I8
sV\u6765\u8bf4
p3583
I126
sV\u591a
I168
sVGSM
p3584
I8
sV\u51fb\u6e83
p3585
I2
sV\u6709\u5982
p3586
I2
sV\u76f4\u51fb
p3587
I4
sV\u53f3\u4e0a\u89d2
p3588
I2
sV\u4e0a\u67b6
p3589
I8
sV\u963f\u62c9\u4f2f\u8bed
p3590
I2
sV\u6bcf\u9996\u6b4c
p3591
I2
sV\u9003\u7a0e
p3592
I4
sV\u4f20\u9001
p3593
I2
sV\u4e0d\u8ba9
p3594
I6
sV\u7c97\u4e2d\u5e26\u7ec6
p3595
I2
sV\u673a\u6d77
p3596
I2
sV\u5192\u9669
p3597
I4
sV\u4e0d\u8bba
p3598
I10
sV\u4fe1
I2
sVlost
p3599
I2
sV\u4e00\u5468
p3600
I16
sV\u5e7c\u7a1a
p3601
I2
sV\u5e73\u65f6
p3602
I2
sV\u8fde\u63a5
p3603
I8
sV\u4f4e\u80fd
p3604
I2
sV\u4e00\u5934\u70ed
p3605
I2
sV\u793e\u4f1a\u5316
p3606
I2
sVFolio
p3607
I48
sV\u8fd9\u79cd
p3608
I18
sV\u4e4b\u6240\u4ee5
p3609
I10
sV\u770b\u4e0d\u89c1
p3610
I6
sV\u98ce\u666f
p3611
I6
sV\u514d\u8d39\u53d1
p3612
I2
sVtwitter
p3613
I2
sV\u4f18\u89c6
p3614
I8
sV\u5904\u5883
p3615
I2
sV\u7231\u5fc3
p3616
I4
sV\u6742\u5fd7
p3617
I14
sV\u4e0a\u6708
p3618
I2
sV\u53d8\u5316
p3619
I8
sV527.68
p3620
I2
sV\u5916\u6765
p3621
I2
sV\u4fef\u89c6
p3622
I2
sV?
I16
sV\u6362\u5361
p3623
I2
sVAavikko
p3624
I2
sV\u538b\u7f29
p3625
I2
sV\u6253
I44
sV\u6781\u6162
p3626
I2
sV\u51c6\u5907
p3627
I22
sV\u8651
I2
sV\u62e8
I2
sV\u6f14\u7ece
p3628
I4
sV\u6ee4\u955c
p3629
I4
sVUI
p3630
I16
sVAgee
p3631
I2
sV\u6f14\u7ec3
p3632
I2
sVUC
p3633
I14
sV\u8001\u5916
p3634
I2
sV\u52a0\u70ed
p3635
I4
sV\u5361\u5df4
p3636
I6
sVIDG
p3637
I2
sVIDC
p3638
I6
sVIDA
p3639
I4
sV\u65e0\u6687
p3640
I2
sV\u53e6\u5916
p3641
I8
sV\u70ed\u70b9
p3642
I4
sV\u8d39\u7528
p3643
I4
sV\u95ea\u907f
p3644
I2
sV\u501f\u7ed9
p3645
I2
sV\u6b21\u6570
p3646
I2
sVhi
p3647
I2
sV\u6ce1\u6ce1\u7f51
p3648
I2
sV\u8fd0\u8425
p3649
I6
sV\u731b\u70c8
p3650
I2
sV\u6d41\u52a8\u6027
p3651
I2
sV\u5c0f\u4f19\u4f34
p3652
I2
sV\u8bdd\u8d39
p3653
I2
sV\u9053\u7406
p3654
I2
sViBooks
p3655
I2
sV720
p3656
I10
sV\u5f39\u5f13
p3657
I2
sV\u6b8b\u969c
p3658
I4
sV\u6d4f\u89c8\u5668
p3659
I22
sV\u76d1\u7ba1
p3660
I8
sV\u601d\u5b87
p3661
I2
sV\u80fd\u5426
p3662
I52
sV\u673a\u6cb9
p3663
I2
sV\u5b98
I2
sV\u65bd\u5c55
p3664
I2
sV\u4fa0
I2
sV\u6267\u6cd5\u5c40
p3665
I2
sVNever
p3666
I4
sV......2012
p3667
I2
sV\u7ecf\u9500
p3668
I2
sV\u6253\u95ee\u53f7
p3669
I2
sV\u8fdb\u884c
p3670
I70
sV\u5e73\u6ed1
p3671
I2
sV\u8dcc
I6
sV\u4eca\u540e
p3672
I2
sV\u8e1f\u8e70\u4e0d\u524d
p3673
I2
sV\u8d4c\u573a
p3674
I4
sV\u53cd\u51fb
p3675
I4
sV\u8033\u673a
p3676
I8
sV\u64ad\u653e
p3677
I12
sV\u6f5c\u80fd
p3678
I4
sV\u8001\u5c11\u54b8\u5b9c
p3679
I2
sV\u7279\u6280
p3680
I2
sV\u5a34\u719f
p3681
I2
sV\u516d\u4e00
p3682
I96
sV\u8be5\u586b
p3683
I2
sV\u786e\u4fdd
p3684
I2
sVSoap
p3685
I2
sV\u53d1\u552e
p3686
I28
sV\u5927\u89c4\u6a21
p3687
I4
sV\u8c08\u5230
p3688
I4
sV\u9b54\u6cd5
p3689
I4
sV\u4ec0\u4e48\u6837
p3690
I48
sV\u822c
I2
sV\u5305\u88f9
p3691
I2
sV\u529e\u516c\u5927\u697c
p3692
I2
sV\u6b64\u5916
p3693
I6
sV\u670d\u52a1\u5668
p3694
I6
sV\u573a
I8
sV\u624b\u611f
p3695
I2
sV\u7814\u7a76\u9662
p3696
I4
sV\u73b0\u7f51
p3697
I2
sV\u59da\u5982\u96ef
p3698
I12
sV\u5404\u5f02
p3699
I2
sV\u522b\u9519\u8fc7
p3700
I2
sV\u7206\u7c73\u82b1
p3701
I2
sV\u6e38\u6cf3
p3702
I2
sV\u8d5e
I50
sV\u5173\u7cfb
p3703
I4
sV\u6574\u673a
p3704
I4
sV\u8ffd\u56de
p3705
I4
sV\u8c03\u67e5\u62a5\u544a
p3706
I6
sV\u5305\u88b1
p3707
I2
sV\u5546\u673a
p3708
I4
sV\u7cfb\u7edf\u6027\u80fd
p3709
I2
sV\u300b
I202
sV4655
p3710
I4
sV\uff15
I2
sV\u970d\u592b\u66fc
p3711
I2
sV\u52a0\u8f7d
p3712
I6
sV\u6363\u86cb
p3713
I6
sV\u5168\u529b
p3714
I2
sV\u4e24\u79cd
p3715
I56
sV\u770b\u8fc7
p3716
I2
sV\u6d88\u9632
p3717
I2
sV\u6210\u529f
p3718
I24
sV\u662f
I984
sV\u5c3d\u60c5
p3719
I2
sV\u521a\u597d
p3720
I2
sV\u6676\u4f53
p3721
I48
sV\u7ec8\u7aef
p3722
I28
sV\u60c5\u51b5
p3723
I18
sV\u5e76\u975e
p3724
I2
sV\u4f9d\u8d56
p3725
I52
sV10.
p3726
I2
sVnever
p3727
I2
sV\u4e0d\u7528
p3728
I2
sV\u4e00\u70b9\u70b9
p3729
I2
sV108
p3730
I2
sV\u6392\u5217
p3731
I2
sV\u6559
I2
sV100
p3732
I78
sV104
p3733
I2
sV\u77ed\u5267
p3734
I2
sV\u6536\u96c6
p3735
I24
sV\u4e50\u961f
p3736
I2
sV\u5546\u52a1
p3737
I14
sV\u592a\u900f
p3738
I2
sV\u8be6\u7ec6
p3739
I4
sV\u4ee4\u4eba\u53d1\u6307
p3740
I2
sV\u5411\u4e0a
p3741
I2
sV\u6d88\u9664
p3742
I2
sV\u5168\u533a
p3743
I2
sV\u4e0d\u6562\u76f8\u4fe1
p3744
I2
sVAfraid
p3745
I2
sV\u7f29\u653e
p3746
I4
sV\u8721\u7b14\u5c0f\u65b0
p3747
I4
sV\u4e2d\u6587\u7248
p3748
I4
sV\u62ff\u5230
p3749
I54
sV\u8df3\u8dc3
p3750
I6
sV\u4e3b\u89d2
p3751
I18
sV\u6770\u6b63
p3752
I2
sV\u8868\u660e
p3753
I56
sV\u718a\u732b
p3754
I2
sV\u9b3c
I4
sV\u65f7\u65e5\u6301\u4e45
p3755
I2
sV\u767d\u8272
p3756
I12
sV\u5206\u5fc3
p3757
I2
sV\u8bfb\u4e66
p3758
I2
sV\u4ee5\u4e3a
p3759
I12
sV\u4e2d\u4f1a
p3760
I2
sV\u9669\u4e9b
p3761
I2
sV\u4ee5\u4e0b
p3762
I12
sV\u4ee5\u4e0a
p3763
I10
sV2.65
p3764
I2
sV\u4e3b\u8981
p3765
I16
sVNETGEAR
p3766
I192
sV\u6307\u8d23
p3767
I4
sV\u5bc6\u94a5
p3768
I2
sV\u6b22\u559c
p3769
I2
sV\u53ef\u4f9b
p3770
I2
sV\u96be\u8fc7
p3771
I4
sV\u4e2d\u4fc4
p3772
I2
sVgive
p3773
I2
sVChrome
p3774
I14
sV\u6652\u51fa
p3775
I2
sV\u5a92
I4
sV\u7c73\u7403
p3776
I2
sV\u672a\u6765
p3777
I126
sV\u60f3\u8981
p3778
I22
sV\u62ff\u5927\u5956
p3779
I2
sV\u540e\u76d6\u95e8
p3780
I2
sV\u9047\u51b7
p3781
I2
sV\u63f6\u63c4
p3782
I2
sV\u6d1b\u6749\u673a
p3783
I2
sV\u8fbe\u6210
p3784
I12
sV\u4e24\u5929
p3785
I2
sV\u638c\u4e0a
p3786
I2
sV\u914d\u5408
p3787
I2
sV\u7b2c\u4e00\u6b21
p3788
I2
sV\u5e93\u514b
p3789
I16
sV\u6539\u53d8
p3790
I18
sV\u5893\u5730
p3791
I2
sV\u524d
I30
sV\u8c08\u53ca
p3792
I2
sV\u65b0\u54c1
p3793
I100
sV\u5e55
I2
sV\u97f3\u54cd
p3794
I6
sV\u7b80\u5355
p3795
I24
sV\u53f0\u4e0a
p3796
I2
sV\u62e5\u62b1
p3797
I2
sV\u53d7\u4e0d\u4e86
p3798
I2
sV\u79d1
I2
sV1280
p3799
I2
sV\u6240\u5728
p3800
I4
sV\u771f\u5b9e\u6027
p3801
I4
sV\u77ac\u65f6
p3802
I2
sV\u5377
I54
sV\u63a5\u663e\u793a\u5668
p3803
I2
sV\u5468\u6770\u4f26
p3804
I2
sV\u5149\u5b66
p3805
I2
sV\u4e0d\u77e5
p3806
I10
sV\u4fbf\u6377
p3807
I2
sV\u670d\u52a1\u5458
p3808
I2
sV\u675c\u5c14
p3809
I2
sV\u6781\u9650
p3810
I2
sV\u5c14
I2
sV\u7acb\u65b9
p3811
I2
sV10.1
p3812
I2
sV\u5b8c\u5584
p3813
I8
sV\u624b\u6307
p3814
I102
sV\u4ec5\u7528
p3815
I2
sV\u9047\u5230
p3816
I16
sV\u8bdd
I6
sV\u6574\u6574
p3817
I48
sV,
I110
sV\u6a21\u5f0f
p3818
I12
sV\u5927\u8086
p3819
I2
sV\u83b7\u8d54
p3820
I4
sV\u53d1\u5c55\u58ee\u5927
p3821
I2
sV\u4e86\u4f1a
p3822
I2
sV\u98a4\u98a4\u5dcd\u5dcd
p3823
I2
sV\u85aa\u6c34
p3824
I2
sV\u4fdd\u7559
p3825
I4
sV\u5c18\u5c01
p3826
I4
sV\u516c\u4f17
p3827
I2
sV\u65b0\u5740
p3828
I2
sV\u65e0\u79c1
p3829
I2
sVone
p3830
I4
sV\u62ef\u6551
p3831
I12
sV\u5927\u80dc
p3832
I2
sV\u5f88\u5927
p3833
I4
sV\u534a\u5929
p3834
I2
sVmean
p3835
I2
sV\u5584\u610f
p3836
I2
sV\u7406\u53d1\u5e08
p3837
I2
sVWoz
p3838
I2
sV\u6cc4\u5bc6
p3839
I4
sV\u53d1\u5e03\u4f1a
p3840
I112
sV\u6d41\u7a0b
p3841
I6
sV\u6bcf\u6b21
p3842
I50
sVEyeTV
p3843
I4
sV\u7434\u610f
p3844
I2
sV\u5e38\u5e38
p3845
I4
sV\u56e0\u4e3a
p3846
I138
sV\u65b0\u578b
p3847
I2
sV\u63d0\u65e9
p3848
I2
sV\u6ca1\u4ec0\u4e48
p3849
I2
sV\u7f51\u7edc\u670d\u52a1
p3850
I10
sV\u8111
I2
sV\u624b\u638c
p3851
I4
sV\u5f00\u53d1\u8005
p3852
I28
sV\u53d1\u578b
p3853
I2
sV\u6574\u65e5
p3854
I2
sV\u8f6c\u79fb
p3855
I4
sV\u65e0\u6028\u5c24
p3856
I2
sV57269
p3857
I2
sV\u62ff\u51fa
p3858
I2
sVSPOT
p3859
I2
sV\u6838\u7535\u7ad9
p3860
I2
sV\u517c\u5bb9
p3861
I8
sV\u80e1\u56fd\u8f89
p3862
I2
sV\u906d\u53d7
p3863
I2
sVDLP
p3864
I2
sV\u4fde
I6
sV\u7565
I4
sV\u6765\u770b
p3865
I12
sV\u7740\u5730
p3866
I2
sV\u7eff
I2
sV\u4e25\u82db
p3867
I2
sV\u6551\u547d\u7a3b\u8349
p3868
I4
sV\u6b7b\u53bb
p3869
I4
sV\u738b
I6
sV\u505a\u5ba2
p3870
I2
sV\u4ee3\u4ef7
p3871
I4
sV\u601d\u91cf
p3872
I2
sV\u5e74\u957f
p3873
I2
sV\u56de\u843d
p3874
I4
sV\u4e70\u624b\u673a
p3875
I2
sV\u7b2c\u4e8c\u5929
p3876
I2
sV\u7ebd\u7ea6\u65f6\u62a5
p3877
I4
sV\u81f3\u7406\u540d\u8a00
p3878
I2
sV\u906d\u5230
p3879
I6
sV\u5382\u5546
p3880
I50
sVBBE
p3881
I4
sVBBC
p3882
I8
sV\u7279\u6b64
p3883
I48
sV\u62db\u8058\u542f\u4e8b
p3884
I4
sV\u6bdb
I2
sV\u914d\u56fe
p3885
I2
sV\u5360
I46
sV\u7ea6\u4f1a
p3886
I2
sV\u672c\u6761
p3887
I2
sV\u7535\u6c60
p3888
I124
sVmatter
p3889
I2
sVMMORPG
p3890
I2
sV\u5927\u9f3b\u5b50
p3891
I2
sV\u51e1\u4e8b
p3892
I6
sV2690
p3893
I2
sVmini
p3894
I122
sV\u7279\u6b8a
p3895
I2
sV\u5927
I182
sV\u5e02\u573a\u6f5c\u529b
p3896
I2
sV\u5723\u4f55\u585e
p3897
I2
sV\u632b
I2
sVPOS
p3898
I2
sV\u652f
I2
sV\u6e29\u548c
p3899
I2
sVPatrick
p3900
I2
sV\u4eba\u6c14
p3901
I4
sV\u5fcd\u519b
p3902
I2
sV\u5927\u817f
p3903
I2
sV\u5370\u5ea6\u653f\u5e9c
p3904
I6
sV705.07
p3905
I2
sV\u8fd1\u51e0\u5e74
p3906
I2
sV\u7cfb\u5217\u4ea7\u54c1
p3907
I2
sV\u540e\u820d
p3908
I6
sV\u516c\u4ea4
p3909
I12
sVm
I48
sV\u75bc\u75db
p3910
I2
sV\u4f73
I4
sV\u5177
I6
sV\u9a6c\u91cc\u5965
p3911
I2
sV\u663e\u793a
p3912
I56
sVLiving
p3913
I4
sV\u6280\u672f
p3914
I182
sV\u4e07\u7f8e\u5143
p3915
I6
sV\u7a7f\u68ad
p3916
I4
sV\u8ffd\u52a0
p3917
I4
sV59559
p3918
I2
sV\u90a3
I132
sV\u70b9\u8bc4
p3919
I2
sVFree
p3920
I4
sV\u6052\u4e45
p3921
I2
sV\u76d1\u8003
p3922
I2
sV\u6bb5
I2
sV\u533a
I2
sV\u526f\u603b\u88c1
p3923
I8
sV\u89c9
I2
sVto5Mac
p3924
I2
sVstop
p3925
I2
sV8538
p3926
I2
sV\u8ba2\u5236
p3927
I2
sV\u5ba2\u6237
p3928
I16
sV\u5929\u6d25\u5927\u5b66
p3929
I2
sV\u8425\u4e1a\u5385
p3930
I4
sV\u5ba2\u623f
p3931
I2
sV\u6781\u901f
p3932
I52
sV\u80dc\u8bc9
p3933
I2
sV\u6446\u8131
p3934
I2
sV\u9762
I52
sV\u62e5\u6709
p3935
I56
sV\u65b0\u5174
p3936
I2
sV\u5f70\u663e
p3937
I6
sV\u89c6\u529b\u8868
p3938
I2
sV\u5e9f\u7269
p3939
I2
sV\u706b\u67f4
p3940
I6
sV\u4eba\u6bd4
p3941
I2
sV\u60f3\u8c61
p3942
I2
sV\u4f4e\u6210\u672c
p3943
I48
sV\u7ec8\u7ed3
p3944
I2
sV\u6e38\u620f\u673a
p3945
I4
sV\u5df2\u4e3a
p3946
I2
sV\u542c\u611f
p3947
I2
sV\u4e0d\u80fd\u81ea\u5df2
p3948
I2
sV\u91cd\u70b9
p3949
I2
sV02
p3950
I2
sV00
p3951
I48
sV\u5047\u94b1
p3952
I2
sVAnalytics
p3953
I2
sV\u77e5\u60c5
p3954
I14
sV08
p3955
I2
sV\u5973\u6027
p3956
I2
sVC
I6
sV\u5168\u56fd
p3957
I14
sV\u53d1\u51fa
p3958
I8
sV\u62c5\u4fdd
p3959
I2
sV\u4e0d\u540c\u5bfb\u5e38
p3960
I2
sV\u4e0d\u7136
p3961
I6
sV\u7f16\u4f1a
p3962
I48
sV\u76f8\u7231
p3963
I2
sV\u6e90\u6cc9
p3964
I2
sV\u4e50\u6b64\u4e0d\u75b2
p3965
I2
sV\u5de6
I2
sV\u611a\u8822
p3966
I2
sVZombiewood
p3967
I2
sV\u5e26\u4e0a
p3968
I4
sV\u559d\u5f69
p3969
I2
sV\u6c34\u7535\u8d39
p3970
I2
sV\u7f8e\u56fd\u9ed1\u4eba
p3971
I2
sVNokia
p3972
I10
sV\u7559\u5fc3
p3973
I4
sV\u7a97\u5916
p3974
I2
sV\u82f1\u6587
p3975
I2
sV\u800c\u6709
p3976
I2
sV\u4e4b\u7c7b
p3977
I2
sV\u4e0d\u70c2
p3978
I48
sV\u534a\u5e74
p3979
I2
sV\u8840\u8def
p3980
I2
sV\u5145\u5f53
p3981
I2
sV\u70b9
I70
sV\u5f97\u4e3b
p3982
I2
sV\u8c03\u6574
p3983
I68
sV\u9891\u8c31
p3984
I54
sV16.
p3985
I2
sV\u4e16\u754c\u676f
p3986
I2
sV\u7559\u5f85
p3987
I2
sV\u7591\u4f3c
p3988
I2
sV\u6d77\u6ee9
p3989
I4
sVCD
p3990
I2
sV\u8d77\u4ef7
p3991
I2
sV\u6682\u505c
p3992
I2
sV\u5e94\u8be5
p3993
I24
sV\u4f5c
I10
sVDroid
p3994
I2
sVCo
p3995
I4
sV\u6570\u636e\u8d44\u6599
p3996
I2
sV\u5546\u573a
p3997
I6
sV\u4ea4\u5f80
p3998
I2
sV\u521d\u6b65
p3999
I2
sV\u9003\u8131
p4000
I2
sV\u5929\u8fb9
p4001
I2
sV\u592a\u957f
p4002
I2
sV\u671f\u671b
p4003
I4
sV\u95fb\u540d\u9050\u8fe9
p4004
I2
sV\u966a\u4f34
p4005
I2
sV\u4fe1\u90e8
p4006
I2
sV\u4f9b\u5e94\u5546
p4007
I6
sV\u4f0a\u5317
p4008
I2
sV\u95e8\u6237
p4009
I2
sV\u7e41\u7410
p4010
I2
sVK3V2
p4011
I2
sVin
p4012
I6
sV\u5546\u57ce
p4013
I12
sVif
p4014
I2
sV\u955c\u5b50
p4015
I4
sV\u5927\u98ce\u5927\u6d6a
p4016
I2
sVV1
p4017
I4
sV\u672c\u5730
p4018
I4
sV\u8d28\u68c0
p4019
I2
sV\u53c2\u8d5b
p4020
I2
sViE
p4021
I2
sV\u6570\u5341\u4ebf
p4022
I2
sV\u53d6\u540d\u4e3a
p4023
I2
sV\u7edd\u671b
p4024
I4
sV\u7cbe\u5fc3\u8bbe\u8ba1
p4025
I2
sV\u8fdc
I58
sV\u5f97\u4ee5
p4026
I2
sV\u538b\u611f
p4027
I2
sVAio
p4028
I2
sV\u592a\u5e73\u6d0b
p4029
I2
sV\u62c5\u4efb
p4030
I4
sV\u53d7\u5230
p4031
I8
sV800
p4032
I28
sV\u63a8\u5d07
p4033
I2
sV\u771f\u949e
p4034
I2
sV\u8d85\u4f4e
p4035
I4
sV\u8c08\u5410
p4036
I4
sV\u9068\u6e38
p4037
I48
sV\u5343\u5947\u767e\u602a
p4038
I2
sV\u6218
I18
sV\u6325\u970d
p4039
I2
sV\u8bfa\u57fa\u4e9a
p4040
I112
sV\u610f\u4e49
p4041
I8
sV\u7ed3\u679c
p4042
I8
sV\u8774\u8776
p4043
I10
sV\u6f02\u4eae
p4044
I10
sV\u60c5\u5723
p4045
I2
sV\u9ad8\u4f4e\u8d35\u8d31
p4046
I2
sVMissions
p4047
I4
sV\u9f3b\u9752\u8138\u80bf
p4048
I2
sV\u7a0d\u5fae
p4049
I4
sV\u50cf
I32
sV\u7ec6\u8282
p4050
I6
sV30
p4051
I32
sV\u63d2\u64ad
p4052
I2
sV\u6210\u5458
p4053
I4
sV\u60ca\u73b0
p4054
I96
sV\u635f\u5931
p4055
I2
sV\u8be5\u5e02
p4056
I2
sV\u6218\u4e3a
p4057
I2
sV\u800c\u975e
p4058
I8
sV\u91d1\u5b57\u5854
p4059
I48
sV\u6ce8\u610f\u529b
p4060
I2
sV\u5854\u697c
p4061
I2
sV\u63a8\u5e7f
p4062
I56
sV200
p4063
I110
sVWINDOWS
p4064
I2
sV\u82f1\u56fd
p4065
I30
sV\u7545\u9500
p4066
I4
sV\u96f7\u5fb7
p4067
I2
sV\u5546\u54c1
p4068
I4
sV\u4f7f\u7528
p4069
I132
sV\u5229\u6da6
p4070
I56
sV\u770b\u89c1
p4071
I8
sV\u770b\u89c6
p4072
I2
sV\u6027\u611f
p4073
I6
sV\u524d\u540e
p4074
I2
sV\u6d77\u6d0b
p4075
I98
sV\u98de\u8fc7\u6765
p4076
I2
sVGameDynamo
p4077
I2
sV\u5706\u73e0\u7b14
p4078
I2
sV\u5408\u91d1
p4079
I2
sV\u7a0b\u5ea6
p4080
I2
sV\u53c2\u8003
p4081
I4
sV\u5b8c\u5168
p4082
I4
sV\u592a\u9633
p4083
I4
sV\u8fa8\u522b
p4084
I2
sV\u57f9\u517b
p4085
I2
sVSlippery
p4086
I2
sV\u5730\u4f4d
p4087
I50
sV\u7761
I4
sV\u4ff1\u4e50\u90e8
p4088
I10
sV\u7ed3\u675f
p4089
I10
sV\u653b\u57ce\u7565\u5730
p4090
I2
sV\u7a0b\u5e8f
p4091
I12
sV\u672c\u5468
p4092
I8
sV\u5c04\u51fb
p4093
I14
sV\u77ed\u547d
p4094
I2
sV\u62db\u6447\u649e\u9a97
p4095
I2
sVWWDC
p4096
I2
sV\u4f1a\u75db
p4097
I2
sV\u71ac\u591c
p4098
I2
sV\u6253\u9020
p4099
I22
sV\u53e3\u53f7
p4100
I2
sV\u6ce8\u5b9a
p4101
I8
sV\u6253\u901a
p4102
I8
sV\u62bd\u53d6
p4103
I48
sV\u8bf4\u51fa
p4104
I48
sV\u9ad8\u8d28\u91cf
p4105
I4
sV\u8d5e\u6210
p4106
I2
sV\u6b64\u5e16
p4107
I2
sV\u4e92\u4e0d
p4108
I2
sVWorldCup2
p4109
I2
sV\u6570\u636e
p4110
I138
sV\u89c6\u9891
p4111
I100
sVDNA
p4112
I4
sV\u548c\u89e3
p4113
I16
sV\u6108\u6f14\u6108\u70c8
p4114
I2
sV\u8ffd\u51fb
p4115
I2
sV\u4fbf\u662f
p4116
I48
sV\u66b4\u884c
p4117
I2
sV\u4e66\u672c\u4e0a
p4118
I2
sV\u89e3\u51b3
p4119
I26
sV\u805a
I192
sV\u4f4e\u5934
p4120
I4
sV\u5e76\u4e0d\u9700\u8981
p4121
I2
sV\u6027\u60c5
p4122
I2
sV\u4e0b\u4e00\u4ee3
p4123
I10
sV\u4e86
I1326
sV\u5168\u65b9\u4f4d
p4124
I2
sV\u6696
I4
sV\u5929\u4e0b\u65e0\u53cc
p4125
I2
sV\u5730\u4e0b
p4126
I4
sV\u5de5\u65f6
p4127
I2
sV\u7f51\u8d2d
p4128
I4
sV\u52a0\u5dde
p4129
I2
sV\u6311\u5254
p4130
I4
sV\u7ea6
I12
sV\u5730\u4e3b
p4131
I6
sV\u53d1\u529b
p4132
I48
sVAndrew
p4133
I2
sV\u8c03\u67e5
p4134
I24
sV\u8fd8\u4e3a
p4135
I4
sV\u591a\u6765\u7c73
p4136
I2
sV\u5988\u7528
p4137
I2
sVPaget
p4138
I4
sV2500
p4139
I2
sV\u8bb8\u53ef\u8bc1
p4140
I6
sV\u771f\u957f
p4141
I2
sV\u7ecf\u6d4e
p4142
I2
sVWin
p4143
I10
sV\u57df\u540d\u89e3\u6790
p4144
I2
sVWii
p4145
I6
sV\u4f18\u70b9
p4146
I2
sV\u4e92\u8054\u7f51
p4147
I24
sV\u5317\u5361\u7f57\u6765\u7eb3\u5dde
p4148
I2
sV\u8d85\u4eba
p4149
I4
sVD1
p4150
I8
sV\u6bd4\u5982
p4151
I10
sVPaperwhite
p4152
I96
sV\u5f00\u9500
p4153
I2
sV\u61d2\u60f0
p4154
I2
sV\u6bd5\u6dd1\u654f
p4155
I2
sV\u63a2\u9669
p4156
I2
sV\u7279\u6027
p4157
I6
sV\u56fd\u4ea7\u624b\u673a
p4158
I4
sV\u9001\u7ed9
p4159
I6
sV\u5f31
I4
sV\u665a
I4
sVdepend
p4160
I2
sV\u552e\u540e
p4161
I2
sV\u8fd9\u8f6e
p4162
I2
sV\u6574\u6574\u9f50\u9f50
p4163
I2
sV\u8868\u6f14
p4164
I2
sV\u4ec5\u9650
p4165
I2
sV0
I2
sV\u901a\u8baf\u5f55
p4166
I4
sV\u5f3a
I14
sV\u53ef\u7231
p4167
I26
sV\u52a1\u5b9e
p4168
I2
sV\u89c1
I8
sV\u51b3\u6218
p4169
I2
sV\u6025\u5267
p4170
I2
sV\u76f8\u7ea6
p4171
I2
sV\u5fc3\u60c5
p4172
I10
sV\u91d1
I2
sV\u7f51\u4e0a\u5546\u5e97
p4173
I6
sV\u90ed\u67d0
p4174
I48
sV\u516b\u4ed9
p4175
I4
sV\u51e0\u5341\u4ebf
p4176
I2
sV\u5468
I6
sV\u5173\u952e\u56e0\u7d20
p4177
I2
sV\u5f3a\u673a
p4178
I2
sV\u8001\u4eba
p4179
I6
sV\u529e\u516c\u5ba4
p4180
I6
sV\u5fc3\u6001
p4181
I4
sV\u5fc3\u6000
p4182
I2
sV\u6e29\u5fb7
p4183
I2
sV____
p4184
I2
sV\u653b\u7565
p4185
I2
sV\u8ddf\u7740
p4186
I6
sV\u9002\u7528
p4187
I8
sV\u6e2f
I2
sV\u8054\u7f51
p4188
I50
sV\u5c0f\u63d0\u59c6
p4189
I4
sV\u79ef\u70b9
p4190
I4
sV\u4f55\u5904
p4191
I2
sV\u5546\u52a1\u4eba\u58eb
p4192
I2
sV\u8001\u4e09
p4193
I4
sV\u5341\u5168\u5341\u7f8e
p4194
I2
sV\u6469\u5929\u5927\u697c
p4195
I2
sV...........1
p4196
I2
sV\u58f0\u660e
p4197
I98
sV\u7edf\u4e00
p4198
I2
sV\u8d25\u8bc9
p4199
I2
sV\u5174\u8bb8
p4200
I2
sV\u8fd9\u8fb9
p4201
I2
sV\u8fc7\u6765
p4202
I14
sV\u7b2c\u4e00\u6279
p4203
I4
sV\u4f3c\u4e4e
p4204
I18
sV\u4e09\u661f\u7535\u5b50
p4205
I4
sV\u63a8\u51fa
p4206
I216
sV\u6d77\u62a5
p4207
I6
sV\u7c73\u7c92
p4208
I2
sVWindows7
p4209
I2
sV\u4ef7\u683c
p4210
I20
sVWindows8
p4211
I8
sV\u4e0d\u7cfb
p4212
I4
sV\u6269\u62db
p4213
I2
sV\u521b\u65b0
p4214
I2
sV\u4ea4\u53cb
p4215
I4
sV\u7279\u610f
p4216
I2
sV\u4ea4\u53c9
p4217
I2
sV\u7528
I184
sV\u56db\u4ee3
p4218
I4
sV\u5b58\u6d3b
p4219
I2
sVNeedham
p4220
I2
sV\u679c\u7136
p4221
I2
sV\u6613\u62c9\u7f50
p4222
I6
sV\u9a6c\u8482\u4e9a
p4223
I2
sV\u5927\u767d\u5154
p4224
I48
sV\u6240\u5f97
p4225
I2
sV\u8463\u4e8b\u957f
p4226
I4
sV493298
p4227
I2
sV\u6ca1\u88c2
p4228
I2
sV\u53d1\u5c55
p4229
I70
sV\u8d5b\u573a
p4230
I2
sV\u966a
I6
sV\u5f88\u70e6
p4231
I2
sV\u8ffd\u5fc6
p4232
I2
sV\u76f8\u7ed3\u5408
p4233
I2
sV\u5c31\u662f
p4234
I100
sV\u6c42\u8bc1
p4235
I2
sV\u5916\u9047
p4236
I2
sV\u5168\u5bb6
p4237
I2
sV\u4e24\u9762\u6027
p4238
I2
sV\u9a6c\u80cc\u4e0a
p4239
I2
sVDamon
p4240
I2
sV\u4e0d\u582a\u91cd\u8d1f
p4241
I2
sV\u559c\u6b22
p4242
I92
sV\u6bcf\u65e5
p4243
I2
sV\u4e45
I6
sV143
p4244
I2
sV140
p4245
I2
sV\u58f0\u671b
p4246
I2
sV\u7535\u6e90
p4247
I4
sV\u8b66\u957f
p4248
I2
sV14.
p4249
I2
sV\u66ff\u4ee3
p4250
I2
sV\u83dc
I2
sV\u5546\u5bb6
p4251
I16
sV\u95e8
I2
sV\u89e3\u5f00
p4252
I6
sVUlike
p4253
I6
sV\u517b
I2
sVWorldpanel
p4254
I2
sVandroid4fans
p4255
I2
sV\u767b\u8bb0
p4256
I48
sV\u663e\u773c
p4257
I2
sV\u8bbe\u65bd
p4258
I2
sV\u7f8e\u5c11\u5973
p4259
I4
sV\u5e03\u5c40
p4260
I6
sV\u9f0e
I2
sV\u897f\u4fa7
p4261
I2
sV\u809a\u5b50
p4262
I4
sV\u6280\u672f\u652f\u6301
p4263
I4
sV\u65d7\u53f7
p4264
I2
sV\u5171\u6c5f\u8def
p4265
I2
sV\u914d\u5f97
p4266
I2
sV\u5b83
I126
sV\u903c
I4
sV\u65c5\u884c
p4267
I54
sV\u6dd1\u5973
p4268
I2
sV\u8d28\u6734
p4269
I2
sV\u63a8\u52a8
p4270
I4
sV\u94c1\u5854
p4271
I4
sV\u67d4\u6027
p4272
I12
sV\u8d5a
I2
sV\u53d7\u5ba1
p4273
I2
sV14.3
p4274
I2
sV\u5668
I2
sV14.9
p4275
I2
sV\u9020\u6210
p4276
I2
sV\u8e51\u624b\u8e51\u811a
p4277
I4
sV820
p4278
I6
sV\u68a6\u60f3
p4279
I18
sV\u95e8\u6d3e
p4280
I2
sV\u6709
I732
sV\u626a\u5fc3\u81ea\u95ee
p4281
I2
sV\u4efb\u52a1
p4282
I14
sV\u7edd\u5bc6
p4283
I2
sV\u539f\u578b
p4284
I2
sV\u624b\u6bb5
p4285
I2
sV\u788e\u82b1
p4286
I4
sV\u6240\u5c5e
p4287
I2
sV\u6d89\u9ec4
p4288
I2
sV\u89e6\u72af
p4289
I2
sV\u518d\u89c1
p4290
I4
sV\u52a8\u4f5c
p4291
I12
sV\u5efa\u7acb
p4292
I12
sV\u8fdc\u7a0b\u63a7\u5236
p4293
I2
sV\u6a21\u578b
p4294
I2
sV\u7edd\u5bf9
p4295
I14
sVPocket
p4296
I2
sV\u98df\u7269
p4297
I2
sV\u5206\u7f5a
p4298
I2
sV\u67d0\u79cd
p4299
I2
sVG
I170
sV\u7092\u81f3
p4300
I2
sV\u6570\u636e\u6d41
p4301
I2
sV\u65b0\u52a0\u5761\u5143
p4302
I2
sV\u8bf7\u52ff
p4303
I2
sV\u6ed1\u96ea
p4304
I6
sV\u4eba\u6570
p4305
I2
sV\u7ec8\u70b9
p4306
I2
sV\u96be\u89e3
p4307
I2
sV\u53e6
I58
sV\u96e8
I4
sVApp
p4308
I34
sV\u82e5\u8981
p4309
I2
sV\u5355\u4f4d
p4310
I8
sV\u8de8\u754c
p4311
I2
sV\u6309\u952e
p4312
I10
sVthink
p4313
I2
sV\u590d\u53e4\u98ce
p4314
I2
sV\u8054\u7cfb
p4315
I2
sVBlack
p4316
I2
sV\u9c9c\u89c1
p4317
I2
sV\u62b1
I2
sV\u53d1\u5e03
p4318
I408
sV\u80b2\u78a7
p4319
I4
sV\u5efa\u7b51
p4320
I4
sVeyes
p4321
I2
sV\u644a
I4
sV\u8270\u96be\u56f0\u82e6
p4322
I2
sV\u884c\u52a8
p4323
I60
sV\u4ee4\u4eba\u582a\u5fe7
p4324
I2
sV11
p4325
I218
sV10
p4326
I264
sV13
p4327
I36
sV12
p4328
I168
sV15
p4329
I28
sV14
p4330
I26
sV17
p4331
I14
sV16
p4332
I32
sV19
p4333
I10
sV18
p4334
I10
sV\u8def
I6
sV\u6c14\u7403
p4335
I48
sV\u62c9\u7968
p4336
I48
sV\u6309\u94ae
p4337
I2
sV.7
p4338
I2
sV1.
p4339
I8
sV\u6d12\u8131
p4340
I2
sV\u7ec4\u88c5
p4341
I2
sV\u6f14\u8bb2
p4342
I2
sV\u53bb\u5e74\u540c\u671f
p4343
I6
sV\u5148\u524d
p4344
I2
sV\u58f0\u6548
p4345
I2
sV\u7387\u5148
p4346
I6
sVWiFi
p4347
I2
sV\u7ed9\u51fa
p4348
I4
sV\u6293\u4f4f
p4349
I6
sV\u8d6b\u7136
p4350
I2
sV\u5e02\u503c
p4351
I6
sV\u6d77\u601d
p4352
I4
sV\u5355\u4e00
p4353
I2
sV\u8c08\u59a5
p4354
I2
sV\u4e86\u8fd1
p4355
I4
sV205
p4356
I4
sV206
p4357
I4
sV\u9152\u7cbe
p4358
I2
sV\u9996\u5e2d\u6267\u884c\u5b98
p4359
I8
sV\u65bd\u820d
p4360
I2
sVbeta
p4361
I4
sV\u5348\u540e
p4362
I2
sV\u521a\u521a
p4363
I14
sV\u8fd8
I334
sV\u5df2\u4e8e
p4364
I6
sV\u5f02\u56fd\u60c5\u8c03
p4365
I4
sV\u6574\u6cbb
p4366
I4
sV\u54ea
I4
sVD2
p4367
I4
sV\u539f\u56e0
p4368
I20
sV\u9ad8\u4e8e
p4369
I6
sV\u641c\u6551
p4370
I2
sV\u7684\u7684
p4371
I4
sV\u663e\u7136
p4372
I10
sV\u7403\u5458
p4373
I4
sV\u7eff\u732a
p4374
I2
sVWP
p4375
I10
sVWi
p4376
I16
sVWu
p4377
I2
sVRIM
p4378
I22
sVStudio
p4379
I2
sV\u5b89\u5fb7\u9c81
p4380
I2
sV\u5fb7\u8fea\u6b27
p4381
I2
sVHeist
p4382
I2
sV\u6700\u65b0\u7248
p4383
I4
sV\u62df
I6
sV\u4f8b\u5982
p4384
I8
sV\u4e0d\u7981
p4385
I2
sV\u8d28\u611f
p4386
I4
sV\u4f4d\u7f6e\u56fe
p4387
I2
sV\u6d3b\u529b
p4388
I2
sV\u597d\u4e8b
p4389
I2
sV\u957f\u9014\u5ba2\u8f66
p4390
I2
sV920
p4391
I30
sV\u8f6c\u773c
p4392
I2
sV\u5236\u4f5c
p4393
I12
sV\u9ad8\u4ef7
p4394
I4
sV\u5468\u8fb9
p4395
I4
sV\u604b\u6b4c
p4396
I6
sV\uff0d
I2
sV\u9012\u7ed9
p4397
I2
sV\u91c7\u53d6\u63aa\u65bd
p4398
I2
sVGrand
p4399
I4
sV\u6d4b\u8bd5\u5de5\u5177
p4400
I4
sV\u6c89\u5bc2
p4401
I2
sV\u914d\u5907
p4402
I30
sV\u81ea\u5b9a\u4e49
p4403
I6
sV\u52b2\u513f
p4404
I2
sV\u4eac
I2
sV\u786c\u4ef6
p4405
I62
sV\u5411\u524d\u8d70
p4406
I2
sV\u8bc4\u4ef7
p4407
I4
sV\u5206\u522b
p4408
I16
sV\u5e02\u573a
p4409
I252
sV\u9760\u62e2
p4410
I2
sV\u5dee\u4e8b
p4411
I2
sV\u5f00\u91c7
p4412
I2
sV\u5546\u5e97
p4413
I40
sV\u7b11\u8138
p4414
I2
sV\u522b\u540d
p4415
I4
sV\u9053
I4
sV\u5355
I4
sV13.3
p4416
I2
sV\u806a\u660e\u667a\u6167
p4417
I2
sV\u91cd\u78c5
p4418
I2
sV\u82ac\u5170\u4eba
p4419
I2
sV\u5c1a\u672a
p4420
I6
sV\u90e8
I20
sV\u53ea
I34
sV\u8d8a\u72f1
p4421
I36
sV\u8ba4\u8bc6
p4422
I4
sV\u672c\u5e74
p4423
I2
sVPlanetbeing
p4424
I2
sV\u5e73\u9762
p4425
I2
sV\u6c34\u6ce1
p4426
I2
sV\u8d27\u7248
p4427
I2
sV\u7f6e\u8bc4
p4428
I2
sV\u7d27\u63a5
p4429
I2
sV\u8fdb\u8fc7
p4430
I2
sV\u6c5f\u5c71
p4431
I2
sV\u6768\u6d66\u5927\u6865
p4432
I2
sV\u7535\u5f71\u660e\u661f
p4433
I2
sV\u5f00\u901a
p4434
I4
sV\u6d17\u6fa1
p4435
I4
sV\u5b83\u4eec
p4436
I122
sV\u89e3\u5bc6
p4437
I8
sV\u6ce8\u518c
p4438
I12
sV\u7740\u624b
p4439
I2
sV\u56fe\u7247
p4440
I118
sV\u5206\u53d1
p4441
I2
sVTegra
p4442
I4
sV8064
p4443
I2
sV\u666e\u904d\u5b58\u5728
p4444
I2
sV\u8ffd\u5bfb
p4445
I4
sV\u8870\u9000
p4446
I4
sVwake
p4447
I2
sV\u5265\u79bb
p4448
I48
sV\u5347\u81f3
p4449
I2
sV\u6210\u5c31\u611f
p4450
I2
sV\u74f7\u7247
p4451
I2
sV\u7279\u6548
p4452
I2
sV\u5f52\u548e\u4e8e
p4453
I4
sV\u5168
I12
sV\u8bef
I6
sV\u6570
I2
sV\u81f3
I40
sV\u4e13\u95e8
p4454
I6
sV\u4e3e\u884c
p4455
I8
sV\u56fd
I6
sV\u63a8\u5411
p4456
I4
sV\u594f\u51ef\u6b4c
p4457
I2
sV\u65b0\u589e
p4458
I8
sV\u6708\u5e95
p4459
I10
sV\u4e0b\u79f0
p4460
I4
sV\u4f17
I2
sV\u65c5
I2
sV\u521b\u610f
p4461
I48
sV\u62bd\u5956
p4462
I48
sV\u73b0\u72b6
p4463
I4
sV\u5382\u5bb6
p4464
I2
sVCoyote
p4465
I2
sV\u6734\u7d20
p4466
I2
sV\u4e07\u90e8
p4467
I12
sV\u6d41\u7545
p4468
I2
sV\u4f55\u5c71
p4469
I2
sVtita
p4470
I8
sV\u5f71\u89c6\u5267
p4471
I2
sV\u4eba\u624d
p4472
I6
sV\u4e8b\u6545
p4473
I2
sV\u5fcd\u5fc3
p4474
I2
sV\u54e6
I118
sV\u53ef\u77e5
p4475
I2
sV\u68ee
I2
sV\u4e86\u89e3
p4476
I8
sV\u5f88\u6162
p4477
I2
sV\u4ec7\u6068
p4478
I2
sV\u4e00
I140
sV\u5077\u7aa5
p4479
I2
sV\u901a\u91cf
p4480
I2
sVthey
p4481
I2
sV\u5171\u6709
p4482
I2
sV\u666e\u8fea
p4483
I2
sV\u5316\u89e3
p4484
I2
sV\u5077\u7a83
p4485
I2
sV\u51e0\u7387
p4486
I2
sV\u5174\u8d77
p4487
I2
sV\u91cd\u7a0e
p4488
I2
sV\u7136\u540e
p4489
I22
sV\u7814\u5236
p4490
I2
sV4
I142
sV\u4e0d\u7ba1
p4491
I10
sV\u95f4\u9699
p4492
I2
sVRico
p4493
I2
sV\u5bfc\u51fa
p4494
I2
sV\u4e0a\u4e07\u5143
p4495
I2
sV\u54cd\u8d77
p4496
I4
sV\u56fd\u4fe1
p4497
I2
sV\u4fdd\u6709\u91cf
p4498
I2
sV\u8fd0\u7528
p4499
I6
sV\u914d\u5bf9
p4500
I2
sV\u94c5\u7b14
p4501
I2
sV\u6108\u5408
p4502
I2
sV\u4e0d\u7b97
p4503
I2
sV\u6400\u6276
p4504
I2
sV\u5bf9
I368
sVTA
p4505
I2
sV\u65f6\u5149\u834f\u82d2
p4506
I4
sV\u4f18\u79c0
p4507
I2
sV\u529e\u6cd5
p4508
I2
sV\u8be5\u56fd
p4509
I6
sV\u7d27\u6025
p4510
I6
sV\u4e13\u6ce8
p4511
I2
sV\u4ebf\u90e8
p4512
I10
sVNew
p4513
I4
sV\u6269\u6563
p4514
I48
sV\u8702\u9e1f
p4515
I2
sV\u539f\u5382
p4516
I2
sV\u5c65\u884c
p4517
I2
sV\u65e0\u9700
p4518
I4
sV\u6e38\u620f
p4519
I348
sV\u5427
I206
sV\u5fcd\u65e0\u53ef\u5fcd
p4520
I2
sV\u5173\u7231
p4521
I2
sV\u804c\u4f4d
p4522
I4
sV\u6233
I104
sV\u56fd\u4f01
p4523
I2
sV\u53d1\u5b89
p4524
I2
sV\u6e90\u4ee3\u7801
p4525
I4
sV\u6ca1\u8f66
p4526
I2
sV\u6301\u6709
p4527
I4
sV\u542c\u6b4c
p4528
I4
sV\u652f\u6301
p4529
I78
sV\u9762\u677f
p4530
I6
sV\u5426\u5219
p4531
I6
sV849
p4532
I96
sV\u5077
I2
sViBOOKS
p4533
I2
sV\u4e0a\u9762
p4534
I4
sV\u4e8b\u52a1\u90e8\u957f
p4535
I2
sV\u539f\u5219
p4536
I56
sV\u65b0\u5a18
p4537
I2
sV\u798f
I2
sV\u9690\u60a3
p4538
I2
sV\u56fd\u4ea7
p4539
I8
sV\u6bdb\u59c6
p4540
I2
sV\u624b\u6e38
p4541
I4
sVMacBook
p4542
I8
sVAudio
p4543
I2
sV\u53ef\u7528
p4544
I2
sV\u52a9
I2
sV\u5408\u5531
p4545
I4
sV\u9884\u8ba2
p4546
I10
sV\u9884\u8ba1
p4547
I14
sV\u62c9\u5f00\u6218\u5e55
p4548
I2
sV\u7531\u6b64
p4549
I2
sV\u53cc\u7f51
p4550
I2
sV\u6740\u6bd2\u8f6f\u4ef6
p4551
I4
sV\u9526\u56ca
p4552
I2
sV\u5efa\u7f51
p4553
I2
sV\u6c42
I8
sV\u88c5
I2
sV\u4e71\u795e
p4554
I4
sVDocomo
p4555
I4
sVallthingsD
p4556
I6
sV\u65f6\u673a
p4557
I2
sV\u5468\u4e00
p4558
I10
sV\u6cd5\u9662
p4559
I8
sV17958
p4560
I2
sV\u53f0\u5f0f\u673a
p4561
I2
sV\u5c0f\u4e09
p4562
I2
sV\u66f4\u70b9
p4563
I2
sV\u8feb
I2
sV\u5eb7\u4f73\u96c6\u56e2
p4564
I2
sV\u65f6\u671f
p4565
I2
sVUSB
p4566
I2
sV\u5883\u754c
p4567
I4
sV\u98ce\u9761
p4568
I6
sV\u6027\u683c
p4569
I2
sVLinkedIn
p4570
I6
sV\u7537\u5973\u8001\u5c11
p4571
I2
sV\u6dd8\u6c14
p4572
I2
sV\u8bf4\u597d
p4573
I2
sV\u6c83\u5179
p4574
I10
sV\u8865\u8d5b
p4575
I4
sV\u83b7\u80dc
p4576
I2
sV\u6c88\u9633\u5e02
p4577
I6
sV\u901a\u900f
p4578
I2
sV\u51b3\u6597
p4579
I2
sV\u4ed6
I146
sV\u8865\u8d34
p4580
I6
sV\u7ec4\u59d4\u4f1a
p4581
I2
sV\u4e45\u5750
p4582
I2
sV\u8d26\u5355
p4583
I4
sV\u5c0f\u4e8e
p4584
I2
sV\u7a97\u53e3
p4585
I2
sV\u7269
I2
sV\u5927\u8d5b
p4586
I12
sV\u7834
I4
sV\u90d1\u5dde
p4587
I6
sV\u65e0\u9650
p4588
I14
sV\u7a97\u53f0
p4589
I2
sV\u5929\u79e4\u5ea7
p4590
I2
sV\u6dd8\u6c70
p4591
I4
sV\u804c\u4e1a
p4592
I106
sV\u9001\u793c
p4593
I4
sV\u5916\u89c2
p4594
I6
sV\u88c5\u5907
p4595
I2
sV\u901a\u8fc7
p4596
I94
sV\u51cc\u6668
p4597
I4
sV\u6b4c\u66f2
p4598
I8
sV\u5b9d
I2
sV\u4e0a\u8981
p4599
I2
sVSIM
p4600
I10
sV\u8def\u7ebf
p4601
I4
sVMatias
p4602
I2
sV\u771f\u5fc3
p4603
I2
sV\u4fee\u8865
p4604
I4
sV\u552e
I56
sV\u56fd\u5185
p4605
I160
sV\u730e\u6237\u5ea7
p4606
I2
sV\u5206\u4eab
p4607
I70
sV\u6e38\u620f\u738b
p4608
I2
sV\u65e0\u89e3
p4609
I2
sVHDMI
p4610
I2
sV\u8bc4\u5206
p4611
I4
sV\u7a7a\u4e2d
p4612
I2
sV\u9053\u5177
p4613
I14
sVfall
p4614
I2
sV\u987e\u5ba2
p4615
I2
sV\u7b7e\u7ea6
p4616
I2
sV\u9065\u9065\u65e0\u671f
p4617
I2
sV\u5dee\u522b
p4618
I2
sV\u65e0\u89c6
p4619
I2
sV\u8c6a\u8a00
p4620
I2
sV\u8d85\u5927
p4621
I2
sV\u4e3b\u9898
p4622
I14
sV\u79d1\u6280
p4623
I34
sV\u5173\u6ce8
p4624
I112
sV\u6478
I6
sV\u5bf9\u6bd4
p4625
I12
sV\u5382
I2
sV\u6bd4\u4ef7
p4626
I4
sV\u9ad8\u5206
p4627
I2
sV\u5217
I4
sV\u9519
I2
sV\u4f4e\u4ef7
p4628
I8
sV\u6218\u58eb
p4629
I2
sVstood
p4630
I2
sV\u63a5\u8d77
p4631
I2
sV736000
p4632
I2
sV\u6237
I2
sV\u5d29\u6e83
p4633
I6
sVNFC
p4634
I22
sV\u5962\u4f88\u54c1
p4635
I2
sVK
I64
sV\u5b63\u5ea6
p4636
I6
sVArcher
p4637
I2
sV\u8bbe\u7f6e
p4638
I4
sV\u72ec\u6709
p4639
I2
sV\u9020\u5047
p4640
I48
sV\u6765
I124
sV\u4f4e\u4e8e
p4641
I10
sV\u5de8\u5927\u6210\u529f
p4642
I2
sV\u56de\u97f3
p4643
I2
sV\u4ee5\u5f80
p4644
I6
sV\u5411\u524d
p4645
I2
sV\u63a7\u5236
p4646
I24
sV\u521b\u65b0\u80fd\u529b
p4647
I2
sV\u51b3\u7b56
p4648
I2
sV\u98ce\u60c5
p4649
I2
sV\u5723\u5730\u4e9a\u54e5
p4650
I2
sV\u770b\u5f97\u8d77
p4651
I10
sV\u5c0f\u5077
p4652
I4
sV\u672a\u77e5
p4653
I2
sV\u5b9e\u9645
p4654
I4
sV\u56ca\u62ec
p4655
I2
sV\u6447\u4e00\u6447
p4656
I4
sV\u73b0\u5df2
p4657
I2
sV\u70ab\u8000
p4658
I2
sV\u7cbe\u81f4
p4659
I2
sV\u5e26\u5bbd
p4660
I2
sV\u91cd\u6574
p4661
I2
sV\u64a4\u79bb
p4662
I2
sVLTE
p4663
I56
sV\u7535\u7ebf\u6746
p4664
I4
sV\u5411\u5f80
p4665
I2
sV\u610f\u5916
p4666
I6
sV\u505c\u4e0b\u6765
p4667
I2
sV\u706b\u7206
p4668
I8
sV\u4e2d\u5fc3
p4669
I10
sV\u7b7e\u7f72
p4670
I2
sV\u5e8a
I2
sV\u75af\u72c2
p4671
I14
sV\u4e0b\u65ec
p4672
I2
sV\u6811
I4
sV\u522b\u65e0\u9009\u62e9
p4673
I2
sV\u91cd\u65b0
p4674
I12
sV\u5fc3\u6709\u7075\u7280\u4e00\u70b9\u901a
p4675
I2
sV\u603b\u7684\u6765\u8bf4
p4676
I2
sV!
I170
sV\u62a2
I12
sV\u68a6
I10
sV\u5916\u8868
p4677
I2
sV\u76f8\u6740
p4678
I2
sV\u5154\u5b50
p4679
I12
sV\u731c\u5bf9
p4680
I48
sV\u65e0\u53ef\u66ff\u4ee3
p4681
I2
sV\u5212\u5206
p4682
I2
sVMobileme
p4683
I2
sV\u73af\u5883\u56e0\u7d20
p4684
I6
sV\u5c31\u7eea
p4685
I2
sV\u65e5\u8baf
p4686
I74
sV\u63f4\u5f15
p4687
I4
sV\u76f8\u673a
p4688
I16
sV\u666e\u901a
p4689
I6
sV\u52a8\u542c
p4690
I2
sV\u7535\u68af
p4691
I2
sV\u4e0b\u65b9
p4692
I2
sV\u5bfc\u8d2d
p4693
I2
sV\u65e5\u8bb0
p4694
I4
sV\u4e25\u91cd
p4695
I10
sV\u574f\u86cb
p4696
I2
sV\u635f\u4eba
p4697
I2
sV\u6bd4\u4f8b
p4698
I8
sV\u4f7f
I22
sV\u5404
I10
sV\u773c\u79d1\u5b66
p4699
I2
sV\u5468\u4e94
p4700
I4
sV\u65e0\u8bba
p4701
I8
sV\u65c5\u9014
p4702
I2
sVCSFB
p4703
I6
sV24
p4704
I106
sV25
p4705
I10
sV26
p4706
I22
sV27
p4707
I72
sV20
p4708
I40
sV21
p4709
I22
sV22
p4710
I24
sV23
p4711
I36
sV\u79bb\u5a5a
p4712
I4
sV\u7389\u7c73
p4713
I2
sV\u6570\u767e
p4714
I2
sV29
p4715
I28
sV\u963f\u5c14\u5361\u7279
p4716
I12
sV2.
p4717
I8
sV\u7d2f\u4e8e
p4718
I2
sV\u4e2d\u5c06
p4719
I2
sV7.03
p4720
I2
sV\u54c1\u5fb7
p4721
I2
sV\u516c\u5f00
p4722
I6
sV\u516c\u5f0f
p4723
I2
sV\u9a6c\u4e0a
p4724
I52
sV\u53d1\u5fae\u535a
p4725
I48
sV\u65e0\u8bed
p4726
I2
sV\u4e24\u6b3e
p4727
I10
sVBad
p4728
I2
sV\u5efa\u623f
p4729
I2
sV\u5ba1\u8bae
p4730
I2
sV\u9002\u5e94
p4731
I2
sV\u4e0a\u8bfe
p4732
I2
sV\u5f00\u8f66
p4733
I6
sV\u8863\u670d
p4734
I4
sVLaptop
p4735
I2
sV\u4e0d\u6789
p4736
I2
sV\u8bc1\u636e
p4737
I12
sVsomeone
p4738
I2
sV\u798f\u5c9b
p4739
I4
sV\u4e56\u623e
p4740
I2
sViPlayer
p4741
I6
sV\u5916\u8bbe
p4742
I2
sV\u4e0d\u6765
p4743
I48
sV\uff09
I328
sV\u9e45\u5a18
p4744
I48
sV\u5343\u65b9\u767e\u8ba1
p4745
I2
sV\u5f00\u8f9f
p4746
I4
sVMT788
p4747
I4
sV\u50ac
I2
sV\u53e4\u8001
p4748
I6
sV\u6d3b\u7740
p4749
I4
sVWired
p4750
I2
sV\u8fbe
I26
sVBB10
p4751
I2
sV\u7f51\u9875
p4752
I6
sV\u4ecb\u5165
p4753
I6
sVEE
p4754
I6
sVPatentlyApple
p4755
I2
sV\u76f8\u4e92
p4756
I2
sV\u6df9\u6b7b
p4757
I2
sVJeff
p4758
I2
sV\u72c2\u7b11
p4759
I2
sV\u65f6\u5019
p4760
I66
sV\u7535\u89c6\u76d2
p4761
I2
sV\u795d
I4
sV\u6361
I2
sV\u4e0d\u670d
p4762
I2
sV\u30ec
I6
sV\u73bb\u7483
p4763
I4
sV\u7eb5\u6709
p4764
I2
sV\u597d\u50cf
p4765
I2
sV\u65fa
I2
sVPassbook
p4766
I14
sV\u767e\u5fd9\u4e4b\u4e2d
p4767
I2
sV\u68a6\u788e
p4768
I2
sVAMIR
p4769
I2
sV\u7b49\u5019
p4770
I2
sV\u4e0b\u6765
p4771
I6
sV\u5f15\u53d1
p4772
I6
sV\u5f62\u52bf
p4773
I2
sV\u2022
I4
sV\u94f6\u884c
p4774
I2
sV\u8fdc\u53bb
p4775
I4
sV\u516c\u53f8\u51fa\u54c1
p4776
I4
sV180
p4777
I2
sVCS4398
p4778
I2
sV\u516c\u5e73
p4779
I16
sV185
p4780
I2
sVX1
p4781
I6
sVWP8
p4782
I32
sV\u516c\u5e03
p4783
I22
sV\u7559\u5728
p4784
I2
sV\u7528\u529f\u8bfb\u4e66
p4785
I2
sVWP7
p4786
I14
sV\u897f\u56ed
p4787
I2
sVZombies
p4788
I2
sV\u5468\u906d
p4789
I4
sVC3602
p4790
I6
sV\u9000\u6362
p4791
I6
sV\u900f\u660e
p4792
I4
sV\u591a\u591a\u5c11\u5c11
p4793
I2
sV\u9ad8\u51fa
p4794
I2
sV\u5927\u91cf
p4795
I8
sV\u8bfb
I2
sV\u6fc0\u52a8
p4796
I6
sV\u8e22\u8e0f
p4797
I2
sV\u98ce\u9a70\u7535\u63a3
p4798
I2
sV\u5c55\u793a
p4799
I12
sV\u55a7\u56a3
p4800
I2
sV\u544a\u8bc9
p4801
I52
sV\u5982\u679c
p4802
I66
sV\u5f88\u8fdc
p4803
I2
sVPower
p4804
I2
sV\u8e29
I48
sVRPG
p4805
I2
sV\u6613\u89c2
p4806
I8
sV\u4eba\u751f\u8def
p4807
I2
sV\u8d26\u6237
p4808
I14
sV\u8def\u8fc7
p4809
I50
sV\u4e0d\u662f
p4810
I96
sV\u5ffd\u7565
p4811
I2
sV\u9879
I6
sV\u5faa\u73af
p4812
I2
sV\u7f29\u77ed
p4813
I8
sV\u4e0b\u67b6
p4814
I2
sV\u4eba\u7c7b
p4815
I8
sV\u56db\u540d
p4816
I2
sV\u586b\u8865
p4817
I2
sV\u539f\u4ef7
p4818
I2
sV87.7
p4819
I2
sV\u906d
I14
sV\u6279\u8bc4
p4820
I2
sV\u6536\u85cf
p4821
I12
sViRock
p4822
I2
sV\u8eab\u4efd\u8bc1
p4823
I48
sV\u5341\u4e03\u5e74
p4824
I4
sV\u53d1\u77ed\u4fe1
p4825
I2
sV\u5e73\u8861
p4826
I2
sV\u503e\u60c5
p4827
I2
sV\u9ad8\u5174
p4828
I2
sV\u611f\u609f
p4829
I2
sV\u4e3a\u4ec0\u4e48
p4830
I114
sV\u4e2d\u534e\u7f51
p4831
I2
sV\u901a\u8bdd
p4832
I16
sV\u5783\u573e\u90ae\u4ef6
p4833
I2
sV\u5199
I8
sVfind
p4834
I2
sV\u5f00\u653e\u6027
p4835
I4
sV\u5bf9\u53f7\u5165\u5ea7
p4836
I2
sV\u5f15\u64ce
p4837
I4
sV\u9003\u907f
p4838
I4
sV\u767e\u5ea6
p4839
I22
sV8
I86
sVSmartQ
p4840
I6
sVDCCI
p4841
I2
sV\u4f18\u60e0\u4ef7
p4842
I2
sV\u79d8\u8bc0
p4843
I96
sV\u573a\u9762
p4844
I2
sV\u4e00\u640f
p4845
I2
sV\u8dd1
I24
sV\u786e\u5b9a
p4846
I6
sV\u8bd5
I12
sV\u786e\u5b9e
p4847
I8
sV\u6316\u6398
p4848
I2
sV\u611f\u60c5
p4849
I8
sV\u7adf
I2
sV\u671f\u76fc
p4850
I4
sV\u79d8\u8bed
p4851
I2
sV\u536b\u58eb
p4852
I4
sV\u6d41\u6cea
p4853
I2
sV\u6709\u6b64
p4854
I2
sV\u5df1
I2
sV\u641c\u7d22
p4855
I6
sV\u82ac\u5170
p4856
I6
sV\u4ea4\u4e92
p4857
I2
sV\u5217\u51fa
p4858
I2
sV\u672c\u5c3c\u8fea\u514b
p4859
I2
sV\u8868\u73b0
p4860
I14
sVGoatse
p4861
I2
sV\u90a3\u8fb9
p4862
I4
sV\u4f20\u51fa
p4863
I6
sV\u606d\u559c
p4864
I48
sV\u79d1\u83ab
p4865
I2
sV\u6cdb\u8d77
p4866
I2
sV\u786e\u4fdd\u60a8
p4867
I2
sVTCL
p4868
I6
sV24.51
p4869
I2
sV\u89e3\u91ca\u4e00\u4e0b
p4870
I2
sV\u5c81\u6708\u6d41\u901d
p4871
I2
sV\u8d74
I2
sVKing
p4872
I4
sV\u7559\u4e0b
p4873
I8
sV\u9ad8\u6548\u7387
p4874
I2
sV\u6b65\u6b65\u9ad8
p4875
I2
sV\u5c31\u7b97
p4876
I2
sV\u5949
I2
sV\u9738\u5360
p4877
I2
sV\u62c5\u5fc3
p4878
I6
sV\u8f6f\u94f6
p4879
I2
sV\u6708\u521d
p4880
I2
sV\u5916\u8d22
p4881
I2
sV\u542f\u7528
p4882
I6
sV\u5929\u9ed1
p4883
I2
sV\u526f
I2
sV\u5927\u9646
p4884
I10
sV\u611f\u6069
p4885
I4
sV\u65f6
I122
sV\u8f7b\u677e\u81ea\u5982
p4886
I2
sV\u5f04\u810f
p4887
I2
sV\u822c\u7684
p4888
I2
sV\u65e0\u7ebf\u7535
p4889
I6
sV\u6570\u5341\u5e74
p4890
I2
sVpoint
p4891
I2
sV\u5982\u610f
p4892
I2
sV\u6ca1\u94b1
p4893
I2
sV\u7d27\u8d34
p4894
I2
sV\u4e0d\u60f3
p4895
I8
sV\u8d25\u9635
p4896
I2
sV\u7ae5\u5e74
p4897
I6
sV\u7f6a\u9b41\u7978\u9996
p4898
I48
sV\u5916\u89c2\u8bbe\u8ba1
p4899
I2
sV\u5c01\u4fe1
p4900
I2
sV\u5de6\u811a
p4901
I4
sV\u9ed1\u591c
p4902
I2
sV\u501f\u94b1
p4903
I2
sV\u8138
I4
sV\u62f3\u51fb
p4904
I4
sV\u5408\u4f5c
p4905
I22
sV6.13
p4906
I2
sV\u5408\u4f53
p4907
I6
sV\u7f18\u5206
p4908
I2
sV\u6d77\u7ef5
p4909
I2
sV\u53cd\u5e94\u529b
p4910
I2
sVchatter
p4911
I2
sV960
p4912
I12
sV\u8bbe\u7acb
p4913
I2
sV\u597d\u574f
p4914
I2
sV\u4efd
I2
sVClove
p4915
I2
sV\u7528\u6237\u754c\u9762
p4916
I54
sV\u62fc\u547d
p4917
I4
sV\u6838\u673a
p4918
I2
sV\u7ade\u4e89
p4919
I12
sV\u6000\u7591
p4920
I6
sV\u5730\u5c06
p4921
I2
sV\u6536\u83b7
p4922
I2
sV\u5fb7\u56fd
p4923
I10
sV\u83ab\u5fd8
p4924
I96
sV\u8fc7\u7a0b
p4925
I10
sV\u6746
I6
sV\u6a2a\u884c
p4926
I2
sV\u65e0\u8c13
p4927
I2
sV\u5750\u4ee5\u5f85\u6bd9
p4928
I2
sV\u5b64\u5c9b
p4929
I2
sV\u6d3b
I2
sVTheNextWeb
p4930
I2
sV\u6709\u6a21\u6709\u6837
p4931
I48
sV\u5341\u5b57\u67b6
p4932
I2
sV\u90ed\u53f0\u94ed
p4933
I2
sV\u6392\u67e5
p4934
I2
sV\u6bd4
I40
sV\u4ea7\u81ea
p4935
I2
sV\u53cc\u65b9
p4936
I50
sV\u52aa\u529b
p4937
I8
sV\u65b0\u624b\u673a
p4938
I2
sV\u4e0d\u6015
p4939
I8
sV\u5973
I4
sV\u7b54\u590d
p4940
I4
sV\u519b\u5de5
p4941
I48
sV\u4e00\u8282\u8bfe
p4942
I2
sV\u89c6\u89d2
p4943
I2
sV\u9502
I48
sV\u5feb\u8282\u594f
p4944
I2
sV\u6b63\u503c
p4945
I2
sV\u89c6\u89c9
p4946
I6
sV\u65e0\u8fb9
p4947
I2
sV\u4f1a\u5458\u5361
p4948
I4
sV\u4e0b\u624b
p4949
I2
sVGREE
p4950
I2
sV\u5965\u54c8\u6768
p4951
I2
sV\u4e70\u7968
p4952
I2
sV\u65e0\u8f9c
p4953
I4
sV\u523b\u9aa8\u94ed\u5fc3
p4954
I2
sV\u8fd1
I8
sV\u62e3
I8
sV\u8be1\u5f02
p4955
I4
sV\u5f00\u53d1\u8f6f\u4ef6
p4956
I2
sV\u6709\u70b9\u50cf
p4957
I2
sV\u9690\u79c1
p4958
I2
sV\u8d85\u5f3a
p4959
I6
sV\u522b\u4eba
p4960
I26
sV\u4ee5\u5916
p4961
I4
sV\u7701
I8
sV\u5582
I2
sV\u8fd9\u91cc
p4962
I14
sV\u6d88\u8017
p4963
I4
sV\u5417
I136
sV\u56fa\u4ef6
p4964
I16
sV\u51e0\u6b3e
p4965
I2
sV\u5c0f\u57ce
p4966
I2
sV\u503e\u659c
p4967
I2
sV\u672c\u5fae\u535a
p4968
I2
sV\u88ab\u8feb
p4969
I2
sV\u54ac
I4
sV\u63d0\u793a\u97f3
p4970
I2
sV\u4e09\u6708\u5e95
p4971
I2
sV\u7a33
I2
sV\u978b\u5b50
p4972
I2
sV\u4e3a\u9898
p4973
I2
sV\u8bb8\u914d\u7ed9
p4974
I2
sV\u9700\u53bb
p4975
I2
sV\u5f00\u8bbe
p4976
I2
sV\u5145
I2
sV300
p4977
I4
sV\u4e0d\u632f
p4978
I2
sVO
I4
sV\u5c0f\u4f17
p4979
I2
sV\u91cd\u62f3
p4980
I2
sVfrom
p4981
I2
sV\u5355\u5361
p4982
I2
sV\u6761
I4
sV\u65e0\u8bba\u662f
p4983
I12
sV\u5c0f\u578b
p4984
I48
sV\u9ad8\u547c
p4985
I2
sV\u7ecf\u5386
p4986
I14
sV\u589e\u52a0
p4987
I20
sV\u9b3c\u5c4b
p4988
I2
sV\u4e1a\u5185\u4eba\u58eb
p4989
I2
sV\u9ad8\u7ba1
p4990
I8
sV\u8054\u60f3
p4991
I194
sV\u8bc1\u660e
p4992
I2
sV\u6b64\u4e3e
p4993
I4
sV\u575a\u4e0d\u53ef\u6467
p4994
I48
sV\u4e2d\u5956
p4995
I4
sV\u9762\u7eb1
p4996
I2
sV\u8bb0\u8005
p4997
I8
sV\u58f0\u79f0
p4998
I2
sV\u966a\u4f60\u5230
p4999
I2
sV\u6301\u7eed
p5000
I2
sV\u6293\u53d6
p5001
I4
sV\u56fe\u6848
p5002
I2
sV\u6218\u5f79
p5003
I2
sV\u6597\u725b\u72ac
p5004
I2
sV\u8d81\u5176
p5005
I2
sV\u62b9
I2
sV\u6bb5\u8ddd\u79bb
p5006
I2
sVopponent
p5007
I2
sV\u6000\u7740
p5008
I2
sV\u8d85\u5e02
p5009
I2
sVQWERTY
p5010
I2
sV\u4e13\u7528
p5011
I4
sV\u9010\u6b65
p5012
I4
sV\u52a8\u529b
p5013
I2
sV\u7ed3\u76df
p5014
I2
sV\u4efb\u4f55
p5015
I24
sV\u54ed
I4
sV\u4ed8\u51fa
p5016
I2
sV\u79bb\u5f02
p5017
I2
sV\u79bb\u5f00
p5018
I10
sV\u9886\u7565
p5019
I2
sV\u5fae\u4e4e\u5176\u5fae
p5020
I2
sV\u98ce\u8f66
p5021
I2
sV\u6392\u65a5
p5022
I2
sV\u9ed1\u5ba2
p5023
I10
sVT\u6064
p5024
I2
sV\u505c\u8f66\u573a
p5025
I2
sVNet
p5026
I2
sV\u591f
I48
sVMap
p5027
I4
sV%
I184
sV\u6b64\u4e8b
p5028
I2
sV\u8f6f\u6027
p5029
I2
sV\u4f18\u60e0
p5030
I2
sV\u5fc3\u91cc
p5031
I10
sV\u91d1\u989d
p5032
I4
sV\u8001\u516c
p5033
I8
sV\u8c22\u5e55
p5034
I2
sVMac
p5035
I28
sV\u5de5\u4f5c\u65e5\u5185
p5036
I2
sVMan
p5037
I2
sVCase
p5038
I2
sV\u89c4\u5f8b
p5039
I6
sV\u81ea\u4e3b\u7cfb\u7edf
p5040
I48
sV\u9c81\u6ee8\u900a
p5041
I4
sV\u65d7\u4e0b
p5042
I32
sV\u8054\u5408\u63a8\u51fa
p5043
I2
sV\u8fdb\u4e00\u6b65
p5044
I56
sV\u76ee\u7684\u5730
p5045
I2
sV\u884c\u4e3a
p5046
I8
sV\u56db\u500d
p5047
I2
sV\u79bb\u5f97
p5048
I2
sV\u6bcf\u6708
p5049
I4
sV\u56e2\u59d4
p5050
I2
sV2000
p5051
I10
sV2007
p5052
I2
sV2004
p5053
I4
sV2005
p5054
I6
sV2008
p5055
I2
sV\u884c\u4e1a
p5056
I12
sV\u53bb\u5e74
p5057
I64
sV\u5408
I2
sV\u4e00\u65b9\u9762
p5058
I6
sV\u6ed1\u843d
p5059
I2
sV\u4e86\u6012
p5060
I2
sV\u73b0\u6709
p5061
I14
sV\u9690\u7792
p5062
I2
sV\u4e0d\u5b89
p5063
I2
sV\u6240\u4ee5
p5064
I74
sV\u7bad
I4
sV\u706b\u7bad
p5065
I8
sV\u672a\u7ecf
p5066
I2
sV\u7f16\u53f7
p5067
I2
sVNTSB
p5068
I8
sV\u53cc\u6838
p5069
I14
sV\u5de5\u7a0b
p5070
I6
sV7.3
p5071
I2
sV\u811a\u8dbe\u5934
p5072
I2
sV\u724c\u738b
p5073
I2
sV\u8bb0\u8f7d
p5074
I4
sV\u67e5\u8c1f
p5075
I2
sV\u5dee\u522b\u5316
p5076
I2
sV\u7ea6\u5408
p5077
I4
sV\u667a\u5e93
p5078
I2
sV\u535a\u5f08
p5079
I2
sV1080
p5080
I4
sV\u590d\u6742\u5ea6
p5081
I4
sV\u5ba0\u7269
p5082
I2
sV\u6bd4\u5982\u8bf4
p5083
I4
sVDigitimes
p5084
I2
sV\u968f\u65f6
p5085
I6
sV\u514d\u8d39
p5086
I42
sV\u65b9\u6848
p5087
I4
sV7.9
p5088
I2
sV\u4ee3\u5de5\u5382
p5089
I2
sV\u67aa
I4
sV\u623f\u5b50
p5090
I4
sV\u8d85\u51fa
p5091
I8
sV\u4e2d\u56fd
p5092
I106
sV\u603b
I14
sV\u867d\u8bf4
p5093
I2
sVMotorola
p5094
I4
sV\u7ec4
I2
sV\u8f6c\u8bc4
p5095
I2
sV\u9ad8\u79d1\u6280
p5096
I2
sV\u8001\u5e08
p5097
I14
sV\u6551\u547d
p5098
I2
sV\u6bd2\u523a
p5099
I2
sV\u53d7\u4f17
p5100
I2
sV\u5fe7\u4f24
p5101
I2
sV\u5230\u624b
p5102
I2
sVx540
p5103
I2
sV39
p5104
I4
sV\u5386\u65f6
p5105
I2
sV\u5fae\u8f6f
p5106
I216
sV32
p5107
I14
sV31
p5108
I2
sV\u8d28\u7591
p5109
I2
sV\u5bd2\u6218
p5110
I2
sV35
p5111
I6
sV34
p5112
I14
sV\u7ba1\u9053
p5113
I4
sV3.
p5114
I8
sV\u8f83\u5f31
p5115
I2
sV\u8058\u8bf7
p5116
I2
sV\u5fc3\u7075
p5117
I12
sV\u9753\u673a
p5118
I2
sV\u6392\u961f
p5119
I2
sV\u5f04
I2
sV\u7387
I4
sV\u9006
I4
sVFender
p5120
I4
sV\u6295\u5f71
p5121
I2
sV\u5c55\u73b0
p5122
I2
sVFB
p5123
I2
sV\u5934\u76d4
p5124
I2
sV\u8131\u5149
p5125
I2
sV\u731c
I50
sV\u9891\u9053
p5126
I2
sV\u5e74\u8f7b
p5127
I4
sV\u2026
I74
sV\u72c2\u70ed
p5128
I2
sV\u5bfc\u81f4
p5129
I54
sV\u89e6\u611f
p5130
I4
sV\u7167\u7247
p5131
I16
sV\u5f97\u5230
p5132
I26
sVFi
p5133
I22
sV\u4e3a
I510
sV\u62bd
I6
sV\u5bf9\u6297
p5134
I2
sV\u9002\u914d\u5668
p5135
I2
sV\u5e26\u53bb
p5136
I2
sV\u5899\u7eb8
p5137
I8
sV\u4ea7\u54c1\u7ebf
p5138
I2
sV\u6ee1\u610f
p5139
I6
sV\u5982\u6d77
p5140
I2
sV\u8bed\u97f3
p5141
I14
sV\u81ea\u52a8
p5142
I10
sV\u72b9\u8c6b
p5143
I2
sV\u4e3b\u9898\u516c\u56ed
p5144
I6
sV\u8fdc\u5904
p5145
I2
sV\u94dc\u9523\u6e7e
p5146
I2
sV\u56db\u5e74
p5147
I2
sV\u8fc7\u763e
p5148
I4
sV\u8131\u51fa
p5149
I2
sV\u5bf9\u6218
p5150
I2
sVKFC
p5151
I2
sV\u8eba
I2
sV\u5706\u6ee1\u6210\u529f
p5152
I2
sV\u79c0
I48
sV\u767b\u9876
p5153
I6
sV\u8986\u76d6
p5154
I16
sVIGZO
p5155
I4
sV\u5410\u51fa
p5156
I2
sV\u7f8e\u56fd\u8054\u90a6
p5157
I2
sV\u8f6c\u6295
p5158
I2
sV\u4ebf\u7f8e\u5143
p5159
I22
sVRopo
p5160
I2
sV\u8d76
I2
sV\u5347\u7ea7\u7248
p5161
I2
sV\u50f5\u5c38
p5162
I16
sV\u5bf9\u624b
p5163
I6
sV\u6628\u5929\u4e0b\u5348
p5164
I2
sV\u5f80\u6765
p5165
I2
sV\u8bc4\u5ba1
p5166
I2
sV\u66f4\u662f
p5167
I8
sV\u5200\u5251
p5168
I2
sVroad
p5169
I2
sV\u9876\u5c16
p5170
I2
sV\u5c38\u4f53
p5171
I8
sV\u535a\u5e76
p5172
I48
sV\u56fd\u5bb6
p5173
I24
sV\u5c0f\u5b69
p5174
I4
sV\u529f\u8017
p5175
I2
sV\u5c0f\u5b66
p5176
I4
sV\u9897
I48
sV\u53ef\u6015
p5177
I14
sV\u67b6\u6784
p5178
I2
sVRacer
p5179
I2
sVGALAXY
p5180
I6
sV\u524d\u4e0d\u4e45
p5181
I6
sV\u52a8\u5fc3
p5182
I2
sVlz
p5183
I2
sV\u642c\u8fc1
p5184
I4
sV\u65b0\u4f5c
p5185
I4
sV\u5927\u90e8\u5206
p5186
I10
sV\u7406\u60f3
p5187
I4
sV\u60b2\u89c2
p5188
I6
sV\u89c4\u5219
p5189
I4
sV\u79bb\u522b
p5190
I6
sV\u89c4\u5212
p5191
I6
sV\u505c
I2
sV\u975e
I6
sV\u548c\u9501\u5c4f
p5192
I2
sV\u6280\u5de7
p5193
I6
sV\u9690\u75db
p5194
I4
sV\u70ed\u95e8
p5195
I6
sV\u66f4\u65b0
p5196
I34
sV\u5b98\u65b9\u6d88\u606f
p5197
I2
sV\u5b64\u5355
p5198
I2
sV\u70ed\u95f9
p5199
I4
sV\u8c6a\u723d
p5200
I2
sV\u5982
I12
sV\u9177\u6d3e
p5201
I10
sV\u521b
I8
sV\u5341\u5b57\u8def\u53e3
p5202
I2
sV\u76c6\u53cb
p5203
I52
sV\u5730\u533a
p5204
I64
sV\u7f51\u901f
p5205
I4
sV\u87ba\u4e1d
p5206
I2
sV\u4e0b\u6ed1
p5207
I8
sV\u4eba\u751f
p5208
I44
sV\u6b22\u4e50
p5209
I4
sV\u6837
I2
sV\u5fc3\u7231
p5210
I4
sV\u53ef\u60b2
p5211
I2
sV\u90a3\u81ea
p5212
I2
sV\u51e0\u6761
p5213
I2
sV580
p5214
I2
sV\u6076\u610f\u8f6f\u4ef6
p5215
I6
sV\u7a7a\u5934\u652f\u7968
p5216
I2
sV\u53ef\u60dc
p5217
I4
sV\u529b\u91cf
p5218
I16
sV\u529f\u80fd
p5219
I88
sV\u767d\u4e91\u673a\u573a
p5220
I6
sV\u66f4\u6539
p5221
I2
sV\u62bd\u4e1d
p5222
I2
sV\u7626
I2
sV\u5e7f\u7535\u603b\u5c40
p5223
I4
sV\u4f9d\u9760
p5224
I2
sV\u5f97\u51fa
p5225
I2
sV\u4e0d\u6ee1
p5226
I4
sV\u72af\u7f6a\u6d3b\u52a8
p5227
I2
sV\u5708
I6
sV\u5e26\u51fa
p5228
I2
sV\u6536\u8d2d
p5229
I12
sV\u6536\u8d39
p5230
I2
sV\u5439\u5e72
p5231
I2
sV\u771f\u8981
p5232
I2
sV\u4e0d\u5728\u610f
p5233
I2
sV\u6b21\u7ea7
p5234
I2
sV\u800c\u8a00
p5235
I6
sV\u82f1\u7279\u5c14
p5236
I104
sV\u7fa4\u96c4
p5237
I2
sV\u5e2e
I10
sV\u4e00\u4e8b
p5238
I2
sV\u5fc3
I32
sV\u597d\u597d
p5239
I4
sV\u97f3\u4e50
p5240
I20
sV\u6bb5\u65f6\u95f4
p5241
I2
sV\u4e50\u8da3
p5242
I20
sV\u914d\u4ef6
p5243
I4
sV\u7f8e\u56fd\u79fb\u6c11
p5244
I2
sV5899
p5245
I4
sV\u6691\u5047\u4f5c\u4e1a
p5246
I4
sVipad
p5247
I2
sV\u589e\u5f3a
p5248
I2
sV\u7f9e\u803b
p5249
I4
sV\u7406\u5ff5
p5250
I48
sV\u5f80\u65e5
p5251
I2
sV\u5374\u662f
p5252
I2
sV\u97f3
I2
sVloves
p5253
I2
sV\u754c\u5b9a
p5254
I2
sV\u91d1\u94b1
p5255
I4
sV\u57ce\u6c60
p5256
I2
sV\u65c5\u9986
p5257
I2
sV\u4e8e
I186
sV\u6211
I316
sV\u5e26\u5165
p5258
I6
sVhave
p5259
I2
sV\u89e6\u63a7
p5260
I10
sV\u56db\u5c4a
p5261
I4
sV\u4e92\u52a8
p5262
I6
sV\u6d88\u8d39
p5263
I16
sV\u904d\u4f53\u9cde\u4f24
p5264
I2
sV\u590d\u6742
p5265
I6
sV\u5b69\u5b50
p5266
I100
sV\u516c\u56ed
p5267
I2
sV\u80a9\u8d1f\u7740
p5268
I2
sV320
p5269
I4
sV\u767d\u9886
p5270
I4
sV\u51cf\u5c11
p5271
I2
sV\u5927\u5904\u7740\u773c
p5272
I2
sV\u7740\u4e0b
p5273
I2
sV\u5e73\u65b9\u82f1\u5c3a
p5274
I2
sV\u8d4f
I2
sV\u5435\u9192
p5275
I4
sV\u865a\u62df\u73b0\u5b9e
p5276
I2
sV\u5c3d\u7ba1
p5277
I14
sV\u56de
I2
sV\u51ac\u65e5
p5278
I6
sV\u773c\u955c
p5279
I2
sV\u914d\u4e50
p5280
I4
sV\u6570\u5343\u540d
p5281
I2
sV\u5546\u7528\u5316
p5282
I2
sV\u6309\u8425
p5283
I2
sV\u66fe
I26
sV\u6210\u4e3a
p5284
I62
sV9470
p5285
I48
sV\u7279\u522b
p5286
I4
sV\u81f4\u529b\u4e8e
p5287
I10
sV\u82f1\u96c4\u699c
p5288
I4
sV\u53ef\u662f
p5289
I62
sV\u4e2d\u5174\u901a\u8baf
p5290
I4
sV4.0.4
p5291
I4
sV\u7eaa\u5f55
p5292
I6
sV\u9ad8\u5ea6
p5293
I2
sV\u535a\u5ba2
p5294
I10
sV\u5236\u5f0f
p5295
I2
sV\u7b2c\u4e8c\u4e2a
p5296
I4
sV\u30b3
I6
sV\u516c\u5173
p5297
I2
sV\u7167\u7740
p5298
I2
sV\u4ee5\u5357
p5299
I48
sV\u672c\u4eba
p5300
I4
sV\u786c\u5e01
p5301
I2
sV\u89e6\u6478
p5302
I4
sV\u5546\u4e1a
p5303
I100
sV\u8fce\u63a5
p5304
I4
sV\u53f0\u5386
p5305
I2
sV\u4e00\u76ee\u4e86\u7136
p5306
I2
sV\u524d\u4efb
p5307
I2
sV\u6570\u7834
p5308
I2
sV\u5c71\u65e0\u68f1
p5309
I2
sVBUG
p5310
I12
sV\u5e95\u4e0b
p5311
I2
sVA850
p5312
I4
sV\u5929\u9645
p5313
I192
sV\u53ea\u80fd\u9760
p5314
I2
sV\u610f\u5411
p5315
I4
sV\u5bb9\u5668
p5316
I2
sV\u7b2c\u5341\u516b\u4e2a
p5317
I2
sV\u8001\u5a46
p5318
I16
sV\u5fc3\u7406
p5319
I2
sV\u4ee3\u5165
p5320
I2
sV\u7f13\u89e3
p5321
I50
sV\u541b
I100
sV\u5168\u514d\u8d39
p5322
I2
sV\u4ee5\u53ca
p5323
I44
sV\u7761\u524d
p5324
I2
sVFinal
p5325
I4
sV\u66f4\u6362
p5326
I2
sV\u6570\u636e\u670d\u52a1
p5327
I2
sV\u798f\u5229
p5328
I2
sV\u6c89\u6d78
p5329
I4
sV\u4f4d\u7f6e
p5330
I18
sV\u4f4d
I18
sVS
I80
sV\u62d4
I2
sV\u6750\u8d28
p5331
I2
sVMacintosh
p5332
I2
sV\u7406\u5de5\u5927\u5b66
p5333
I2
sV\u52bf\u5982\u7834\u7af9
p5334
I2
sV\u6f5c\u5728\u7528\u6237
p5335
I2
sV\u5438\u5f15\u529b
p5336
I2
sV\u574f\u8bdd
p5337
I2
sV\u7b2c\u4e8c\u4ee3
p5338
I2
sVMafia
p5339
I2
sV\u4f84\u5973
p5340
I6
sV\u8bba\u65ad
p5341
I2
sVTransformer
p5342
I2
sV\u4e2d\u5348
p5343
I2
sV\u53ef\u671b
p5344
I2
sV\u5899
I6
sV\u4ee5\u524d
p5345
I4
sV\u5927\u5b66\u751f
p5346
I4
sV\u5177\u4f53\u5b9e\u65bd
p5347
I2
sV\u98ce\u751f\u6c34
p5348
I2
sV\u5f00\u5ead\u5ba1\u7406
p5349
I2
sV\u7ecf\u8425\u5546
p5350
I2
sV\u6492\u5a07
p5351
I2
sV\u604b
I4
sV\u76f8\u6bd4
p5352
I10
sV\u4eba\u6027
p5353
I2
sV468
p5354
I2
sV\u5468\u661f\u9a70
p5355
I2
sV\u4e00\u5bb6\u72ec\u5927
p5356
I2
sV\u5dee\u5f02
p5357
I2
sV\u59b9\u59b9
p5358
I2
sV\u6652
I2
sV\u82e6\u96be
p5359
I2
sV\u7b2c\u4e8c\u4f4d
p5360
I2
sV6480
p5361
I2
sV\u5c0f\u5c0f
p5362
I2
sVNetMarble
p5363
I2
sV\u8bb2\u8ff0
p5364
I4
sV\u5fcd\u4f4f
p5365
I2
sV\u52b3\u62c9
p5366
I6
sV\u6d77\u76d7
p5367
I4
sV\u8ff7
I4
sV\u51a0\u519b
p5368
I2
sV\u8d85\u54cd
p5369
I2
sV\u673a\u8eab
p5370
I14
sV\u800c\u6b64
p5371
I2
sV\u8ff7\u79bb
p5372
I2
sV\u9502\u79bb\u5b50
p5373
I48
sV)
I52
sV\u4e07\u80fd
p5374
I2
sV\u5728\u7ebf\u89c6\u9891
p5375
I6
sV\u6784\u9020
p5376
I2
sV\u624b\u673a\u6e38\u620f
p5377
I8
sVSOS
p5378
I2
sV\u6708\u4eae
p5379
I6
sV\u65fa\u76db
p5380
I2
sV\u4e00\u7247\u7a7a\u767d
p5381
I2
sV\u600e\u4e48\u529e
p5382
I52
sVMacbook
p5383
I2
sV\u5965\u5229
p5384
I2
sV\u4eba\u7269
p5385
I16
sVios
p5386
I6
sV\u786e\u5207
p5387
I6
sVAirport
p5388
I2
sV\u8be5\u57ce
p5389
I2
sV\u4e00\u904d
p5390
I2
sV\u6708\u4efd
p5391
I26
sV\u8fce\u6218
p5392
I2
sV\u50f5\u786c
p5393
I2
sV\u5173
I2
sV\u4e0a\u5468\u4e94
p5394
I4
sV\u5230\u6765
p5395
I6
sV\u6096\u8bba
p5396
I2
sVTotal
p5397
I2
sV\u867d
I2
sV\u8868\u793a
p5398
I84
sV10.22
p5399
I2
sV\u767d\u5185\u969c
p5400
I6
sV\u8ba4\u77e5
p5401
I2
sV\u5bf9\u65b9
p5402
I10
sV\u5229\u7528
p5403
I62
sV\u6b7b\u4ea1
p5404
I4
sV\u4f18\u79c0\u4f01\u4e1a
p5405
I2
sV\u5c24\u5176
p5406
I12
sVLeofric
p5407
I2
sV\u4ee3\u53f7
p5408
I50
sVEMAIL
p5409
I2
sV\u4e0b
I50
sV\u4e09\u660e\u6cbb
p5410
I2
sV\u640f\u6740
p5411
I2
sV\u5956\u54c1
p5412
I2
sV\u4e8c\u4ee3
p5413
I4
sV\u54c7
I2
sV\u871c\u5802
p5414
I2
sV\u8d62
I56
sV\u5fc3\u76ee
p5415
I2
sV\u98a4\u6296
p5416
I2
sV\u6709\u8da3
p5417
I64
sV\u5ef6\u671f
p5418
I4
sV\u6ce1\u6ce1
p5419
I6
sV\u4e0e\u6b64\u540c\u65f6
p5420
I4
sV\u9884
I2
sV\u4e0d\u6b62
p5421
I4
sV\u4e8c\u4e2d
p5422
I2
sV\u626d\u8f6c\u9893\u52bf
p5423
I2
sV\u6d41\u660e
p5424
I2
sV\u56de\u9988
p5425
I2
sV\u521d\u5b66\u8005
p5426
I4
sV\u561b
I48
sV\u501f
I6
sVOSX
p5427
I2
sV\u5929\u771f\u70c2\u6f2b
p5428
I2
sV\u5f88\u723d
p5429
I2
sV\u7ecf\u7406
p5430
I6
sV\u5185\u90e8\u6d4b\u8bd5
p5431
I4
sV\u5c0f\u5fc3
p5432
I54
sV\u7a33\u5b9a\u6027
p5433
I4
sV\u6570\u661f\u661f
p5434
I2
sV\u5fb7\u5dde
p5435
I2
sV\u96be\u9003
p5436
I2
sV6300
p5437
I2
sV\u516c\u53f8
p5438
I114
sV\u6447\u52a8
p5439
I4
sV\u63d0\u4f9b\u5546
p5440
I48
sV\u9ad8\u5c42
p5441
I6
sVOS6
p5442
I48
sV\u5c0f\u5587\u53ed
p5443
I2
sV\u5730\u5740
p5444
I170
sV\u5367\u5ba4
p5445
I2
sV\u9ad8
I76
sV\u5bfc\u822a
p5446
I16
sV\u4f84\u5b50
p5447
I2
sV\u5f02\u95fb\u5f55
p5448
I2
sV8950
p5449
I4
sV\u699c\u773c
p5450
I2
sV\u96be\u9053
p5451
I4
sV|
I2
sV\u5bfc\u822a\u4eea
p5452
I2
sV\u8be6\u60c5
p5453
I6
sV\u5012\u574d
p5454
I2
sV\u5904
I6
sV\u5df2\u5a5a
p5455
I2
sV\u5173\u6389
p5456
I4
sV\u4f5c\u8005
p5457
I4
sV\u4e9a\u592a\u533a
p5458
I4
sV\u6570\u7b49
p5459
I2
sV\u5feb\u901f
p5460
I8
sV\u5ba3\u4f20\u7247
p5461
I2
sV\u6c38\u798f
p5462
I6
sV\u7cbe\u8f9f
p5463
I2
sV\u8fd9\u9879
p5464
I6
sV\u4e2d\u5174
p5465
I14
sV\u4f9b\u8d27
p5466
I4
sV\u8d2d\u4e70
p5467
I18
sV\u901f\u5ea6
p5468
I62
sV\u65f6\u81f3\u4eca\u65e5
p5469
I2
sV480
p5470
I4
sV\u4e0d\u9189\u4e0d\u5f52
p5471
I2
sVDev
p5472
I2
sV\u65c5\u5ba2
p5473
I4
sV\u5b58
I2
sVbug
p5474
I16
sV\u5982\u6b64
p5475
I6
sV\u4f60
I756
sV\u5e97\u9762
p5476
I4
sV\u65e7
I2
sV\u5730\u56fe
p5477
I128
sV\u7981\u552e
p5478
I2
sV\u6218\u573a
p5479
I2
sV\u9b54\u738b
p5480
I4
sV\u96f6\u552e\u989d
p5481
I2
sVpin
p5482
I4
sV\u516b\u5904
p5483
I2
sV\u79ef\u6781
p5484
I10
sV\u6015
I10
sV\u603b\u88c1\u517c
p5485
I2
sV\u6ce1\u6ce1\u9f99
p5486
I2
sV48
p5487
I52
sV49
p5488
I2
sV44
p5489
I8
sV45
p5490
I4
sV42
p5491
I6
sV43
p5492
I6
sV40
p5493
I12
sV\u8fdc\u7a0b
p5494
I10
sV4.
p5495
I4
sV\u7814\u7a76
p5496
I38
sV\u623f\u5c4b
p5497
I2
sV\u60c5\u4eba
p5498
I2
sV\u59b9\u5b50
p5499
I8
sV\u4ed6\u4eba
p5500
I4
sV\u613f
I4
sV\u5de5\u4f5c\u65e5
p5501
I2
sV\u83dc\u5355
p5502
I2
sV\u6e38\u620f\u7c7b
p5503
I2
sV\u67d0
I58
sV\u7b2c\u4e00\u4eba\u79f0
p5504
I2
sV\u9001\u793c\u7269
p5505
I2
sV\u751f\u6001\u5708
p5506
I4
sV\u6f02\u6d41\u8bb0
p5507
I2
sV\u79f0\u4e3a
p5508
I10
sV\u662f\u5426
p5509
I16
sV\u4ed6\u4eec
p5510
I130
sVCEO
p5511
I18
sV\u5373
I14
sV\u6254\u4e0b
p5512
I2
sV\u6d77\u745e
p5513
I6
sV\u624b\u7ed8
p5514
I2
sV\u52a0\u901f
p5515
I8
sV\u9b54
I2
sV\u53f3\u811a
p5516
I4
sV\u4e00\u8a00
p5517
I2
sV\u5982\u540c
p5518
I6
sV\u91cd\u542f
p5519
I2
sV\u4e0b\u5468
p5520
I4
sVKDDI
p5521
I4
sV\u516c\u6d4b
p5522
I2
sV\u6d6e\u60f3\u8054\u7fe9
p5523
I2
sVsleep
p5524
I2
sV\u6c89\u7740
p5525
I2
sV\u56fe\u5f62
p5526
I2
sV\u52b3\u8d44
p5527
I2
sV\u6539\u7248
p5528
I2
sV\u8d60\u9001
p5529
I4
sV\u6848\u4ef6
p5530
I4
sV\u53d1\u751f
p5531
I12
sV\u6b32
I98
sV\u66f4\u5feb
p5532
I6
sV\u6c89\u7761
p5533
I2
sV\u8bda\u7136
p5534
I2
sV\u5bbd
I2
sV\u60ca\u559c
p5535
I58
sV@
I58
sVReseller
p5536
I2
sV\u597d\u4e86\u5417
p5537
I4
sV\u4e24\u5927
p5538
I2
sV\u662f\u4ece
p5539
I2
sVSlashGear
p5540
I2
sV\u591a\u949f
p5541
I2
sVGB
p5542
I62
sV\u957f\u65f6\u95f4
p5543
I4
sV\u593a\u8d70
p5544
I2
sV\u6539\u7f16\u81ea
p5545
I2
sV\u9488\u5bf9
p5546
I24
sV\u5171\u4eab\u8f6f\u4ef6
p5547
I2
sV\u63a9\u76d6
p5548
I4
sV\u89c4\u683c
p5549
I6
sV\u7eaf\u624b\u5de5
p5550
I4
sV\u6218\u68cb
p5551
I2
sV\u81f4\u547d
p5552
I4
sV\u5b9e\u9a8c\u5ba4
p5553
I2
sV\u8c0e\u8a00
p5554
I2
sV\u62ac
I48
sV\u5237
I6
sV\u9163\u7545\u6dcb\u6f13
p5555
I2
sVTTE
p5556
I2
sVCultofmac
p5557
I2
sV\u59d0\u59b9
p5558
I2
sV\u4fdd\u62a4\u5957
p5559
I6
sV\u4f4e\u7ea7
p5560
I2
sV\u9178
I2
sV\u56db\u6708
p5561
I2
sV\u6b23\u8d4f
p5562
I2
sV\u79e6
I2
sVTOP5
p5563
I2
sVVerge
p5564
I4
sV\u5ba4\u5916
p5565
I2
sV\u5b89\u9759
p5566
I8
sV\u5f80\u5f80
p5567
I52
sV\u91cc\u9762
p5568
I8
sV\u6d17\u8863\u673a
p5569
I2
sVPedersen
p5570
I2
sV\u53d7\u76ca
p5571
I4
sVTizen
p5572
I192
sV\u4eba\u4eba
p5573
I2
sVpunching
p5574
I2
sV\u8fc7\u4e8e
p5575
I2
sV\u51fb\u5012
p5576
I2
sV\u5403\u996d
p5577
I12
sV\u6240\u77e5
p5578
I2
sVAndriod
p5579
I6
sV\u4eba\u4eec
p5580
I22
sV\u7f8e\u56fd\u53f8\u6cd5\u90e8
p5581
I2
sV\u6838\u6cc4\u6f0f
p5582
I2
sV\u4efb\u5929\u5802
p5583
I8
sV\u65e5\u5e38\u751f\u6d3b
p5584
I2
sV\u7528\u5c3d
p5585
I2
sV\u516c\u6c11
p5586
I4
sV\u4e70\u4e0b
p5587
I2
sV\u51b7\u843d
p5588
I2
sV\u81ea\u6211\u6279\u8bc4
p5589
I2
sV\u8d8b\u5411\u4e8e
p5590
I4
sV\u871c\u6708
p5591
I2
sVme
p5592
I6
sV\u6559\u8bad
p5593
I2
sVCrowe
p5594
I2
sVmm
p5595
I10
sV\u8282
I12
sV\u8df3
I14
sV\u9006\u88ad
p5596
I2
sV\u540c\u57ce
p5597
I12
sV\u51b7
I4
sVmy
p5598
I2
sVPandora2
p5599
I2
sV\u751f\u751f\u4e0d\u606f
p5600
I2
sV\u516b\u6708
p5601
I2
sV\u95ea\u4eae
p5602
I2
sV\u4eba\u4e3a
p5603
I2
sV\u5f15\u5165
p5604
I6
sV\u5207\u78cb
p5605
I2
sV\u5723\u8bde\u8282
p5606
I14
sV\u6e05\u6668
p5607
I2
sV\u53f0\u6e7e
p5608
I12
sV\u6d41\u5931
p5609
I2
sV\u4e0d\u65ad
p5610
I18
sV\u4e00\u8bb0
p5611
I2
sVPictoKeyboard
p5612
I2
sVIII
p5613
I6
sV\u6e05\u6670
p5614
I4
sV\u8001\u677f
p5615
I2
sV\u627f\u9500
p5616
I2
sV\u4e27\u547d
p5617
I2
sV\u8dc3\u5347
p5618
I6
sV\u53cc
I10
sV\u4e0d\u542b
p5619
I2
sV\u5e72\u8106
p5620
I2
sV\u4e56\u4e56
p5621
I2
sV\u95ea\u4ed8
p5622
I2
sV\u4e0d\u540c
p5623
I30
sV\u6a21\u7cca
p5624
I2
sV\u676f
I2
sV\u9752\u5c9b
p5625
I2
sV\u9000\u51fa
p5626
I14
sV\u9707\u52a8
p5627
I2
sV\u8425\u8fd0
p5628
I2
sV\u5de5\u4f5c\u5ba4
p5629
I4
sV\u52a0\u6cf0\u7f57\u5c3c\u4e9a
p5630
I2
sV\u5149\u789f
p5631
I2
sV\u8d26\u53f7
p5632
I2
sV\u8be6\u5c3d
p5633
I2
sV\u7f18\u6545
p5634
I8
sVFeiyr
p5635
I2
sV\u4e1c\u897f
p5636
I28
sVHere
p5637
I12
sV400
p5638
I52
sV\u73a9\u6e38\u620f
p5639
I8
sV\u9010\u5e74
p5640
I2
sVMobile
p5641
I20
sV\u77f3\u5757
p5642
I2
sV\u8a8a\u5199
p5643
I2
sV\u8db3\u7403
p5644
I10
sV\u7535\u5b50\u5546\u52a1
p5645
I6
sV\u5df2\u6709
p5646
I4
sV\u6495\u6210
p5647
I2
sV\u89c4\u6a21
p5648
I2
sV\u95f7\u5934
p5649
I2
sV\u6e05\u65b0
p5650
I4
sV\u8fc8\u8fdb
p5651
I2
sVWLAN
p5652
I2
sV\u4f34\u5a18
p5653
I2
sV\u5355\u673a
p5654
I4
sV\u521b\u4e1a
p5655
I12
sV\u4ece\u672a
p5656
I2
sV\u4e0b\u56fe
p5657
I52
sV\u5728\u7ebf
p5658
I8
sV\u9f3b\u7956
p5659
I2
sV\u8d28\u4fdd
p5660
I2
sV\u540e\u8005
p5661
I2
sV\u663e\u5f97
p5662
I2
sVWilliam
p5663
I2
sV\u7f51\u7edc\u8986\u76d6
p5664
I2
sV\u5bf9\u5916
p5665
I2
sV\u963f\u91cc\u5df4\u5df4
p5666
I2
sVcomScore
p5667
I6
sV\u4e00\u4e07\u591a
p5668
I2
sV\u7e41\u534e
p5669
I2
sV\u91cd\u56f4
p5670
I2
sVW
I6
sV\u4e24\u5bb6
p5671
I8
sV\u653b\u575a\u6218
p5672
I2
sV\u5361
I24
sV\u76f8\u540c
p5673
I2
sV\u626b
I2
sV\u75be\u75c5
p5674
I6
sVx1024
p5675
I2
sV\u6e38\u4e50
p5676
I2
sV\u91cd\u56de
p5677
I2
sV\u9752\u5e74
p5678
I4
sV\u5b63\u5ea6\u672b
p5679
I2
sV\u8bad\u7ec3
p5680
I4
sV\u53cc\u5361
p5681
I2
sV\u5076\u4eec
p5682
I2
sV\u5e8f\u7ae0
p5683
I2
sV\u9a91
I2
sV\u6bdb\u75c5
p5684
I2
sVCNET
p5685
I2
sV\u53d8\u8eab
p5686
I52
sV\u66f4\u9006\u5929
p5687
I2
sV\u89e3\u51b3\u65b9\u6848
p5688
I54
sV\u8d2d\u7269
p5689
I18
sV\u6765\u56de
p5690
I4
sV\u54c6\u55e6
p5691
I2
sV\u8bc1\u5238
p5692
I2
sV\u5347\u6e29
p5693
I2
sV\u6de1\u6de1\u5730
p5694
I2
sV\u6392\u5175
p5695
I2
sV\u8096\u950b
p5696
I2
sV\u70e6\u607c
p5697
I2
sV190
p5698
I2
sV\u6c14\u606f
p5699
I2
sV\u61c2\u5f97
p5700
I6
sV\u5173\u5fc3
p5701
I2
sV\u6d4b\u8bd5\u62a5\u544a
p5702
I2
sV\u8dd1\u9053
p5703
I2
sV\u79c9\u627f
p5704
I48
sV\u5730\u6d3b
p5705
I2
sV\u6838\u51c6
p5706
I2
sV\u81ea\u884c
p5707
I2
sV\u6f0f\u6d1e
p5708
I14
sV\u9632\u6b62
p5709
I2
sVGalaxy
p5710
I36
sV\u70ed\u706b\u671d\u5929
p5711
I2
sV\u4e09
I6
sV\u500d
I4
sV\u7ea0\u7eb7\u6848
p5712
I2
sV\u7eed\u96c6
p5713
I4
sV\u719f\u6089
p5714
I6
sV\u6155\u5c3c\u9ed1
p5715
I2
sV\u62db\u884c
p5716
I2
sV\u91cf\u8eab\u5b9a\u505a
p5717
I4
sV-
I120
sV\u6210\u719f
p5718
I2
sV\u7b54\u5e94
p5719
I6
sV\u4e13\u5229\u6743
p5720
I2
sV\u5f62\u6210
p5721
I48
sV\u727a\u7272
p5722
I2
sV\u54c6\u5566
p5723
I2
sV\u5ea6\u8fc7
p5724
I4
sV\u4f18\u52bf
p5725
I60
sV\u53d7\u7406
p5726
I4
sV\u5e94\u7528\u8f6f\u4ef6
p5727
I10
sVJelly
p5728
I6
sVReports
p5729
I2
sV\u521b\u4f5c
p5730
I2
sV\u51e0\u5e74
p5731
I56
sV\u62d6
I2
sV\u751c\u7f8e
p5732
I2
sV\u4e13\u5356\u5e97
p5733
I6
sV\u4f01\u4e1a
p5734
I186
sVMinecraft
p5735
I6
sV\u5883\u5916
p5736
I2
sV\u7f8e\u653f\u5e9c
p5737
I2
sV\u7a0d\u7a0d
p5738
I2
sV\u7adf\u7136
p5739
I4
sV5440
p5740
I2
sV\u4e9a\u9a6c\u900a
p5741
I76
sV\u8054\u5408
p5742
I14
sV\u8d44\u6599\u5939
p5743
I2
sV\u5230\u5e95
p5744
I10
sV\u8d27\u5e01\u5316
p5745
I2
sV\u7559\u7ed9
p5746
I4
sV\u6bcd\u7231
p5747
I4
sV\u9897\u661f
p5748
I2
sV\u4e0d\u51c6
p5749
I4
sV\u62bd\u70df
p5750
I2
sV\u8bb8\u591a
p5751
I24
sV\u4ea4\u7ed9
p5752
I2
sV\u653e\u9001
p5753
I2
sV\u9500\u9b42
p5754
I2
sV\u957f\u957f\u7684
p5755
I2
sV\u7965\u548c
p5756
I2
sV\u5206\u7ad9
p5757
I2
sV\u8fce\u5ba2
p5758
I2
sV\u63a7\u6765
p5759
I2
sV\u5730\u72f1
p5760
I4
sV\u51b3\u4e0d
p5761
I2
sV\u5065\u5eb7
p5762
I8
sV\u4ea4\u7eb3
p5763
I2
sV\u95ee\u4e16
p5764
I6
sVOddball
p5765
I4
sV\u4e0d\u518d
p5766
I18
sV\u6240\u72af
p5767
I2
sV\u6df1
I2
sVDuarte
p5768
I2
sV\u7b80\u76f4
p5769
I2
sV\u793c\u54c1
p5770
I96
sV\u8003
I4
sV\u4f4e\u7aef
p5771
I2
sV\u9886\u5148\u8005
p5772
I2
sV\u4e0d\u516c
p5773
I2
sV\u73b0\u5b9e
p5774
I18
sV\u4e0e\u5426
p5775
I2
sVeBay
p5776
I4
sVDIGITIMES
p5777
I2
sVPen
p5778
I6
sV\u516b\u6210
p5779
I2
sV\u5b64\u513f\u9662
p5780
I2
sV\u5c0f\u65f6
p5781
I52
sViOS5
p5782
I2
sViOS6
p5783
I6
sV\u8fd4\u56de
p5784
I2
sV\u624b\u673a\u64cd\u4f5c\u7cfb\u7edf
p5785
I2
sV\u7b2c\u4e00\u4e2a
p5786
I8
sV\u4e0d\u514d
p5787
I2
sV\u4e00\u8eab
p5788
I2
sV\u9644\u8d60
p5789
I2
sV\u4e00\u5171
p5790
I2
sV\u7b54\u6848
p5791
I52
sV\u5408\u7ea6
p5792
I14
sV360
p5793
I10
sV\u6728\u4e43\u4f0a
p5794
I2
sV\u5199\u9053
p5795
I2
sV\u5316\u5de5\u5b66\u9662
p5796
I2
sV\u65a5\u8d44
p5797
I2
sV\u65b9\u5411
p5798
I6
sV\u7c7b
I30
sV\u7a7f
I4
sV\u591a\u91cd
p5799
I2
sV\u85cf\u8eab
p5800
I2
sV35.52
p5801
I2
sV\u5929\u6c14
p5802
I2
sV\u6447\u6905
p5803
I6
sV\u7b14
I2
sV\u51fa\u8272
p5804
I4
sV\u7d2f\u79ef
p5805
I2
sV\u60a3\u4e0a
p5806
I2
sV\u8d8a\u6765\u8d8a\u8fd1
p5807
I2
sV\u76f8\u53cd
p5808
I2
sV\u8fdc\u65b9
p5809
I2
sV\u6267\u7740
p5810
I2
sV\u5bf9\u5e94
p5811
I6
sV\u81ea\u7531\u5ea6
p5812
I2
sV\u91cd\u5175
p5813
I2
sV\u90e8\u95e8
p5814
I2
sV\u6b64\u7c7b
p5815
I2
sV\u5168\u7403
p5816
I126
sV\u5d1b\u8d77
p5817
I2
sV\u603b\u5f00\u5173
p5818
I2
sV\u51ac\u5b63
p5819
I4
sV\u51b2\u51fb\u6ce2
p5820
I2
sV\u77ed\u77ed
p5821
I2
sV\u5c9b\u5c7f
p5822
I14
sV\u5982\u5176
p5823
I2
sV\u770b\u4e0d\u5230
p5824
I2
sV\u8f66\u8d39
p5825
I2
sV\u4f53\u73b0
p5826
I48
sVBust
p5827
I2
sV\u5c11
I6
sVQ3Android
p5828
I2
sV\u81ea\u8eab
p5829
I4
sV\u2019
I6
sV\u4f17\u591a
p5830
I8
sV\u5ea6\u89d2
p5831
I4
sV\u4e0a\u9053\u513f
p5832
I48
sV\u53ef\u5faa
p5833
I2
sV\u5c55\u4f1a
p5834
I2
sV\u5185\u88e4
p5835
I2
sV\u633d\u56de
p5836
I6
sV\u8c31
I4
sV\u81ea\u884c\u8f66
p5837
I2
sV\u8bbf\u95ee\u91cf
p5838
I2
sV\u90fd\u5e02
p5839
I4
sV\u4e0d\u505c
p5840
I4
sV\u4e00\u8fb9
p5841
I4
sV\u8f9b\u82e6
p5842
I2
sV\u4e27\u5076
p5843
I2
sV\u90e8\u957f
p5844
I2
sV\u672c\u7740
p5845
I48
sV\u81f4\u4f7f
p5846
I50
sV\u641e\u7b11
p5847
I2
sVKWC
p5848
I2
sV\u6d3b\u4e0b\u53bb
p5849
I2
sV\u8363\u83b7
p5850
I2
sV\u6f02\u6d6e
p5851
I4
sV\u4e0d\u671f\u800c\u9047
p5852
I2
sV\u8bf4
I168
sV\u52a8\u6001
p5853
I4
sV\u7f8e\u597d
p5854
I24
sViTestin
p5855
I2
sV\u4e0d\u53ef
p5856
I6
sV\u575a\u6301\u4e0b\u53bb
p5857
I2
sV\u822a\u73ed
p5858
I4
sV\u6807\u914d
p5859
I4
sV\u811a
I2
sV\u76f4\u89c2
p5860
I2
sV\u9644\u8fd1
p5861
I2
sV\u73b0
I4
sVIOS
p5862
I16
sV\u949f\u7231
p5863
I2
sV\u4e0d\u53ca
p5864
I4
sV\u603b\u88c1
p5865
I2
sV\u4e0d\u53d1
p5866
I2
sV\u75db\u82e6
p5867
I12
sV\u6293\u62cd
p5868
I2
sV\u5e02\u573a\u51c6\u5165
p5869
I2
sV\u6392\u540d
p5870
I16
sV\u4e0d\u5931\u4e3a
p5871
I2
sV\u91cd\u521b
p5872
I2
sVAPQ8064
p5873
I6
sVD
I30
sV\u4f46
I164
sV\u4e00\u4e1d\u4e0d\u6302
p5874
I2
sVJames
p5875
I2
sV\u63a5\u89e6
p5876
I6
sV\u534e
I8
sV2999
p5877
I2
sV\u6ee1\u5e03
p5878
I2
sV58
p5879
I12
sV\u4e0d\u538c
p5880
I2
sV\u8363\u8000
p5881
I6
sV50
p5882
I74
sV\u4e70
I16
sV5.
p5883
I2
sV\u8170\u5e26
p5884
I2
sV\u5b57\u773c
p5885
I2
sV\u897f\u6e38\u8bb0
p5886
I2
sV\u7279\u4e54
p5887
I2
sV\u59ff\u52bf
p5888
I2
sV\u53d1\u73b0
p5889
I84
sV\u65f6\u4ee3
p5890
I118
sVHP
p5891
I96
sV\u6bd4\u5361\u4e18
p5892
I2
sVHI
p5893
I2
sVHD
p5894
I10
sV\u62a5\u540d
p5895
I2
sVLife
p5896
I4
sV\u66f4\u597d
p5897
I6
sV\u57fa\u7840\u8bbe\u65bd
p5898
I48
sV\u5fc3\u4e2d
p5899
I6
sV\u6fb3\u5927\u5229\u4e9a
p5900
I12
sV\u611f\u5230
p5901
I12
sV\u8bd5\u9a8c
p5902
I2
sVHi
p5903
I6
sV\u6076\u9b54
p5904
I2
sV420
p5905
I2
sV1395
p5906
I2
sV422
p5907
I4
sV\u91cd\u529b
p5908
I2
sVBraddock
p5909
I2
sV\u66f4\u591a
p5910
I14
sV\u738b\u5fd7\u52e4
p5911
I6
sV\u7f51
I250
sV\u6487\u5f00
p5912
I2
sV\u80c6\u5c0f
p5913
I2
sV\u5956\u6c60
p5914
I2
sV\u652f\u4ed8\u5b9d
p5915
I16
sV\u6bd5\u7adf
p5916
I2
sV\u5165
I2
sV\u547d\u8fd0
p5917
I2
sV\u62a5\u544a
p5918
I50
sV\u539a\u5ea6
p5919
I2
sV\u89c2\u4f17
p5920
I2
sV\u51fa
I128
sV\u6210\u500d\u589e\u957f
p5921
I2
sV\u5a31\u4e50
p5922
I2
sV\u5f62\u5f0f
p5923
I4
sV\u8d8a\u591a
p5924
I2
sV\u5fc3\u4e0a
p5925
I2
sV\u68c0\u6d4b
p5926
I2
sVppi
p5927
I2
sV\u5bb6\u5ead
p5928
I58
sV\uff10
I2
sV\u89e6\u6478\u5c4f
p5929
I16
sV\u7fd8
I14
sV\u4e24\u5e74
p5930
I12
sV\u731c\u6d4b
p5931
I10
sV\u4e0b\u5348
p5932
I2
sV\u4e00\u8d2f
p5933
I2
sV\u51ac\u5929
p5934
I4
sV\u9001\u51fa
p5935
I48
sV\u6539\u7528
p5936
I10
sV\u660e\u667a\u5730
p5937
I2
sV\u5df2\u6210
p5938
I2
sV\u611f\u53d7
p5939
I8
sV\u68d5\u8272
p5940
I2
sV\u7a00\u7f3a
p5941
I2
sV\u65b0\u7248
p5942
I12
sV\u771f\u5f97
p5943
I2
sV\u5c0f\u660e
p5944
I4
sV\u53e3
I2
sV\u7099\u70ed
p5945
I2
sV\u9644\u8eab
p5946
I4
sV\u9700\u626b
p5947
I2
sV\u501f\u6b64\u673a\u4f1a
p5948
I2
sVvivo
p5949
I12
sV\u603b\u8981
p5950
I2
sV\u4e71\u5165
p5951
I2
sV\u4e00\u8d77
p5952
I34
sV\u5404\u9879
p5953
I2
sV\u5546\u7528
p5954
I6
sV\u65f6\u4f1a
p5955
I2
sV\u6b8a\u8363
p5956
I4
sV\u53cc\u5361\u53cc
p5957
I2
sV\u6bcf\u4e2a
p5958
I34
sV\u55eb\u5685
p5959
I2
sV\u667a\u6167
p5960
I2
sV\u540d
I60
sV\u9762\u4e34
p5961
I8
sV\u6dfb\u52a0
p5962
I10
sV\u7edd\u4e0d\u4f1a
p5963
I2
sV\u76f8\u5173
p5964
I110
sV\u4e00\u8d9f
p5965
I2
sV\u76f8\u514b
p5966
I2
sV\u6982\u5ff5
p5967
I2
sV\u5351\u9119
p5968
I2
sVwhen
p5969
I2
sV\u4e0b\u53d1
p5970
I2
sV\u7f8e\u989c
p5971
I2
sV\u897f\u65b9\u4eba
p5972
I2
sV\u6563\u53d1
p5973
I4
sV\u8fdc\u672a
p5974
I2
sVrealize
p5975
I2
sV\u56e0\u6b64
p5976
I6
sV\u826f\u7387
p5977
I4
sV\u8ba4\u4e3a
p5978
I82
sV\u4e0d\u5230
p5979
I12
sV\u60df\u6709
p5980
I2
sV\u6388\u6743
p5981
I12
sV\u6765\u5230
p5982
I8
sV\u90e8\u961f
p5983
I2
sV\u5378\u6389
p5984
I2
sV\u8d1f\u9762
p5985
I2
sV\u8981
I164
sV\u7ade\u731c
p5986
I96
sV\u5f71\u7247
p5987
I4
sV\u4ee5\u6765
p5988
I10
sV\u6574\u4f53
p5989
I4
sV\u547d\u8fd0\u591a\u821b
p5990
I2
sV\u4e0d\u5df2
p5991
I4
sV.00
p5992
I2
sV.03
p5993
I2
sVMeeGo
p5994
I48
sV\u6e10\u6e10
p5995
I2
sV\u9010\u5411
p5996
I4
sV\u53f7\u7801
p5997
I4
sV\u73b0\u573a
p5998
I56
sV\u88ab
I224
sV\u8d2d\u7968
p5999
I4
sV\u4e00\u822c
p6000
I6
sV\u5168\u7a0b
p6001
I4
sV\u53ef\u5237
p6002
I2
sV\u73b0\u5728
p6003
I104
sV\u7f3a
I2
sV\u6f5c\u5728
p6004
I4
sVCouponCodes4U
p6005
I2
sV\u6e05\u6f88
p6006
I2
sV\u524d\u7aef
p6007
I2
sV\u7ecf
I8
sV\u523a\u7a7f
p6008
I48
sV\u77ff\u7269
p6009
I2
sV1499
p6010
I2
sV\u65e0\u7f18
p6011
I2
sV\u5ba4\u5185
p6012
I10
sV\u610f\u601d
p6013
I2
sV\u68c0\u67e5\u5458
p6014
I2
sV\u9274\u522b
p6015
I2
sV\u4e3b\u6301\u4eba
p6016
I2
sV\u5965\u6797
p6017
I2
sV\u65e0\u7f1d
p6018
I2
sV\u76f8\u5e94
p6019
I4
sV\u534f\u8bae
p6020
I18
sV\u4e0b\u8f7d\u5b89\u88c5
p6021
I2
sV\u5065\u5065\u5eb7\u5eb7
p6022
I2
sV\u5145\u6ee1
p6023
I60
sV\u8f6c\u53d1
p6024
I252
sV\u61a7\u61ac
p6025
I2
sV\u661f
I2
sV\u5ba2
I4
sV\u6c38\u4e0d
p6026
I2
sV\u97f3\u8bd1
p6027
I2
sV\u51fa\u8fc7
p6028
I2
sV\u5178\u96c5
p6029
I2
sV\u524d\u4e09\u7532
p6030
I2
sV\u7535\u4fe1
p6031
I132
sV\u97f3\u54cd\u8bbe\u5907
p6032
I2
sV\u4e1c\u839e
p6033
I2
sV\u4fdd\u969c
p6034
I8
sV\u4e4b\u8def
p6035
I4
sV\u7f3a\u53e3
p6036
I2
sV\u82f1\u96c4\u5f62\u8c61
p6037
I2
sV\u53d8\u5316\u65e0\u7a77
p6038
I2
sV\u5ba2\u4eba
p6039
I2
sV\u53f0\u670d
p6040
I2
sV\u5bf9\u534e
p6041
I2
sV\u832b\u832b
p6042
I2
sV\u63d0\u4f9b
p6043
I96
sV6500
p6044
I4
sV\u8bdd\u8bed\u6743
p6045
I2
sV\u7acb\u4f53
p6046
I2
sV(
I50
sV\u901f\u901f
p6047
I48
sV\u9053\u683c
p6048
I2
sV\u604b\u7231
p6049
I4
sV\u5229\u7269\u6d66
p6050
I2
sV\u539f\u7406
p6051
I2
sV\u5e9f\u5f03
p6052
I4
sV\u666e\u904d
p6053
I6
sV\u601d\u7ef4\u80fd\u529b
p6054
I2
sV\u4e3b\u89c2\u81c6\u65ad
p6055
I2
sViphone
p6056
I20
sV\u5c0f\u5904\u7740\u624b
p6057
I2
sV\u4e4b\u8c1c
p6058
I2
sV\u9700\u6c42
p6059
I64
sV\u641e\u7838
p6060
I4
sV\u8de8\u56fd
p6061
I2
sVOpera
p6062
I4
sVAsha
p6063
I4
sV\u5c4e
I2
sV\u98ce\u98ce\u96e8\u96e8
p6064
I2
sV\u4e24\u500d
p6065
I6
sV\u67f4\u6f8d\u9756
p6066
I2
sV\u7535\u4e3a
p6067
I2
sV\u6148\u60b2
p6068
I2
sV\u623f\u6a90
p6069
I2
sV\u6574\u4e2a
p6070
I26
sV\u8036\u8bde\u8282
p6071
I2
sV\u9876
I2
sV\u63d0\u4e0a
p6072
I2
sV\u5965\u5df4\u9a6c
p6073
I288
sV\u5e38\u7528
p6074
I4
sV\u51a4\u6789\u8def
p6075
I2
sVMedia
p6076
I6
sV\u9002\u5408
p6077
I2
sV\u8513\u5ef6
p6078
I2
sV\u5408\u4f5c\u4f19\u4f34
p6079
I2
sV\u4efb\u4f55\u4eba
p6080
I4
sV\u8bc4\u6bd4
p6081
I2
sVcounting
p6082
I2
sVVPU
p6083
I2
sV\u76f8\u901a
p6084
I2
sVEnfoDesk
p6085
I2
sV\u8010\u73a9\u5ea6
p6086
I2
sV1
I556
sV\u5c04\u7ebf
p6087
I2
sV\u76f8\u5f53
p6088
I6
sV\u4e0e\u5916
p6089
I2
sV\u53f6\u4ec1\u6d69
p6090
I6
sV\u4fc4
I4
sV\u534a\u5c0f\u65f6
p6091
I4
sV\u51fa\u8eab
p6092
I2
sV\u56de\u7b54
p6093
I2
sV\u5bcc
I4
sV\u5916\u8863
p6094
I2
sV4500
p6095
I2
sV\u63d0\u4ea4
p6096
I6
sV\u4e0d\u5c3d
p6097
I2
sV\u5927\u5e45\u63d0\u9ad8
p6098
I2
sV\u53ef\u53d1
p6099
I2
sV\u70e6
I2
sV\u57ce\u5e02
p6100
I44
sV\u53ef\u53e3
p6101
I2
sV\u4e2d\u67aa
p6102
I4
sV\u4e0d\u5c11
p6103
I18
sV\u9a6c\u8def
p6104
I2
sV\u601d\u8def
p6105
I2
sV\u5efa
I48
sV\u8d85
I60
sV\u6700
I114
sVWozniak
p6106
I2
sV\u611f\u5e94
p6107
I2
sV\u8bbe\u8eab\u5904\u5730
p6108
I2
sV\u4e0d\u5fc5
p6109
I2
sV\u5973\u4eba
p6110
I14
sV\u62db\u81f4
p6111
I2
sV\u6d41\u52a8
p6112
I2
sV\u5c3c\u739b
p6113
I4
sV\u7537\u4eba
p6114
I28
sV\u7ea2\u7f50
p6115
I4
sV\u7075\u9b42
p6116
I6
sV\u578b
I4
sV\u77ee\u7a77
p6117
I2
sV\u636e\u6089
p6118
I14
sV\u7acb
I2
sV\u51fa\u8d27
p6119
I12
sV\u8fd9
I298
sV26.5
p6120
I2
sV\u5f13\u5f26
p6121
I2
sV\u4e89\u9738
p6122
I2
sV\u7edf\u6cbb
p6123
I52
sV\u903c\u8fd1
p6124
I2
sV\u600e\u4e48\u6837
p6125
I4
sV\u8f6e
I8
sV\u4e0d\u5f97
p6126
I2
sV\u5934\u90e8
p6127
I2
sVAdroid
p6128
I4
sV\u5e78
I2
sV\u56de\u6536
p6129
I6
sV\u6e21\u5047\u6751
p6130
I2
sV\u82af\u7247\u5382\u5546
p6131
I2
sV\u5f81\u96c6
p6132
I52
sV\u8fd0\u51fa
p6133
I2
sV\u7f8e
I12
sV\u6d6a\u6f2b
p6134
I4
sV\u8bc1\u5b9e
p6135
I16
sV\u91cd\u5e86
p6136
I4
sV\u9ed1\u6697
p6137
I6
sV\u5b88\u5230
p6138
I2
sV\u9632\u62a4
p6139
I2
sV\u4e0d\u5f53
p6140
I2
sV\u5e55\u4e0a
p6141
I2
sV\u7eb8
I6
sV\u523b
I2
sV\u4f53\u7cfb
p6142
I4
sVSamsung
p6143
I2
sV\u914d\u7f6e
p6144
I12
sV\u52a8\u6f2b
p6145
I2
sV\u6d6a\u6f6e
p6146
I48
sV\u8857
I2
sV\u4f59
I4
sVSecurity
p6147
I2
sV\u7531\u4e8e
p6148
I24
sVcultofmac
p6149
I2
sVJulian
p6150
I2
sV\u5458\u5de5
p6151
I22
sV\u5c0a\u656c
p6152
I2
sVturn
p6153
I12
sV\u8d2d\u7269\u4e2d\u5fc3
p6154
I2
sVTouch
p6155
I4
sV1000
p6156
I104
sV\u897f\u897f\u91cc\u5c9b
p6157
I2
sV\u793e\u533a
p6158
I4
sV\u76f8\u5dee
p6159
I2
sV\u6708
I822
sV\u5988\u5988
p6160
I18
sV\u4ee3\u66ff
p6161
I2
sV\u6210\u5c31
p6162
I2
sV\u975e\u8981
p6163
I2
sV\u6570\u4f4d
p6164
I2
sV\u4e2a\u6027
p6165
I10
sV\u7248\u672c\u53f7
p6166
I2
sV\u5728
I1502
sV\u5f00\u653e\u5f0f
p6167
I2
sV\u8d1d\u4f50\u65af
p6168
I6
sV\u4e00\u8138
p6169
I2
sV\u6d4e\u5357
p6170
I196
sV\u8ff7\u4f60
p6171
I6
sVV30a
p6172
I2
sV\u6447\u6746
p6173
I2
sVlazy
p6174
I2
sV\u94bb\u6212
p6175
I2
sV\u9000\u5b66
p6176
I2
sV\u4e24\u5206
p6177
I2
sV\u897f\u95e8\u5b50
p6178
I2
sV\u4e0d\u5e94
p6179
I2
sV\u7b80\u79f0
p6180
I10
sVM16
p6181
I2
sV\u51cf\u6cd5
p6182
I2
sV\u517c
I2
sVand
p6183
I2
sV\u60ca\u5929\u5927
p6184
I2
sV\u6148\u5584\u4e8b\u4e1a
p6185
I2
sV\u7eaa\u5ff5\u65e5
p6186
I2
sV\u62db\u8058
p6187
I14
sVBootLoader
p6188
I2
sV\u201d
I606
sV\u4e0d\u5e78
p6189
I4
sV\u5e2e\u52a9
p6190
I76
sV\u4e00\u7cfb\u5217
p6191
I2
sV\u79f0
I164
sV\u9996\u90e8
p6192
I2
sV\u4e2d\u65ec
p6193
I14
sV\u88f8\u4f53
p6194
I2
sV\u9996\u90fd
p6195
I2
sV\u4e2d\u6587
p6196
I4
sV\u8f68\u8ff9
p6197
I4
sV\u627e\u5230
p6198
I16
sV\u53ef\u53e3\u53ef\u4e50\u516c\u53f8
p6199
I4
sV\u66f4\u540d
p6200
I2
sV\u90a6\u59ae
p6201
I4
sV\u62c9\u59c6
p6202
I2
sV\u89e6\u53d1
p6203
I6
sV\u8bef\u89e3
p6204
I2
sV\u7b79\u96c6
p6205
I2
sV\u5b88\u536b
p6206
I4
sV\u597d\u53cb
p6207
I58
sV\u9634\u9669
p6208
I2
sV\u89e6\u53ca
p6209
I4
sV\u9ad8\u6027\u4ef7\u6bd4
p6210
I4
sV\u56fe
I64
sV\u8d81
I4
sV\u63d2\u4ef6
p6211
I6
sV\u4e2d\u6240
p6212
I2
sV\u7eb9\u8def
p6213
I2
sV\u96ea\u803b
p6214
I2
sV\u653b\u51fb
p6215
I6
sV\u666e\u53ca
p6216
I2
sVResearch
p6217
I4
sV\u5f7c\u6b64
p6218
I6
sV\u574e\u5fb7\u62c9
p6219
I2
sV\u718a\u5e02
p6220
I4
sV\u8bd7\u53e5
p6221
I2
sV\u7b80\u7ea6
p6222
I2
sV\u4f7f\u5f97
p6223
I4
sV\u5730\u65b9
p6224
I24
sV12.85
p6225
I2
sV\u77f3\u5934
p6226
I2
sV\u5904\u7406
p6227
I10
sV\u950b\u4e3d
p6228
I2
sV\u59b9
I2
sV\u4e13\u4e3a
p6229
I10
sV\u638c\u63e1
p6230
I2
sV\u7559\u58f0\u673a
p6231
I4
sV\u4e0d\u59a8
p6232
I8
sV\u8c61\u5f81
p6233
I2
sV\u4e13\u4e1a
p6234
I14
sV\u4e0d\u5982
p6235
I4
sV\u5de5\u4e1a
p6236
I2
sV\u5c4f\u5e55
p6237
I68
sV\u4e13\u4e00
p6238
I2
sV\u8fd0\u52a8\u5458
p6239
I2
sV\u707f\u70c2
p6240
I2
sV\u4e27\u5931
p6241
I2
sV\u7c7b\u4f3c
p6242
I24
sV\u53e3\u8bdb\u7b14\u4f10
p6243
I2
sV\u9677\u9631
p6244
I2
sV\u4e0d\u597d
p6245
I4
sV\u7535\u5b50\u4ea7\u54c1
p6246
I10
sVsmiling
p6247
I2
sV\u8bf4\u7a7f
p6248
I2
sV\u5c04\u7bad
p6249
I2
sV\u4ea7\u4e1a\u94fe
p6250
I4
sV\u88ad\u51fb\u8005
p6251
I2
sViLP
p6252
I2
sV\u5965\u7279\u66fc
p6253
I2
sV\u540c\u4e00\u65f6\u95f4
p6254
I2
sV\u8584\u5f31
p6255
I50
sV\u8d77\u6765
p6256
I18
sVCloudera
p6257
I6
sVNatural
p6258
I2
sV\u5148\u751f
p6259
I2
sV\u9879\u76ee
p6260
I6
sV\u60e0\u666e
p6261
I288
sV\u9010\u6e10
p6262
I52
sV\u843d\u4f0d
p6263
I2
sV\u529e\u4e8b
p6264
I2
sV\u5de5\u4eba
p6265
I6
sV\u9a81\u9f99
p6266
I10
sV\u6210\u7ee9
p6267
I4
sV\u8111\u888b
p6268
I2
sV\u4eb2\u8d74
p6269
I2
sV\u4e0d\u5907
p6270
I2
sV\u8868\u793a\u6b49\u610f
p6271
I2
sV\u56fe\u5f62\u5904\u7406
p6272
I2
sV\u4e0d\u590d
p6273
I2
sVChronic
p6274
I2
sV\u4e0d\u5916
p6275
I2
sV\u4e0d\u591f
p6276
I4
sV\u8bf4\u4e0d\u6e05\u695a
p6277
I2
sV\u72d0\u670b\u72d7\u53cb
p6278
I2
sV\u5584\u4e8e
p6279
I4
sV\u8fbe\u4eba
p6280
I2
sV\u6545\u4e8b
p6281
I18
sV\u8089
I2
sV28
p6282
I64
sV\u5982\u590f
p6283
I2
sV\u84dd\u7259
p6284
I18
sV\uff0c
I9334
sV6.
p6285
I2
sV60
p6286
I4
sV61
p6287
I2
sV62
p6288
I4
sV\u76f8\u5bf9
p6289
I56
sV64
p6290
I10
sV66
p6291
I4
sV68
p6292
I4
sV\u5206\u624b
p6293
I2
sV\u91cd\u590d
p6294
I10
sV\u4f4d\u4e8e
p6295
I4
sV\u5de5\u4f5c
p6296
I16
sV\u5e2d\u5377
p6297
I52
sV500
p6298
I22
sVPhil
p6299
I2
sV\u7ea0\u7eb7
p6300
I2
sV\u81ea\u52a8\u5316
p6301
I4
sV\u4fdd\u52a0\u5229\u4e9a
p6302
I2
sV\u632f\u52a8\u6a21\u5f0f
p6303
I2
sV\u6838\u5fc3
p6304
I4
sV\u4e0a\u6d77\u961f
p6305
I2
sV\u878d\u5408
p6306
I8
sV\u4f01\u4e1a\u7ea7
p6307
I2
sV\u5931\u8d25
p6308
I6
sV\u5450\u558a
p6309
I2
sV\u66f4\u52a0
p6310
I20
sVChromebook
p6311
I2
sVSlow
p6312
I2
sV\u5355\u6838
p6313
I2
sVMenue
p6314
I2
sV\u628a
I64
sV\u5de5\u4fe1
p6315
I10
sV\u5077\u5929
p6316
I2
sV\u788e
I2
sV\u5411
I108
sV\u590d\u5174
p6317
I2
sV\u4e2d\u56fd\u79fb\u52a8
p6318
I42
sV\u5e26\u6765
p6319
I122
sVAXGP
p6320
I2
sV\u8fdd\u53cd
p6321
I4
sV\u4e2d\u56fd\u822a\u5929
p6322
I2
sV\u65ad\u7f51
p6323
I4
sV\u68c0\u67e5
p6324
I52
sV\u9999\u6e2f\u5a92\u4f53
p6325
I2
sV\u65b0
I178
sV\u4ed8\u6b3e
p6326
I4
sV\u767e\u904d
p6327
I2
sV\u6084\u7136
p6328
I10
sV\u89e3\u7b54
p6329
I2
sV\u5b98\u65b9\u7f51
p6330
I2
sV\u53ef\u73a9\u6027
p6331
I2
sV\u524d\u7f6e
p6332
I6
sV\u9753\u53f7
p6333
I8
sVIT
p6334
I6
sV\u98ce
I6
sVII
p6335
I8
sV\u7535\u6c60\u82af
p6336
I4
sVIN
p6337
I2
sV\u5bcc\u58eb\u5eb7
p6338
I12
sVIC
p6339
I10
sVDream
p6340
I8
sV\u6218\u6597
p6341
I16
sV\u51cc\u5b87
p6342
I2
sV\u5ea6
I4
sV\u53ea\u89c1
p6343
I2
sV\u540c\u80de
p6344
I4
sV\u5e26\u6709
p6345
I4
sV\u5883\u5730
p6346
I2
sV\u6c5f\u6d0b\u5927\u76d7
p6347
I2
sV\u7a81\u7834\u6027
p6348
I2
sV\u5356
I6
sVPing
p6349
I2
sV\u603b\u80fd
p6350
I2
sV\u5409\u4ed6
p6351
I8
sV\u76f8\u4e92\u95f4
p6352
I2
sV\u786c\u4ef6\u5e73\u53f0
p6353
I48
sV\u5408\u7406
p6354
I2
sV\u73a9
I34
sV\u53cd\u800c
p6355
I6
sV\u8eab
I4
sV\u8d2d\u7f6e
p6356
I2
sV\u80a5\u7682
p6357
I8
sVApplications
p6358
I2
sV\u73ab\u7470
p6359
I2
sV\u624b\u4f1a
p6360
I2
sV\u9a84\u50b2
p6361
I2
sV\u5706\u89d2
p6362
I2
sV\u7ea0\u7f20
p6363
I2
sV\u4eb2\u8fd1
p6364
I2
sV\u89d2\u5ea6
p6365
I2
sV\u6c7d\u8f66
p6366
I8
sV\u5f97\u6551
p6367
I2
sV\u6070\u5230\u597d\u5904
p6368
I2
sV\u54c0\u601d
p6369
I2
sV\u63a5\u6536\u5668
p6370
I2
sV\u53cc\u5e01
p6371
I2
sV\u4ef7\u4f4d
p6372
I2
sV\u7684\u54e5
p6373
I4
sV\u771f\u5b9e
p6374
I4
sV\u5806\u6ee1
p6375
I2
sV\u6f5c\u5165
p6376
I4
sV\u6625\u665a
p6377
I2
sV\u80cc\u8d1f
p6378
I2
sV\u547c
I4
sV\u5e9f\u589f
p6379
I2
sV20610
p6380
I4
sV\u8fd8\u6709
p6381
I76
sV\u70df\u5e55
p6382
I2
sV\u89c9\u5f97
p6383
I22
sV\u4e3b\u573a
p6384
I4
sV\u6e05\u695a
p6385
I4
sV\u5723\u5730
p6386
I2
sV\u98a4
I2
sV\u62c2\u9762
p6387
I2
sV\u97f3\u7bb1
p6388
I48
sV\u8d2d
I2
sVmoon
p6389
I2
sV\u62cd\u5356
p6390
I4
sV\u901b\u8857
p6391
I2
sV\u8bb8\u53ef
p6392
I10
sV\u9500\u91cf
p6393
I100
sV\u952e\u76d8
p6394
I16
sV\u6218\u5927\u80dc
p6395
I2
sV\u590d\u5236
p6396
I2
sVRock
p6397
I2
sV\u5272\u820d
p6398
I2
sV\u7edd\u7f8e
p6399
I2
sV\u82e6\u77ed
p6400
I2
sV\u8d8b\u52bf\u79d1\u6280
p6401
I2
sV\u745e\u5178
p6402
I2
sVon
p6403
I6
sV\u5386\u53f2
p6404
I8
sVHTC
p6405
I54
sVof
p6406
I6
sV\u5730\u677f
p6407
I6
sVRovio
p6408
I8
sV\u539f\u73ed
p6409
I2
sV\u7f8e\u91d1
p6410
I4
sVor
p6411
I4
sV\u5413\u6b7b
p6412
I2
sV\u8fdd\u6cd5
p6413
I4
sV199.95
p6414
I2
sV\u9752\u5e74\u8282
p6415
I2
sV\u624b\u4e2d
p6416
I8
sV\u6c34\u6df1\u706b\u70ed
p6417
I2
sV\u4e18\u5409\u5c14
p6418
I2
sVSurvivalcraft
p6419
I2
sV\u7a7a\u95f4
p6420
I6
sV\u6218\u7565
p6421
I54
sV\u4ef7\u4e3a
p6422
I6
sV\u96d5\u7422
p6423
I2
sV\u51fa\u884c
p6424
I4
sV\u5f20
I102
sV\u53f2\u52aa\u6bd4
p6425
I2
sV\u6c14\u6c1b
p6426
I4
sV\u9ea6\u514b\u98ce
p6427
I2
sV\u624b\u4e0a
p6428
I2
sVthere
p6429
I2
sV\u5c0f\u6e38\u620f
p6430
I4
sV\u5141\u8bb8
p6431
I4
sV\u6551\u63f4
p6432
I2
sV\u5bb6\u56ed
p6433
I2
sV\u901f\u6ed1
p6434
I2
sV\u540c\u8272
p6435
I2
sV\u8f6c\u5411
p6436
I6
sV\u4e2d\u56fd\u94f6\u8054
p6437
I4
sV\u4f60\u597d
p6438
I2
sV1024
p6439
I2
sV\u4e1c\u5317\u90e8
p6440
I2
sVLED
p6441
I2
sV\u9707\u64bc
p6442
I6
sV\u5357\u9633
p6443
I2
sV\u786c\u6d3e
p6444
I2
sV\u56de\u60f3
p6445
I2
sV\u91cd\u5ba1
p6446
I4
sV\u82f1\u4f1f
p6447
I2
sV\u611f
I4
sV4.5
p6448
I4
sV4.4
p6449
I2
sV4.7
p6450
I4
sV4.1
p6451
I24
sV\u8fd8\u662f
p6452
I82
sV4.3
p6453
I6
sV4.2
p6454
I28
sV\u6062\u590d
p6455
I2
sV4.9
p6456
I2
sV4.8
p6457
I2
sV\u7eed\u822a
p6458
I14
sV\u58a8\u897f\u54e5
p6459
I2
sV5
I396
sV\u56fe\u50cf
p6460
I8
sV\u8c1c\u5e95
p6461
I4
sV\u706f\u5149
p6462
I2
sVICS
p6463
I10
sV\u6700\u9ad8
p6464
I16
sV\u53cc\u5f85
p6465
I2
sV\u798f\u5e03\u65af
p6466
I6
sV\u60c5\u7eea
p6467
I2
sV\u4e09\u6bdb
p6468
I2
sVwifi
p6469
I98
sVDXL
p6470
I4
sV\u81f4
I2
sV\u8bba\u575b
p6471
I4
sV\u53d8\u8272
p6472
I2
sV\u5173\u5361
p6473
I22
sV\u6c5f\u6c49\u533a
p6474
I2
sV\u9753\u4e3d
p6475
I2
sV\u7cdf\u7cd5
p6476
I2
sV\u53d1\u653e
p6477
I4
sV\u5357\u7f8e\u6d32
p6478
I2
sV\u8f66\u95e8
p6479
I2
sV\u60c5\u611f
p6480
I4
sV\u7269\u8bed
p6481
I6
sV\u6761\u4ef6
p6482
I8
sV\u683c\u91cc\u592b\u65af
p6483
I2
sV\u534a\u6b7b
p6484
I2
sV\u6ce8\u610f\u5b89\u5168
p6485
I2
sV\u62a2\u5148
p6486
I2
sV\u5c3d\u53ef\u80fd
p6487
I2
sV\u673a
I22
sV\u4f4e\u6e29
p6488
I48
sV\u591a\u79cd\u4e0d\u540c
p6489
I2
sV\u9644
I2
sV\u9526\u6807\u8d5b
p6490
I4
sV\u54c8\u5c14
p6491
I2
sV\u4e13\u5229
p6492
I114
sV\u97f3\u6548
p6493
I8
sVX920e
p6494
I2
sVMINECRAFT
p6495
I2
sV\u6b64
I16
sV\u77e5\u540d
p6496
I10
sV\u6d74\u7f38
p6497
I2
sV\u4e25\u683c
p6498
I4
sV\u4eba\u5fc3
p6499
I2
sV\u5e74
I110
sV\u5185\u6218
p6500
I2
sV\u6bcf\u5929
p6501
I16
sV\u6d4b\u8bd5\u7248
p6502
I6
sVwhat
p6503
I10
sV\u517b\u6210
p6504
I2
sV4.1.1
p6505
I2
sV4.1.2
p6506
I2
sV\u4f55\u4ee5\u582a
p6507
I2
sV\u915d\u917f
p6508
I50
sV\u624b\u518c
p6509
I2
sV\u78b0
I6
sV\u5e55\u540e
p6510
I4
sV\u9053\u6b49
p6511
I2
sV\u53d1\u6587
p6512
I2
sV\u5317\u4eac\u5e02
p6513
I2
sV\u52a8\u753b
p6514
I8
sV\u9c7c\u8089\u767e\u59d3
p6515
I2
sV\u8bf4\u660e
p6516
I10
sV\u4e4b\u95f4
p6517
I22
sV\u4ecd\u672a
p6518
I2
sVKPN
p6519
I2
sV\u706b
I4
sV\u8eab\u4efd\u8bc1\u53f7
p6520
I48
sV\u6e29\u67d4
p6521
I2
sV\u666f\u8c61
p6522
I2
sV\u5f00\u653e\u5e73\u53f0
p6523
I2
sV\u535a\u7269\u9986
p6524
I4
sV\u5b8c\u7f8e
p6525
I80
sV\u7c73
I4
sV\u5370\u5ea6
p6526
I16
sV\u6d77\u5b50
p6527
I2
sV\u7075\u961f
p6528
I2
sV\u60c5\u6000
p6529
I2
sV\u6a31\u6843
p6530
I2
sV\u9ea6\u5f53\u52b3
p6531
I2
sV\u63d2\u53e3
p6532
I2
sV\u4ef7\u503c
p6533
I56
sV\u5f53\u4e0b
p6534
I2
sV\u4e94\u5f69\u7f24\u7eb7
p6535
I2
sV\u9a6c\u4e9a
p6536
I2
sV\u4e13\u5356
p6537
I2
sV\u8fc7\u5ea6
p6538
I48
sV\u83b7
I20
sV\u5b63\u7f51
p6539
I2
sV\u79cb\u5929
p6540
I2
sV\u751a\u81f3
p6541
I20
sVIntel
p6542
I2
sV\u5de5\u5320
p6543
I4
sV\u65f6\u9ae6
p6544
I2
sV\u8d34\u8fd1
p6545
I48
sV\u53d7
I16
sV\u5f53\u9762
p6546
I2
sV\u6b64\u6848
p6547
I4
sV\u51fa\u73b0\u610f\u5916
p6548
I2
sV\u524d\u63d0
p6549
I2
sV\u6216\u8bb8
p6550
I12
sV\u89e3\u6790
p6551
I2
sVInc
p6552
I48
sVPhantom
p6553
I2
sV\u56e0\u7d20
p6554
I2
sV\u8fbe\u5230
p6555
I38
sV\u4eba\u5e26
p6556
I2
sV\u5206\u6790\u5e08
p6557
I20
sV\u533b\u9662
p6558
I2
sV\u9634\u8c0b
p6559
I2
sV\u7d27\u5f20
p6560
I4
sV6899
p6561
I4
sV\u518d\u6b21
p6562
I16
sV\u597d\u73a9
p6563
I16
sV\uff1f
I904
sV\u7406\u7531
p6564
I8
sV5.3
p6565
I2
sV5.5
p6566
I4
sV5.7
p6567
I2
sV\u8bd5\u8fd0\u8425
p6568
I2
sV\u6e29\u6696
p6569
I10
sV\u738b\u9053
p6570
I2
sV\u5408\u4f5c\u5f00\u53d1
p6571
I2
sV\u8981\u8bf4
p6572
I2
sV\u66fe\u7ecf
p6573
I72
sV\u5fc3\u5934
p6574
I2
sV\u6469\u6839
p6575
I2
sV\u51b3\u5b9a
p6576
I64
sV\u75d5\u8ff9
p6577
I2
sV\u51cf\u7a0e
p6578
I4
sV\u6240\u6709
p6579
I48
sV\u624d
I30
sV\u4eba\u6027\u5316
p6580
I2
sVDOCK
p6581
I6
sV\u8bf4\u670d
p6582
I4
sVshort
p6583
I2
sV\u66f4\u4e3a
p6584
I2
sV\u6625\u79cb
p6585
I2
sV\u751f\u547d\u4e0d\u606f
p6586
I2
sV\u8131\u79bb
p6587
I2
sV\u900a\u8272
p6588
I2
sV\u5de5\u5382
p6589
I16
sV\u8ffd\u6740
p6590
I2
sV\u4fb5\u6743\u884c\u4e3a
p6591
I2
sVLinux
p6592
I8
sVSami
p6593
I2
sV\u6b64\u6b21
p6594
I10
sV\u6b64\u6b3e
p6595
I2
sV\u5173\u4e8e
p6596
I16
sVLINE
p6597
I6
sV\u7535\u5546
p6598
I6
sV\u5b58\u653e
p6599
I2
sV\u65b0\u673a
p6600
I6
sVBean
p6601
I6
sV\u6e20\u9053
p6602
I4
sV
I84
sV\u5fd8\u8bb0
p6603
I12
sV\u6570\u636e\u5305
p6604
I6
sV\u4f17\u4eba
p6605
I2
sV\u51b7\u9759
p6606
I2
sV\u6ce8\u610f
p6607
I30
sV\u5c0f\u732a
p6608
I2
sVOLED
p6609
I2
sVL
I2
sVLightning
p6610
I2
sV\u6b8b\u5bb3
p6611
I2
sVframework
p6612
I2
sV\u53d1\u6765
p6613
I2
sV\u54c8\u5e02
p6614
I4
sV\u4e58\u5750
p6615
I8
sV\u9762\u5bf9
p6616
I10
sV\u56de\u5408
p6617
I2
sVRab
p6618
I2
sV\u5feb\u6765
p6619
I4
sV\u94f6\u884c\u5361
p6620
I4
sV\u521b\u5efa
p6621
I6
sV\u53ea\u662f
p6622
I40
sV\u4e00\u9879
p6623
I10
sV\u69fd
I2
sV\u5f69\u8679
p6624
I4
sV\u540c\u80de\u4eec
p6625
I2
sV\u673a\u7f18\u5de7\u5408
p6626
I2
sV\u590d\u4e60
p6627
I2
sV\u63a5\u4e0b\u6765
p6628
I2
sV\u76d7\u7248
p6629
I8
sV\u5565\u65f6\u5019
p6630
I2
sV\u672a\u53ef\u77e5
p6631
I2
sV\u7528\u6237\u91cf
p6632
I2
sVTOP100
p6633
I2
sV\u9ec4\u91d1
p6634
I6
sV\u90bb\u8fd1
p6635
I2
sV\u8981\u5230
p6636
I2
sV\u522b
I12
sV\u6d77\u5916
p6637
I6
sV\u996d\u94b1
p6638
I2
sV\u5145\u503c\u5361
p6639
I52
sV\u6570\u5341\u79cd
p6640
I2
sV8331916
p6641
I2
sV\u9996\u8981
p6642
I2
sV\u5b8c\u6574
p6643
I8
sV\u672a\u542b
p6644
I2
sV\u6d3b\u5728
p6645
I2
sV\u6269\u5927
p6646
I4
sV\u5f15\u9886
p6647
I2
sV\u552e\u540e\u670d\u52a1
p6648
I8
sV\u4e8c\u624b
p6649
I2
sV\u8d44\u683c
p6650
I2
sV\u8fd1\u5e74\u6765
p6651
I2
sV\u91cd\u91cd\u96be\u5173
p6652
I2
sV\u5361\u901a
p6653
I14
sV\u6807\u5fd7
p6654
I12
sV\u3002
I3504
sV\uff08
I330
sVAppsfire
p6655
I2
sV2599
p6656
I2
sV\u5f62\u72b6
p6657
I2
sV\u5de5\u5177
p6658
I8
sV\u5b58\u5728
p6659
I66
sV"
I16
sV\u65f6\u5c1a\u5973\u6027
p6660
I2
sV\u529e\u516c
p6661
I8
sV\u636e\u79f0
p6662
I2
sVstore
p6663
I2
sV\u53d1\u660e
p6664
I2
sV\u5fc5\u5c06\u4f1a
p6665
I2
sV\u6d63\u718a
p6666
I2
sV\u65cf
I4
sV\u8be5\u6b3e
p6667
I8
sV\u51e0\u4ef6
p6668
I2
sV\u6574\u5408
p6669
I18
sV\u9886\u5148
p6670
I98
sV10010
p6671
I2
sV\u61f5\u61c2
p6672
I2
sVkind
p6673
I2
sV\u4e4b\u9645
p6674
I2
sV\u542f\u52a8
p6675
I12
sV\u70ed
I6
sV\u5f88\u5feb
p6676
I16
sV\u95ea\u5c4f
p6677
I2
sV\u6770\u592b
p6678
I2
sVx960
p6679
I8
sV\u56de\u5408\u5236
p6680
I6
sV\u51e0\u4e2a
p6681
I8
sV\u4e00\u9996
p6682
I2
sV\u76f4\u5230
p6683
I14
sVAbercrombie
p6684
I2
sVFind5
p6685
I2
sV\u5f88\u5f3a
p6686
I2
sV\u8eb2\u5230
p6687
I2
sV\u6d41\u901d
p6688
I2
sV\u5347\u7ea7
p6689
I62
sVCompressor
p6690
I2
sV\u8d2b\u7a77
p6691
I2
sV\u76f4\u901a\u8f66
p6692
I2
sV\u4f1f\u5927
p6693
I10
sV\u89e3\u6551
p6694
I2
sV\u65e9\u5c31
p6695
I2
sV\u8fde\u8fde
p6696
I2
sV\u8f7b\u8f7b
p6697
I2
sV7.
p6698
I2
sV\u65b9\u8a00\u7248
p6699
I2
sV75
p6700
I10
sV\u89e3\u653e
p6701
I2
sV71
p6702
I2
sV70
p6703
I4
sV\u62e3\u5230
p6704
I2
sV\u8fde\u8fc7
p6705
I2
sV\u62c9\u65af\u7ef4\u52a0\u65af
p6706
I2
sV\u822a\u661f
p6707
I2
sVwindows
p6708
I2
sV\u59dc\u997c
p6709
I2
sV\u843d\u5b9e
p6710
I2
sV158848
p6711
I2
sV4.2.1
p6712
I8
sV\u624b\u65e0\u5bf8\u94c1
p6713
I2
sV\u4f55\u65b9
p6714
I2
sV\u4e8e\u662f
p6715
I6
sV\u6d3b\u51fa
p6716
I2
sV\u68a6\u5e7b
p6717
I4
sV\u622a\u81f3
p6718
I2
sV\u4ecd\u7136
p6719
I6
sV\u8857\u9053
p6720
I6
sV\u65b0\u610f
p6721
I50
sVJB
p6722
I6
sV\u51b7\u9178
p6723
I2
sV\u8bbe\u5b9a
p6724
I4
sV\u642d\u6863
p6725
I2
sV\u5e26\u7ed9
p6726
I4
sV\u8d25\u4e0b\u9635\u6765
p6727
I2
sV\u9ad8\u6e05
p6728
I26
sV\u4e8b\u5b9e\u4e0a
p6729
I6
sV\u63d0\u5347
p6730
I20
sV\u6536
I4
sV\u7c7b\u578b
p6731
I6
sVhis
p6732
I2
sV\u4e0a\u5468\u672b
p6733
I2
sV\u4f55\u65f6
p6734
I2
sV\u9ad8\u76db
p6735
I2
sV\u9020\u5c31
p6736
I2
sV\u5b9d\u85cf
p6737
I2
sV\u8d44\u6e90
p6738
I52
sV\u95ea\u5b58
p6739
I14
sV\u8bf7\u6c42
p6740
I2
sV\u65f6\u65f6\u523b\u523b
p6741
I2
sV\u77ed
I4
sV\u65b0\u52a0\u5761
p6742
I6
sV\u65f6\u5c1a
p6743
I8
sV\u8b66\u62a5
p6744
I6
sV\u9003
I2
sV\u5305
I54
sV\u7b80\u6613
p6745
I50
sVare
p6746
I8
sV\u7ecf\u5e38
p6747
I10
sV2.2
p6748
I6
sV2.1
p6749
I100
sV2.6
p6750
I2
sV2.5
p6751
I2
sV\u599e
I2
sV\u5b58\u50a8
p6752
I152
sV\u4e2d\u7aef
p6753
I4
sV\u6765\u7535\u663e\u793a
p6754
I4
sV\u6728\u5fc3
p6755
I2
sV\u9274\u4e8e
p6756
I2
sV\u683c\u6597\u6e38\u620f
p6757
I2
sV\u5723\u8bde\u8001\u4eba
p6758
I2
sV\u7ec8\u4e8e
p6759
I32
sV\u8427\u6761
p6760
I2
sV\u963f\u8428\u59c6
p6761
I2
sVWave
p6762
I4
sV\u5730\u94c1\u7ad9
p6763
I2
sV\u53ef\u4ee5
p6764
I256
sV\u57fa\u56e0\u7ec4
p6765
I2
sV\u95ee\u5ea6
p6766
I2
sV\u706d\u9876\u4e4b\u707e
p6767
I2
sV\u5212\u7740
p6768
I2
sV\u719f\u77e5
p6769
I2
sV\u7b2c\u4e00\u5e74
p6770
I48
sV\u6d6a\u6f2b\u4e3b\u4e49
p6771
I2
sV\u7b2c\u4e8c\u671f
p6772
I4
sVreasons
p6773
I2
sV\u672c\u5730\u5316
p6774
I2
sV\u6210\u672c
p6775
I4
sVPlay
p6776
I4
sV\u5bf9\u4e8e
p6777
I28
sV\u672a\u53d1
p6778
I2
sV\u906e\u62e6
p6779
I2
sV\u5bf9\u4e86
p6780
I48
sV\u9065\u8fdc
p6781
I4
sV\u5f88
I70
sV\u9648\u65e7
p6782
I2
sV\u597d\u770b
p6783
I2
sV\u63d0\u524d
p6784
I8
sV\u53cc\u7cfb\u7edf
p6785
I4
sV\u68fa\u6728
p6786
I2
sV\u5c04\u624b
p6787
I2
sV\u826f\u670b\u76ca\u53cb
p6788
I2
sV\u8d23\u4efb
p6789
I2
sV\u4e0d\u5f97\u4e0d
p6790
I8
sV\u54ac\u7259
p6791
I2
sV\u7f3a\u4e4f
p6792
I54
sV\u82e5
I4
sV\u58a8\u897f\u54e5\u6e7e
p6793
I2
sV\u5403\u8d27
p6794
I2
sV\u968f\u65f6\u968f\u5730
p6795
I6
sV\u9664\u975e
p6796
I4
sV\u7d27\u5bc6
p6797
I4
sV\u5fc3\u7406\u6218
p6798
I2
sV\u8ba9\u4f60\u5728
p6799
I2
sV2100
p6800
I2
sV\u5f88\u591a
p6801
I80
sVCity
p6802
I4
sV\u94ed\u4e07
p6803
I4
sV\u5438\u8840\u9b3c
p6804
I4
sV\u672c\u6708
p6805
I6
sV\u655e\u5f00
p6806
I2
sV\u4fdd\u8bc1
p6807
I4
sV\u5496
I2
sV\u7acb\u523b
p6808
I2
sV\u5c0f\u8d34\u58eb
p6809
I2
sV\u661f\u7403\u5927\u6218
p6810
I6
sV\u6210\u679c
p6811
I50
sV\u7ed3\u5408
p6812
I8
sV\u773c\u89c1\u4e3a\u5b9e
p6813
I2
sV\u5b8c\u6210
p6814
I6
sV9
I108
sV\u7ad9\u53f0
p6815
I2
sV\u5c55\u5f00
p6816
I8
sV\u907f\u5f00
p6817
I4
sV\u524d\u6765
p6818
I2
sV\u53ea\u80fd
p6819
I8
sV\u7535\u529b
p6820
I2
sV\u8986\u76d6\u7387
p6821
I6
sV899
p6822
I50
sV\u540e\u9762
p6823
I2
sVCoz
p6824
I2
sV\u7279\u5de5
p6825
I4
sV\u592e\u89c6
p6826
I2
sV\u9886\u57df
p6827
I36
sV\u8ffd\u6367
p6828
I52
sV\u8bca\u8109
p6829
I2
sV\u76f4\u6307
p6830
I2
sV\u8ffd\u6355
p6831
I10
sV\u5ba2\u5385
p6832
I2
sV\u8f6c\u4ea4
p6833
I2
sVgameloft
p6834
I2
sVClub
p6835
I2
sV\u77ed\u677f
p6836
I4
sV\u7f29\u5230
p6837
I2
sV\u6b32\u671b
p6838
I4
sV\u53d1\u6325
p6839
I50
sV\u5531\u7247
p6840
I4
sV\u5218
I2
sVEliteBook
p6841
I48
sV\u5fc3\u5e95
p6842
I4
sV\u97f3\u9891\u82af\u7247
p6843
I2
sV\u5ba3\u8a00
p6844
I2
sV\u963f\u91cc
p6845
I4
sV\u53f0\u79ef
p6846
I6
sV\u6b3e
I38
sV\u6cc4\u6f0f
p6847
I4
sV\u987b\u81fe
p6848
I2
sV\u767e\u5206\u70b9
p6849
I4
sV\u7206\u88c2
p6850
I2
sVPiggies
p6851
I2
sVW2013
p6852
I2
sV\u684c\u8fb9
p6853
I2
sV\u88c5\u7f6e
p6854
I4
sV\u5c0f\u770b
p6855
I2
sV\u5c0f\u4e38\u5b50
p6856
I2
sV\u7535\u89c6\u5267
p6857
I2
sVignore
p6858
I2
sVIPhone
p6859
I2
sV\u6124\u6012
p6860
I16
sV\u60ca\u8bb6
p6861
I2
sV\u8d2d\u673a
p6862
I2
sV\u63d0\u51fa
p6863
I6
sV\u8054\u7cfb\u4eba
p6864
I12
sV3.5
p6865
I6
sV3.2
p6866
I2
sV3.3
p6867
I2
sV\u5927\u5173
p6868
I2
sV\u793e\u4ea4
p6869
I54
sV3.8
p6870
I2
sVFire
p6871
I18
sV1525
p6872
I2
sVXXOO
p6873
I2
sV\u4e3b
I10
sV\u65e0\u6240\u4e0d\u80fd
p6874
I2
sV\u8bbe\u5907
p6875
I160
sV\u8b6c\u5982
p6876
I4
sV\u7b49
I124
sV\u7269\u8d28
p6877
I2
sV\u4e2d\u5174\u516c\u53f8
p6878
I4
sV\u94b1\u5305
p6879
I18
sV\u6570\u636e\u4fdd\u62a4
p6880
I96
sV\u4e13\u8f91
p6881
I4
sVSquare
p6882
I2
sV\u5df2
I130
sV\u6355\u6349
p6883
I4
sV\u8b66\u62a5\u58f0
p6884
I2
sV\u89c4\u5b9a
p6885
I2
sV\u5dc5\u5cf0
p6886
I2
sV\u7075\u901a
p6887
I2
sV\u6e38\u5ba2
p6888
I4
sV\u5e73\u884c
p6889
I4
sV\u5b9e\u9645\u4e0a
p6890
I2
sV\u5c9b\u4e0a
p6891
I2
sV\u901a
I6
sV\u98de\u8239
p6892
I2
sV\u793e\u4f1a
p6893
I8
sV\u4f53\u611f
p6894
I8
sV\u7535\u5b50\u4e66\u7c4d
p6895
I2
sV\u62c6\u89e3
p6896
I2
sV\u6a21\u4eff
p6897
I8
sV\u4f34\u4fa3
p6898
I2
sV\u56db\u5e74\u7ea7
p6899
I2
sV\u4e24\u4e2a
p6900
I24
sV\u4eba\u58eb
p6901
I30
sV\u54c1\u724c\u5f62\u8c61
p6902
I2
sV986
p6903
I2
sV\u5973\u53cb
p6904
I2
sV\u5355\u72ec
p6905
I4
sV\u6d3b\u52a8
p6906
I164
sV\u98de\u8247
p6907
I148
sV\u4e00\u5e2d\u4e4b\u5730
p6908
I2
sV\u5386\u7a0b
p6909
I4
sV\u53cc\u638c
p6910
I2
sV\u4e88\u4ee5
p6911
I4
sV\u8868\u60c5\u7b26\u53f7
p6912
I2
sV\u6b7b\u673a
p6913
I2
sV\u5168\u65b0
p6914
I184
sV\u810f
I2
sV\u6e38\u620f\u5427
p6915
I2
sV\u5c1a\u5c5e
p6916
I2
sV\u52a8\u7269
p6917
I14
sV\u5e02\u6c11
p6918
I10
sV\u7528\u4e0d\u4e0a
p6919
I2
sV\u548c\u5b89\u5353
p6920
I4
sV\u4e24\u4ef6
p6921
I2
sV\uff1b
I252
sV\u6d41\u4f20
p6922
I2
sV\u4ea6
I6
sV119
p6923
I48
sV\u5854\u5854
p6924
I6
sV\u7ed1\u5b9a
p6925
I2
sV\u6269\u5c55
p6926
I2
sV\u53cd\u9988
p6927
I2
sV\u4ea4\u6d41
p6928
I4
sVclub
p6929
I2
sV\u5c34\u5c2c
p6930
I2
sVSCDMA
p6931
I6
sV\u542c\u5230
p6932
I10
sV\u62a2\u56de
p6933
I2
sV\u5168\u6587
p6934
I2
sV\u5bb6\u4e61
p6935
I2
sV\u9500\u552e\u91cf
p6936
I8
sV\u5e9f\u65e7
p6937
I2
sV\u76d6
I2
sV\u5149\u6d41
p6938
I2
sV\u97f3\u9891\u6d41
p6939
I2
sV\u6bcf\u5e74
p6940
I6
sV\u5f71\u54cd
p6941
I12
sVROM
p6942
I16
sV\u6709\u6ca1\u6709
p6943
I2
sV\u8bd5\u8bd5
p6944
I10
sV\u6311\u6218
p6945
I32
sV\u8d85\u7ea7
p6946
I8
sVMoto
p6947
I2
sV\u4e58\u5ba2
p6948
I8
sV\u5355\u7247
p6949
I2
sV\u5df2\u5bf9
p6950
I2
sViPhone5S
p6951
I2
sV\u5220\u9664
p6952
I6
sV\u4e71\u4e16
p6953
I2
sV\u4e0d\u540c\u4e8e
p6954
I2
sV\u7ea2\u6d77
p6955
I2
sV\u4efb\u6027
p6956
I2
sV\u7528\u6237\u6570\u91cf
p6957
I2
sV\u5212\u7b97
p6958
I194
sV\u4e24
I12
sV\u7535\u5f71
p6959
I18
sV\u6570\u91cf\u7ea7
p6960
I2
sV\u64ad\u5ba2\u7f51
p6961
I2
sV\u653e
I4
sV\u5f71\u5b50
p6962
I4
sV\u8d70\u5411
p6963
I2
sV\u672c\u5b63\u5ea6
p6964
I2
sV\u68cb
I4
sV\u5bb3\u6015
p6965
I2
sVP
I2
sV\u6797\u5b50
p6966
I48
sV\u76f8\u4eb2
p6967
I2
sV\u6728\u5320
p6968
I2
sV\u9ad8\u7aef
p6969
I4
sV5300
p6970
I2
sV\u56ed\u8def
p6971
I2
sV13882
p6972
I2
sV\u987a\u5883
p6973
I4
sV49.4
p6974
I2
sV\u624b\u5957
p6975
I2
sV\u5197\u957f
p6976
I2
sV\u7b2c\u4e94\u5c4a
p6977
I2
sV\u7ea0\u6b63
p6978
I4
sV\u539f\u6599
p6979
I2
sV\u5c55\u5230
p6980
I2
sV\u5347\u7ea7\u5305
p6981
I2
sV\u8bbf\u95ee
p6982
I16
sV\u54c8\u54c8
p6983
I4
sV\u4eab\u53d7
p6984
I24
sV\u751f\u6001\u7cfb\u7edf
p6985
I10
sV\u9177\u4f3c
p6986
I2
sV\u6709\u65f6\u5019
p6987
I8
sV\u53e6\u4e00\u65b9\u9762
p6988
I4
sVLink
p6989
I2
sV\u8d39
I2
sV\u66fc\u5f7b\u65af\u7279
p6990
I2
sV\u9c8d\u5c14\u9ed8
p6991
I10
sV\u4e89\u593a
p6992
I4
sV\u6c38\u8fdc
p6993
I28
sV\u54c8
I4
sV\u4f60\u4eec
p6994
I2
sV\u5356\u51fa
p6995
I4
sV\u53e3\u6c34
p6996
I48
sVIngress
p6997
I4
sV\u8fc7\u5145
p6998
I48
sV\u5dee
I2
sV\u9ad8\u7a7a
p6999
I96
sV\u6d88\u606f\u4eba\u58eb
p7000
I60
sV\u53f2
I2
sVMotor
p7001
I2
sV\u53e3\u6c14
p7002
I2
sV\u5206\u6790
p7003
I14
sV\u6c47\u603b
p7004
I2
sVapp
p7005
I6
sV\u76f8\u4fe1
p7006
I78
sV\u524d\u6bb5
p7007
I48
sV\u5409\u59c6
p7008
I2
sV\u597d\u7b11
p7009
I2
sV\u4f24
I12
sV&
I18
sV\u65f6\u5149
p7010
I10
sV\u5730\u70b9
p7011
I2
sV\u8fdc\u79bb
p7012
I4
sV\u89c1\u5230
p7013
I2
sV\u4efb\u610f
p7014
I4
sV\u5fc3\u51c9
p7015
I2
sV\u6a44\u6984\u679d
p7016
I2
sV\u5168\u529f\u80fd
p7017
I2
sV\u82e6\u607c
p7018
I2
sV\u770b\u4e0d\u4e0a
p7019
I2
sV\u95fa\u623f
p7020
I2
sV\u7537\u5b69
p7021
I6
sVNTT
p7022
I8
sV\u9274\u5b9a\u5ba4
p7023
I2
sV\u8f6f\u4ef6
p7024
I26
sV\u5370\u5728
p7025
I2
sV\u54c8\u54c8\u54c8
p7026
I2
sV\u5806\u79ef
p7027
I2
sV\u95ee\u53ca
p7028
I2
sV\u51fa\u4efb
p7029
I4
sV\u4ea4\u6362
p7030
I2
sV\u4e09\u516b\u8282
p7031
I2
sV\u50b2\u5a07
p7032
I2
sV\u7ade\u6280
p7033
I2
sV\u771f
I10
sV2345
p7034
I6
sV\u7761\u7740
p7035
I2
sV\u6de1\u96c5
p7036
I2
sV\u8ba1\u7b97\u673a
p7037
I2
sV\u672c\u6b21
p7038
I6
sV\u673a\u68b0\u821e
p7039
I6
sV\u5b89\u8fea
p7040
I2
sV\u6210\u4eba\u4e4b\u7f8e
p7041
I48
sV\u65f6\u9694
p7042
I54
sV\u7761\u7720
p7043
I2
sV\u4ec5\u4ec5
p7044
I8
sV\u542b\u6709
p7045
I4
sV\u4e00\u8f88\u5b50
p7046
I4
sV\u53e3\u6c34\u6218
p7047
I2
sV\u4e13\u5bb6
p7048
I4
sV\u6655
I2
sV\u7ade\u62cd
p7049
I2
sV1888
p7050
I2
sV\u76f8\u4f34
p7051
I2
sV\u6b64\u60c5
p7052
I2
sV\u9886\u5bfc
p7053
I4
sV\u666f\u8272
p7054
I2
sV\u53d1\u6cc4
p7055
I2
sV\u6574\u5ea7
p7056
I2
sV\u95ee\u9898
p7057
I68
sV\u8f93\u5165\u6cd5
p7058
I4
sV\u4e0d\u4fe1
p7059
I2
sV\u8bf4\u6cd5
p7060
I2
sV\u8bf4\u5b8c
p7061
I2
sV13.
p7062
I2
sV\u90ed\u6021\u5e7f
p7063
I2
sV\u5982\u4e0b
p7064
I2
sV\u6210
I30
sV130
p7065
I2
sV\u5f53\u524d\u7248\u672c
p7066
I2
sV\u539f\u6709
p7067
I2
sV\u6d51\u8eab
p7068
I2
sV\u52a8\u7269\u56ed
p7069
I8
sV\u503c\u5f97
p7070
I10
sV\u5fc3\u52a8
p7071
I4
sV\u611f\u4eba
p7072
I2
sV\u6570\u5e74
p7073
I2
sV\u91c7\u8bbf
p7074
I14
sV\u5348\u65f6
p7075
I48
sV\u521d\u543b
p7076
I2
sV\u5de5\u7a0b\u6280\u672f
p7077
I2
sV\u5f80\u4e0a\u722c
p7078
I2
sV\u4e0d\u4fd7
p7079
I2
sV\u539f\u672c
p7080
I6
sV\u55b5
I2
sV\u5207\u6362
p7081
I2
sV\u60c5\u6b32
p7082
I2
sV\u5bff\u547d
p7083
I2
sV\u554a
I76
sV\u9ed1\u767d
p7084
I2
sV\u884c
I2
sV\u4f4e
I6
sV\u4e00\u9053
p7085
I4
sV\u901a\u8baf
p7086
I10
sV\u5546\u6807
p7087
I6
sV\u65f6\u523b
p7088
I6
sV\u65b0\u4e00\u8f6e
p7089
I8
sV\u54df
I8
sV\u4ee3
I6
sVPro
p7090
I10
sV\u59cb\u7ec8
p7091
I6
sV\u636e\u70b9
p7092
I2
sV\u539f\u6765
p7093
I66
sV\u51b0\u6fc0\u51cc
p7094
I2
sV\u4e66\u91cc
p7095
I48
sV\u98de\u8f66
p7096
I4
sV\u7279\u52a9
p7097
I2
sV\u4eca\u5929\u4e0a\u5348
p7098
I2
sV\u699c\u5355
p7099
I2
sV\u63a5\u6536
p7100
I2
sV88
p7101
I2
sV\u80e1\u54f2
p7102
I2
sV\u7206\u70b8\u7269
p7103
I2
sVWhich
p7104
I2
sV80
p7105
I18
sVBubble
p7106
I2
sV87
p7107
I2
sV\u4e0d\u4f46
p7108
I2
sV\u5360\u9886
p7109
I2
sV\u6027
I6
sV\u4e0d\u89c1\u5929\u65e5
p7110
I2
sV\u6469\u6258\u7f57\u62c9
p7111
I14
sV\u6216\u8005
p7112
I20
sV\u53cc\u5f00\u95e8
p7113
I2
sV\u5982\u4eca
p7114
I20
sV\u9c7c\u70b9
p7115
I2
sV\u6c34\u6676\u4e4b\u604b
p7116
I2
sV\u5b66\u9662
p7117
I2
sV\u6700\u8fd1
p7118
I48
sV\u6d77\u5173
p7119
I2
sV\u4e00\u79d2
p7120
I4
sV\u9020\u52bf
p7121
I2
sV\u91cd\u4efb
p7122
I2
sV\u4fbf\u5b9c
p7123
I6
sV\u5f15\u8fdb
p7124
I4
sV\u4e00\u90e8
p7125
I16
sV\u671f\u5f85\u5df2\u4e45
p7126
I2
sV\u6328\u5bb6\u6328\u6237
p7127
I2
sV\u8ffd\u6c42
p7128
I8
sV\u4e0d\u4f1a
p7129
I88
sV\u6d3e\u51fa\u6240
p7130
I48
sV\u91ce\u86ee
p7131
I6
sV\u6728\u5076
p7132
I2
sV\u5355\u7eaf
p7133
I4
sV\u5148\u62cd
p7134
I2
sV\u79fb\u52a8\u7528\u6237
p7135
I2
sVChromeBook
p7136
I2
sV\u4e0d\u4ec5
p7137
I30
sV\u6beb\u4e0d\u8fdf\u7591
p7138
I2
sV\u8bf4\u4e0d\u5b9a
p7139
I2
sV\u5c16\u53eb
p7140
I2
sV\u8425\u9500
p7141
I48
sV1500
p7142
I2
sV653
p7143
I2
sV\u795e\u5947
p7144
I4
sV\u56fd\u9645\u5316
p7145
I2
sV\u73b0\u9636\u6bb5
p7146
I4
sV\u795e\u8bdd
p7147
I52
sV\u559c\u9a6c\u62c9\u96c5\u5c71\u8109
p7148
I2
sV\u9876\u7ea7
p7149
I6
sV\u7f29\u5f71
p7150
I2
sV\u5185\u9601
p7151
I2
sV\u5982\u4f55
p7152
I20
sV\u53eb\u505a
p7153
I2
sV\u82b1\u94b1
p7154
I2
sV\u56db\u820d\u4e94\u5165
p7155
I2
sV\u4e0d\u4e86
p7156
I8
sV\u60ca\u4eba
p7157
I2
sV\u82f1\u5bf8
p7158
I46
sVSiri
p7159
I12
sV\u8d85\u723d
p7160
I2
sV\u5370
I4
sV\u52a8\u4f5c\u6e38\u620f
p7161
I6
sV\u665a\u95f4
p7162
I2
sVIntelAtom
p7163
I2
sV\u8d85\u7231
p7164
I2
sV\u4e0d\u5c0f
p7165
I2
sV\u7279\u5356
p7166
I2
sV1.4
p7167
I10
sV1.5
p7168
I6
sV1.6
p7169
I4
sV1.7
p7170
I6
sV1.2
p7171
I6
sV1.3
p7172
I8
sV\u6f6e\u6d41
p7173
I2
sV1.8
p7174
I2
sV\u5934\u8111
p7175
I48
sV\u6027\u4ef7\u6bd4
p7176
I4
sV\u8fc7\u540e
p7177
I2
sV\u731b
I52
sV\u5df2\u7ecf
p7178
I182
sV\u751f
I6
sV\u4e0d\u4e45
p7179
I2
sV\u6469\u6258
p7180
I12
sVAnbSoft
p7181
I2
sVafraid
p7182
I12
sV\u9700\u7ea6
p7183
I2
sV\u6211\u7231\u4f60
p7184
I4
sVDock
p7185
I2
sV\u9065\u63a7\u5668
p7186
I2
sV\u7535\u89c6\u63a5\u6536
p7187
I2
sV\u9762\u5bf9\u9762
p7188
I2
sV\u4f20\u7edf
p7189
I14
sV\u516d\u4fbf\u58eb
p7190
I2
sV\u504f\u5dee
p7191
I2
sV\u627f\u8f7d
p7192
I2
sV25000
p7193
I2
sV\u7559\u610f
p7194
I2
sVwho
p7195
I6
sVGames
p7196
I2
sVGamer
p7197
I2
sV\u7ecf\u5178
p7198
I18
sV\u6765\u4e34
p7199
I4
sV\u5206\u6790\u5458
p7200
I2
sV\u7279\u53f7
p7201
I2
sV\u5206\u6570
p7202
I6
sV\u7ed3\u5a5a
p7203
I6
sV\u8bb0\u8d77
p7204
I2
sV\u4e0d\u4e00
p7205
I2
sV\u604b\u60c5
p7206
I2
sV\u9762\u524d
p7207
I2
sV\u6e29\u6cc9
p7208
I4
sV\u907f\u514d
p7209
I2
sV\u5206\u6563
p7210
I2
sV\u4eba\u5458
p7211
I56
sV\u95f4
I4
sVEarth
p7212
I4
sV\u71c3\u8d77
p7213
I2
sV\u4f11\u95f2
p7214
I4
sV\u6c9f\u901a
p7215
I2
sV\u4e70\u5355
p7216
I48
sV\u6084\u6084
p7217
I2
sV\u5584\u5f85
p7218
I4
sVSoccer
p7219
I2
sV\u7535\u5b50
p7220
I52
sVBGR
p7221
I8
sV\u54ea\u4e2a
p7222
I4
sV97.2
p7223
I2
sV97.4
p7224
I2
sV\u60f3\u7740
p7225
I4
sV6000
p7226
I4
sV\u602f\u61e6
p7227
I2
sV\u8fc7\u53bb
p7228
I44
sV\u9ad8\u7ea7
p7229
I8
sV\u5b9d\u5b9d
p7230
I8
sVNetgear
p7231
I2
sV\u8bbe\u5382
p7232
I2
sV\u91cd\u5e86\u961f
p7233
I2
sV\u5546
I6
sV\u8c28\u9632
p7234
I2
sV\u534a
I2
sV999
p7235
I2
sV\u4eba\u53e3
p7236
I4
sVones
p7237
I2
sVGPS
p7238
I8
sV\u77eb\u6b63
p7239
I2
sV\u4ece\u6765\u4e0d
p7240
I2
sV\u8be5
I64
sV\u76db\u5bb4
p7241
I2
sV\u4e2d\u56fd\u653f\u5e9c
p7242
I2
sVKITTY
p7243
I2
sV\u79cb\u98ce
p7244
I2
sV\u516c\u7136
p7245
I2
sVBeats
p7246
I6
sVATIV
p7247
I6
sV\u51a0\u738b
p7248
I2
sV\u95f2\u7740
p7249
I4
sV\u843d\u540e
p7250
I2
sVFDD
p7251
I2
sV\u6beb\u65e0\u610f\u4e49
p7252
I2
sV\u5ac9\u6076\u5982\u4ec7
p7253
I2
sV\u76f8\u4eb2\u4f1a
p7254
I4
sV\u9898
I4
sV\u969c
I2
sV\u90e8\u624b\u673a
p7255
I4
sV\u957f\u9888\u9e7f
p7256
I2
sV\u5168\u9ad8\u6e05
p7257
I4
sV\u54ea\u4e9b
p7258
I10
sV\u541b\u4e3b
p7259
I2
sV\u8c37\u6b4c
p7260
I500
sV\u91c7\u8d2d
p7261
I4
sV\u53ea\u8981
p7262
I68
sV4499
p7263
I2
sV\u884c\u5c38\u8d70\u8089
p7264
I2
sV\u4e00\u6bb5\u65f6\u95f4
p7265
I4
sV\u5377\u8d77
p7266
I2
sVEFI
p7267
I8
sV\u6355
I2
sV\u5915\u9633
p7268
I2
sVDroidfooding
p7269
I4
sV\u884c\u653f
p7270
I4
sV\u6ce8
I2
sV\u8fc7\u534a
p7271
I48
sVEmotion
p7272
I8
sV\u5f97\u77e5
p7273
I2
sV\u6b3a\u8bc8
p7274
I2
sV\u6807\u8bb0
p7275
I2
sV\u5149\u666f
p7276
I2
sV\u88f8
I2
sV\u4ea4\u6613
p7277
I12
sV\u5fc5\u5907
p7278
I6
sV\u53cd\u54cd
p7279
I2
sV\u996d\u9986
p7280
I2
sV\u5c11\u90e8\u5206
p7281
I2
sV\u671f\u5f85
p7282
I4
sV\u5c0f\u7c73
p7283
I36
sV\u5171\u540c
p7284
I6
sV\u6469\u64e6
p7285
I4
sV\u6ca1
I162
sV\u6863\u6848
p7286
I2
sV\u6652\u592a\u9633
p7287
I2
sV\u6d88\u8d39\u8005
p7288
I136
sV\u8c46\u6c99\u5305
p7289
I2
sV\u7edd\u5927\u90e8\u5206
p7290
I4
sV\u6240\u5411\u62ab\u9761
p7291
I2
sVIE6
p7292
I8
sVZynga
p7293
I4
sV\u5446
I2
sV\u5bfb\u627e
p7294
I66
sV\u6bcf
I36
sV\u98de\u884c
p7295
I8
sV\u5fd7
I2
sV\u514d\u8d39\u9001
p7296
I2
sV\u641e\u6382
p7297
I2
sV\u4e00\u9762
p7298
I4
sV\u9f20\u6807
p7299
I48
sV\u4ecb\u7ecd
p7300
I4
sVwill
p7301
I6
sV\u5374
I48
sV\u5916\u9762
p7302
I2
sV\u52c7\u95ef
p7303
I2
sV\u5927\u529f\u7387
p7304
I2
sV~
I290
sV\u5343\u4e07\u522b
p7305
I2
sV\u9b54\u517d
p7306
I4
sV\u4e0d
I154
sV\u5730\u7403
p7307
I12
sV\u5730\u7406
p7308
I6
sV\uff17
I2
sV\u6218\u5229\u54c1
p7309
I2
sV\u5185\u90e8
p7310
I10
sV\u8d70\u51fa
p7311
I2
sVWSOP
p7312
I4
sV\u9762\u5411
p7313
I50
sV\u8d1f\u8d23
p7314
I8
sV\u4fc4\u7f57\u65af
p7315
I16
sV\u5bc4
I2
sV\u6bcf\u5468
p7316
I2
sV\u67d0\u4eba
p7317
I2
sV\u6e2f\u5e01
p7318
I6
sVMTK
p7319
I2
sV\u8f6f\u786c\u4ef6
p7320
I4
sV\u62cd\u5356\u884c
p7321
I2
sV\u64e6
I2
sV\u67d0\u4e9b
p7322
I2
sV\u523a\u6fc0
p7323
I16
sV\u6302\u9970
p7324
I2
sV\u529f\u4e0d\u53ef\u6ca1
p7325
I2
sV\u7ed3\u5c40
p7326
I2
sVARM
p7327
I2
sV\u8fc7\u5269
p7328
I2
sV\u4e8b
I22
sV\u521b\u529e
p7329
I6
sV\u5220\u51cf
p7330
I2
sV\u5a18
I2
sV\u603b\u90e8
p7331
I4
sVhappiness
p7332
I2
sV\u6807\u5fd7\u6027
p7333
I2
sV\u4e13\u5c5e
p7334
I8
sV\u65b0\u6b3e
p7335
I2
sV\u7a97\u6237
p7336
I2
sVT
I18
sVAsus
p7337
I2
sVLOGO
p7338
I2
sV\u56db
I78
sV\u654c\u4eba
p7339
I8
sV\u5916\u754c\u4eba\u58eb
p7340
I2
sV2499
p7341
I2
sV\u5c45\u7136
p7342
I2
sV\u9b54\u529b
p7343
I2
sV\u643a\u624b
p7344
I2
sVANDROID4
p7345
I2
sV\u5916\u661f\u4eba
p7346
I4
sV\u5f3a\u6491
p7347
I2
sV7899
p7348
I4
sV\u9694\u58c1
p7349
I4
sV\u9493\u9c7c
p7350
I4
sV11.
p7351
I2
sV\u72ec\u4e00\u65e0\u4e8c
p7352
I4
sV115
p7353
I6
sV\u9500\u552e\u989d
p7354
I4
sV113
p7355
I4
sV\u5b89\u88c5
p7356
I10
sV\u60ed\u6127
p7357
I2
sV\u884c\u674e
p7358
I2
sV\u6587\u827a
p7359
I4
sV\u76f8\u6bd4\u4e4b\u4e0b
p7360
I2
sV1034
p7361
I2
sVSonos
p7362
I12
sViPad4
p7363
I2
sV\u9632\u76d7
p7364
I6
sV\u6751
I2
sV\u6cb9\u753b
p7365
I2
sV\u5377\u8f74
p7366
I4
sV\u76db\u590f
p7367
I2
sV\u6d77\u5578
p7368
I2
sV\u5148\u673a
p7369
I2
sV\u5404\u81ea
p7370
I4
sV\u7b2c\u4e00\u5468
p7371
I2
sV\u9690\u85cf
p7372
I2
sV\u6d6e\u6e38
p7373
I2
sV\u7eb3\u7c73
p7374
I2
sV\u5583\u5583\u81ea\u8bed
p7375
I2
sV\u4e13\u5229\u7a0e
p7376
I2
sV\u8d34\u819c
p7377
I2
sV\u6570\u5b57
p7378
I12
sV\u300a
I202
sV\u54c1\u724c\u624b\u673a
p7379
I6
sV\u6295\u7968
p7380
I48
sV\u7279\u5730
p7381
I2
sV\u9ed1\u732b
p7382
I2
sV\u627f\u8ba4
p7383
I12
sV\u969c\u788d\u7269
p7384
I2
sV*
I14
sV\u4e00\u952e
p7385
I4
sV\u5954\u8dd1
p7386
I2
sV\u603b\u91cf
p7387
I4
sV\u627f\u8bfa
p7388
I8
sV\u4e2a\u4eba
p7389
I10
sV\u8154
I2
sV\u65b9\u4fbf
p7390
I12
sV\u8be5\u673a
p7391
I10
sV\u91ce\u82b1
p7392
I2
sVConsumer
p7393
I2
sVOptimus
p7394
I6
sVGold
p7395
I4
sV\u7981\u7528
p7396
I2
sV\u6597\u5730\u4e3b
p7397
I10
sV\u4f3c
I2
sV\u7535\u8111\u6e38\u620f
p7398
I2
sV\u827e
I2
sV\u7b80\u6d01
p7399
I6
sV\u7686
I4
sV\u79d1\u5b66\u5bb6
p7400
I8
sV\u8ff7\u5bab
p7401
I2
sV\u52a0\u83f2\u732b
p7402
I8
sV\u529e
I2
sV\u6843\u82b1
p7403
I2
sV\u53f0\u706f
p7404
I2
sV\u4e00\u95f4
p7405
I4
sV\u96c6
I4
sV\u53c8
I128
sVMbps
p7406
I16
sV\u5973\u5b50
p7407
I2
sV\u4e92\u76f8
p7408
I8
sVLook
p7409
I2
sV\u5c3a\u5bf8
p7410
I4
sV\u4e2d\u56fd\u53f0\u6e7e
p7411
I2
sV\u6ce2
I4
sVSparrow
p7412
I6
sV\u98d8\u8361
p7413
I2
sV\u7528\u5230
p7414
I4
sV\u796f
I4
sV\u5973\u5b69
p7415
I14
sV\u6d77
I2
sV\u4ef6
I2
sV\u53f2\u8482\u592b
p7416
I8
sV\u6b64\u524d
p7417
I20
sV\u6a21\u62df
p7418
I16
s.